
RTOS-Example.elf:     file format elf32-littlearm

Sections:
Idx Name          Size      VMA       LMA       File off  Algn
  0 .text         00009684  00400000  00400000  00010000  2**6
                  CONTENTS, ALLOC, LOAD, READONLY, CODE
  1 .ARM.exidx    00000008  00409684  00409684  00019684  2**2
                  CONTENTS, ALLOC, LOAD, READONLY, DATA
  2 .relocate     000009b8  20400000  0040968c  00020000  2**3
                  CONTENTS, ALLOC, LOAD, DATA
  3 .bss          00000384  204009b8  0040a044  000209b8  2**2
                  ALLOC
  4 .stack        00002004  20400d3c  0040a3c8  000209b8  2**0
                  ALLOC
  5 .heap         00000200  20402d40  0040c3cc  000209b8  2**0
                  ALLOC
  6 .ARM.attributes 0000002e  00000000  00000000  000209b8  2**0
                  CONTENTS, READONLY
  7 .comment      00000059  00000000  00000000  000209e6  2**0
                  CONTENTS, READONLY
  8 .debug_info   0001d38c  00000000  00000000  00020a3f  2**0
                  CONTENTS, READONLY, DEBUGGING
  9 .debug_abbrev 00003c90  00000000  00000000  0003ddcb  2**0
                  CONTENTS, READONLY, DEBUGGING
 10 .debug_loc    000090d2  00000000  00000000  00041a5b  2**0
                  CONTENTS, READONLY, DEBUGGING
 11 .debug_aranges 00000e80  00000000  00000000  0004ab2d  2**0
                  CONTENTS, READONLY, DEBUGGING
 12 .debug_ranges 00001140  00000000  00000000  0004b9ad  2**0
                  CONTENTS, READONLY, DEBUGGING
 13 .debug_macro  00022c81  00000000  00000000  0004caed  2**0
                  CONTENTS, READONLY, DEBUGGING
 14 .debug_line   00010223  00000000  00000000  0006f76e  2**0
                  CONTENTS, READONLY, DEBUGGING
 15 .debug_str    0009c936  00000000  00000000  0007f991  2**0
                  CONTENTS, READONLY, DEBUGGING
 16 .debug_frame  00003620  00000000  00000000  0011c2c8  2**2
                  CONTENTS, READONLY, DEBUGGING

Disassembly of section .text:

00400000 <exception_table>:
  400000:	40 2d 40 20 d5 07 40 00 d3 07 40 00 d3 07 40 00     @-@ ..@...@...@.
  400010:	d3 07 40 00 d3 07 40 00 d3 07 40 00 00 00 00 00     ..@...@...@.....
	...
  40002c:	d1 0b 40 00 d3 07 40 00 00 00 00 00 71 0c 40 00     ..@...@.....q.@.
  40003c:	d5 0c 40 00 d3 07 40 00 d3 07 40 00 d3 07 40 00     ..@...@...@...@.
  40004c:	d3 07 40 00 d3 07 40 00 d3 07 40 00 d3 07 40 00     ..@...@...@...@.
  40005c:	d3 07 40 00 d3 07 40 00 00 00 00 00 f9 04 40 00     ..@...@.......@.
  40006c:	0d 05 40 00 21 05 40 00 d3 07 40 00 d3 07 40 00     ..@.!.@...@...@.
  40007c:	d3 07 40 00 35 05 40 00 49 05 40 00 d3 07 40 00     ..@.5.@.I.@...@.
  40008c:	d3 07 40 00 d3 07 40 00 d3 07 40 00 d3 07 40 00     ..@...@...@...@.
  40009c:	d3 07 40 00 d3 07 40 00 d3 07 40 00 d3 07 40 00     ..@...@...@...@.
  4000ac:	d3 07 40 00 d3 07 40 00 d3 07 40 00 d3 07 40 00     ..@...@...@...@.
  4000bc:	d3 07 40 00 d3 07 40 00 d3 07 40 00 d3 07 40 00     ..@...@...@...@.
  4000cc:	d3 07 40 00 d3 07 40 00 d3 07 40 00 d3 07 40 00     ..@...@...@...@.
  4000dc:	d3 07 40 00 d3 07 40 00 d3 07 40 00 d3 07 40 00     ..@...@...@...@.
  4000ec:	d3 07 40 00 d3 07 40 00 d3 07 40 00 d3 07 40 00     ..@...@...@...@.
  4000fc:	d3 07 40 00 d3 07 40 00 d3 07 40 00 d3 07 40 00     ..@...@...@...@.
  40010c:	d3 07 40 00 d3 07 40 00 00 00 00 00 00 00 00 00     ..@...@.........
  40011c:	00 00 00 00 d3 07 40 00 d3 07 40 00 d3 07 40 00     ......@...@...@.
  40012c:	d3 07 40 00 d3 07 40 00 d3 07 40 00 d3 07 40 00     ..@...@...@...@.
  40013c:	d3 07 40 00 d3 07 40 00 d3 07 40 00 d3 07 40 00     ..@...@...@...@.
  40014c:	d3 07 40 00 d3 07 40 00 d3 07 40 00 d3 07 40 00     ..@...@...@...@.
  40015c:	d3 07 40 00 d3 07 40 00 d3 07 40 00                 ..@...@...@.

00400168 <__do_global_dtors_aux>:
  400168:	b510      	push	{r4, lr}
  40016a:	4c05      	ldr	r4, [pc, #20]	; (400180 <__do_global_dtors_aux+0x18>)
  40016c:	7823      	ldrb	r3, [r4, #0]
  40016e:	b933      	cbnz	r3, 40017e <__do_global_dtors_aux+0x16>
  400170:	4b04      	ldr	r3, [pc, #16]	; (400184 <__do_global_dtors_aux+0x1c>)
  400172:	b113      	cbz	r3, 40017a <__do_global_dtors_aux+0x12>
  400174:	4804      	ldr	r0, [pc, #16]	; (400188 <__do_global_dtors_aux+0x20>)
  400176:	f3af 8000 	nop.w
  40017a:	2301      	movs	r3, #1
  40017c:	7023      	strb	r3, [r4, #0]
  40017e:	bd10      	pop	{r4, pc}
  400180:	204009b8 	.word	0x204009b8
  400184:	00000000 	.word	0x00000000
  400188:	0040968c 	.word	0x0040968c

0040018c <frame_dummy>:
  40018c:	4b0c      	ldr	r3, [pc, #48]	; (4001c0 <frame_dummy+0x34>)
  40018e:	b143      	cbz	r3, 4001a2 <frame_dummy+0x16>
  400190:	480c      	ldr	r0, [pc, #48]	; (4001c4 <frame_dummy+0x38>)
  400192:	490d      	ldr	r1, [pc, #52]	; (4001c8 <frame_dummy+0x3c>)
  400194:	b510      	push	{r4, lr}
  400196:	f3af 8000 	nop.w
  40019a:	480c      	ldr	r0, [pc, #48]	; (4001cc <frame_dummy+0x40>)
  40019c:	6803      	ldr	r3, [r0, #0]
  40019e:	b923      	cbnz	r3, 4001aa <frame_dummy+0x1e>
  4001a0:	bd10      	pop	{r4, pc}
  4001a2:	480a      	ldr	r0, [pc, #40]	; (4001cc <frame_dummy+0x40>)
  4001a4:	6803      	ldr	r3, [r0, #0]
  4001a6:	b933      	cbnz	r3, 4001b6 <frame_dummy+0x2a>
  4001a8:	4770      	bx	lr
  4001aa:	4b09      	ldr	r3, [pc, #36]	; (4001d0 <frame_dummy+0x44>)
  4001ac:	2b00      	cmp	r3, #0
  4001ae:	d0f7      	beq.n	4001a0 <frame_dummy+0x14>
  4001b0:	e8bd 4010 	ldmia.w	sp!, {r4, lr}
  4001b4:	4718      	bx	r3
  4001b6:	4b06      	ldr	r3, [pc, #24]	; (4001d0 <frame_dummy+0x44>)
  4001b8:	2b00      	cmp	r3, #0
  4001ba:	d0f5      	beq.n	4001a8 <frame_dummy+0x1c>
  4001bc:	4718      	bx	r3
  4001be:	bf00      	nop
  4001c0:	00000000 	.word	0x00000000
  4001c4:	0040968c 	.word	0x0040968c
  4001c8:	204009bc 	.word	0x204009bc
  4001cc:	0040968c 	.word	0x0040968c
  4001d0:	00000000 	.word	0x00000000

004001d4 <sysclk_init>:
	pmc_disable_udpck();
}
#endif // CONFIG_USBCLK_SOURCE

void sysclk_init(void)
{
  4001d4:	b510      	push	{r4, lr}
	struct pll_config pllcfg;

	/* Set flash wait state to max in case the below clock switching. */
	system_init_flash(CHIP_FREQ_CPU_MAX/2);
  4001d6:	4810      	ldr	r0, [pc, #64]	; (400218 <sysclk_init+0x44>)
  4001d8:	4b10      	ldr	r3, [pc, #64]	; (40021c <sysclk_init+0x48>)
  4001da:	4798      	blx	r3
		pmc_switch_mainck_to_fastrc(CKGR_MOR_MOSCRCF_12_MHz);
		break;


	case OSC_MAINCK_XTAL:
		pmc_switch_mainck_to_xtal(PMC_OSC_XTAL,
  4001dc:	213e      	movs	r1, #62	; 0x3e
  4001de:	2000      	movs	r0, #0
  4001e0:	4b0f      	ldr	r3, [pc, #60]	; (400220 <sysclk_init+0x4c>)
  4001e2:	4798      	blx	r3
	case OSC_MAINCK_4M_RC:
	case OSC_MAINCK_8M_RC:
	case OSC_MAINCK_12M_RC:
	case OSC_MAINCK_XTAL:
	case OSC_MAINCK_BYPASS:
		return pmc_osc_is_ready_mainck();
  4001e4:	4c0f      	ldr	r4, [pc, #60]	; (400224 <sysclk_init+0x50>)
  4001e6:	47a0      	blx	r4
 *
 * \param id A number identifying the oscillator to wait for.
 */
static inline void osc_wait_ready(uint8_t id)
{
	while (!osc_is_ready(id)) {
  4001e8:	2800      	cmp	r0, #0
  4001ea:	d0fc      	beq.n	4001e6 <sysclk_init+0x12>
static inline void pll_enable(const struct pll_config *p_cfg, uint32_t ul_pll_id)
{
	Assert(ul_pll_id < NR_PLLS);

	if (ul_pll_id == PLLA_ID) {
		pmc_disable_pllack(); // Always stop PLL first!
  4001ec:	4b0e      	ldr	r3, [pc, #56]	; (400228 <sysclk_init+0x54>)
  4001ee:	4798      	blx	r3
		PMC->CKGR_PLLAR = CKGR_PLLAR_ONE | p_cfg->ctrl;
  4001f0:	4a0e      	ldr	r2, [pc, #56]	; (40022c <sysclk_init+0x58>)
  4001f2:	4b0f      	ldr	r3, [pc, #60]	; (400230 <sysclk_init+0x5c>)
  4001f4:	629a      	str	r2, [r3, #40]	; 0x28
static inline uint32_t pll_is_locked(uint32_t ul_pll_id)
{
	Assert(ul_pll_id < NR_PLLS);

	if (ul_pll_id == PLLA_ID) {
	return pmc_is_locked_pllack();
  4001f6:	4c0f      	ldr	r4, [pc, #60]	; (400234 <sysclk_init+0x60>)
  4001f8:	47a0      	blx	r4
 */
static inline int pll_wait_for_lock(unsigned int pll_id)
{
	Assert(pll_id < NR_PLLS);

	while (!pll_is_locked(pll_id)) {
  4001fa:	2800      	cmp	r0, #0
  4001fc:	d0fc      	beq.n	4001f8 <sysclk_init+0x24>
	else if (CONFIG_SYSCLK_SOURCE == SYSCLK_SRC_PLLACK) {
		pll_enable_source(CONFIG_PLL0_SOURCE);
		pll_config_defaults(&pllcfg, 0);
		pll_enable(&pllcfg, 0);
		pll_wait_for_lock(0);
		pmc_mck_set_division(CONFIG_SYSCLK_DIV);
  4001fe:	2002      	movs	r0, #2
  400200:	4b0d      	ldr	r3, [pc, #52]	; (400238 <sysclk_init+0x64>)
  400202:	4798      	blx	r3
		pmc_switch_mck_to_pllack(CONFIG_SYSCLK_PRES);
  400204:	2000      	movs	r0, #0
  400206:	4b0d      	ldr	r3, [pc, #52]	; (40023c <sysclk_init+0x68>)
  400208:	4798      	blx	r3
		pll_wait_for_lock(1);
		pmc_mck_set_division(CONFIG_SYSCLK_DIV);
		pmc_switch_mck_to_upllck(CONFIG_SYSCLK_PRES);
	}
	/* Update the SystemFrequency variable */
	SystemCoreClockUpdate();
  40020a:	4b0d      	ldr	r3, [pc, #52]	; (400240 <sysclk_init+0x6c>)
  40020c:	4798      	blx	r3

	/* Set a flash wait state depending on the master clock frequency */
	system_init_flash(sysclk_get_cpu_hz() / CONFIG_SYSCLK_DIV);
  40020e:	4802      	ldr	r0, [pc, #8]	; (400218 <sysclk_init+0x44>)
  400210:	4b02      	ldr	r3, [pc, #8]	; (40021c <sysclk_init+0x48>)
  400212:	4798      	blx	r3
  400214:	bd10      	pop	{r4, pc}
  400216:	bf00      	nop
  400218:	08f0d180 	.word	0x08f0d180
  40021c:	004009a9 	.word	0x004009a9
  400220:	004005f9 	.word	0x004005f9
  400224:	0040064d 	.word	0x0040064d
  400228:	0040065d 	.word	0x0040065d
  40022c:	20183f01 	.word	0x20183f01
  400230:	400e0600 	.word	0x400e0600
  400234:	0040066d 	.word	0x0040066d
  400238:	0040055d 	.word	0x0040055d
  40023c:	00400595 	.word	0x00400595
  400240:	0040089d 	.word	0x0040089d

00400244 <_read>:
int __attribute__((weak))
_read (int file, char * ptr, int len); // Remove GCC compiler warning

int __attribute__((weak))
_read (int file, char * ptr, int len)
{
  400244:	e92d 41f0 	stmdb	sp!, {r4, r5, r6, r7, r8, lr}
	int nChars = 0;

	if (file != 0) {
  400248:	b980      	cbnz	r0, 40026c <_read+0x28>
  40024a:	460c      	mov	r4, r1
  40024c:	4690      	mov	r8, r2
		return -1;
	}

	for (; len > 0; --len) {
  40024e:	2a00      	cmp	r2, #0
  400250:	dd0f      	ble.n	400272 <_read+0x2e>
  400252:	188f      	adds	r7, r1, r2
		ptr_get(stdio_base, ptr);
  400254:	4e08      	ldr	r6, [pc, #32]	; (400278 <_read+0x34>)
  400256:	4d09      	ldr	r5, [pc, #36]	; (40027c <_read+0x38>)
  400258:	6830      	ldr	r0, [r6, #0]
  40025a:	4621      	mov	r1, r4
  40025c:	682b      	ldr	r3, [r5, #0]
  40025e:	4798      	blx	r3
		ptr++;
  400260:	3401      	adds	r4, #1
	for (; len > 0; --len) {
  400262:	42bc      	cmp	r4, r7
  400264:	d1f8      	bne.n	400258 <_read+0x14>
		nChars++;
	}
	return nChars;
}
  400266:	4640      	mov	r0, r8
  400268:	e8bd 81f0 	ldmia.w	sp!, {r4, r5, r6, r7, r8, pc}
		return -1;
  40026c:	f04f 38ff 	mov.w	r8, #4294967295
  400270:	e7f9      	b.n	400266 <_read+0x22>
	for (; len > 0; --len) {
  400272:	4680      	mov	r8, r0
  400274:	e7f7      	b.n	400266 <_read+0x22>
  400276:	bf00      	nop
  400278:	20400cd0 	.word	0x20400cd0
  40027c:	20400cc8 	.word	0x20400cc8

00400280 <_write>:
int __attribute__((weak))
_write (int file, const char *ptr, int len)
{
	int nChars = 0;

	if ((file != 1) && (file != 2) && (file!=3)) {
  400280:	3801      	subs	r0, #1
  400282:	2802      	cmp	r0, #2
  400284:	d815      	bhi.n	4002b2 <_write+0x32>
{
  400286:	e92d 41f0 	stmdb	sp!, {r4, r5, r6, r7, r8, lr}
  40028a:	460e      	mov	r6, r1
  40028c:	4614      	mov	r4, r2
		return -1;
	}

	for (; len != 0; --len) {
  40028e:	b19a      	cbz	r2, 4002b8 <_write+0x38>
  400290:	460d      	mov	r5, r1
		if (ptr_put(stdio_base, *ptr++) < 0) {
  400292:	f8df 8038 	ldr.w	r8, [pc, #56]	; 4002cc <_write+0x4c>
  400296:	4f0c      	ldr	r7, [pc, #48]	; (4002c8 <_write+0x48>)
  400298:	f8d8 0000 	ldr.w	r0, [r8]
  40029c:	f815 1b01 	ldrb.w	r1, [r5], #1
  4002a0:	683b      	ldr	r3, [r7, #0]
  4002a2:	4798      	blx	r3
  4002a4:	2800      	cmp	r0, #0
  4002a6:	db0a      	blt.n	4002be <_write+0x3e>
  4002a8:	1ba8      	subs	r0, r5, r6
	for (; len != 0; --len) {
  4002aa:	3c01      	subs	r4, #1
  4002ac:	d1f4      	bne.n	400298 <_write+0x18>
  4002ae:	e8bd 81f0 	ldmia.w	sp!, {r4, r5, r6, r7, r8, pc}
		return -1;
  4002b2:	f04f 30ff 	mov.w	r0, #4294967295
  4002b6:	4770      	bx	lr
	for (; len != 0; --len) {
  4002b8:	4610      	mov	r0, r2
  4002ba:	e8bd 81f0 	ldmia.w	sp!, {r4, r5, r6, r7, r8, pc}
			return -1;
  4002be:	f04f 30ff 	mov.w	r0, #4294967295
		}
		++nChars;
	}
	return nChars;
}
  4002c2:	e8bd 81f0 	ldmia.w	sp!, {r4, r5, r6, r7, r8, pc}
  4002c6:	bf00      	nop
  4002c8:	20400ccc 	.word	0x20400ccc
  4002cc:	20400cd0 	.word	0x20400cd0

004002d0 <board_init>:
	__ISB();
}
#endif

void board_init(void)
{
  4002d0:	b5f8      	push	{r3, r4, r5, r6, r7, lr}
#ifndef CONF_BOARD_KEEP_WATCHDOG_AT_INIT
	/* Disable the watchdog */
	WDT->WDT_MR = WDT_MR_WDDIS;
  4002d2:	f44f 4200 	mov.w	r2, #32768	; 0x8000
  4002d6:	4b5b      	ldr	r3, [pc, #364]	; (400444 <board_init+0x174>)
  4002d8:	605a      	str	r2, [r3, #4]
  \details Acts as a special kind of Data Memory Barrier.
           It completes when all explicit memory accesses before this instruction complete.
 */
__STATIC_FORCEINLINE void __DSB(void)
{
  __ASM volatile ("dsb 0xF":::"memory");
  4002da:	f3bf 8f4f 	dsb	sy
  __ASM volatile ("isb 0xF":::"memory");
  4002de:	f3bf 8f6f 	isb	sy
__STATIC_INLINE void SCB_EnableICache (void)
{
  #if defined (__ICACHE_PRESENT) && (__ICACHE_PRESENT == 1U)
    __DSB();
    __ISB();
    SCB->ICIALLU = 0UL;                     /* invalidate I-Cache */
  4002e2:	4b59      	ldr	r3, [pc, #356]	; (400448 <board_init+0x178>)
  4002e4:	2100      	movs	r1, #0
  4002e6:	f8c3 1250 	str.w	r1, [r3, #592]	; 0x250
  __ASM volatile ("dsb 0xF":::"memory");
  4002ea:	f3bf 8f4f 	dsb	sy
  __ASM volatile ("isb 0xF":::"memory");
  4002ee:	f3bf 8f6f 	isb	sy
    __DSB();
    __ISB();
    SCB->CCR |=  (uint32_t)SCB_CCR_IC_Msk;  /* enable I-Cache */
  4002f2:	695a      	ldr	r2, [r3, #20]
  4002f4:	f442 3200 	orr.w	r2, r2, #131072	; 0x20000
  4002f8:	615a      	str	r2, [r3, #20]
  __ASM volatile ("dsb 0xF":::"memory");
  4002fa:	f3bf 8f4f 	dsb	sy
  __ASM volatile ("isb 0xF":::"memory");
  4002fe:	f3bf 8f6f 	isb	sy
  #if defined (__DCACHE_PRESENT) && (__DCACHE_PRESENT == 1U)
    uint32_t ccsidr;
    uint32_t sets;
    uint32_t ways;

    SCB->CSSELR = 0U; /*(0U << 1U) | 0U;*/  /* Level 1 data cache */
  400302:	f8c3 1084 	str.w	r1, [r3, #132]	; 0x84
  __ASM volatile ("dsb 0xF":::"memory");
  400306:	f3bf 8f4f 	dsb	sy
    __DSB();

    ccsidr = SCB->CCSIDR;
  40030a:	f8d3 7080 	ldr.w	r7, [r3, #128]	; 0x80

                                            /* invalidate D-Cache */
    sets = (uint32_t)(CCSIDR_SETS(ccsidr));
  40030e:	f3c7 354e 	ubfx	r5, r7, #13, #15
    do {
      ways = (uint32_t)(CCSIDR_WAYS(ccsidr));
  400312:	f3c7 07c9 	ubfx	r7, r7, #3, #10
  400316:	016e      	lsls	r6, r5, #5
  400318:	ea4f 7c87 	mov.w	ip, r7, lsl #30
      do {
        SCB->DCISW = (((sets << SCB_DCISW_SET_Pos) & SCB_DCISW_SET_Msk) |
  40031c:	f643 7ee0 	movw	lr, #16352	; 0x3fe0
  400320:	461c      	mov	r4, r3
  400322:	ea06 000e 	and.w	r0, r6, lr
  400326:	4662      	mov	r2, ip
      ways = (uint32_t)(CCSIDR_WAYS(ccsidr));
  400328:	463b      	mov	r3, r7
        SCB->DCISW = (((sets << SCB_DCISW_SET_Pos) & SCB_DCISW_SET_Msk) |
  40032a:	ea40 0102 	orr.w	r1, r0, r2
  40032e:	f8c4 1260 	str.w	r1, [r4, #608]	; 0x260
                      ((ways << SCB_DCISW_WAY_Pos) & SCB_DCISW_WAY_Msk)  );
        #if defined ( __CC_ARM )
          __schedule_barrier();
        #endif
      } while (ways-- != 0U);
  400332:	3b01      	subs	r3, #1
  400334:	f102 4240 	add.w	r2, r2, #3221225472	; 0xc0000000
  400338:	f1b3 3fff 	cmp.w	r3, #4294967295
  40033c:	d1f5      	bne.n	40032a <board_init+0x5a>
    } while(sets-- != 0U);
  40033e:	3d01      	subs	r5, #1
  400340:	3e20      	subs	r6, #32
  400342:	f1b5 3fff 	cmp.w	r5, #4294967295
  400346:	d1ec      	bne.n	400322 <board_init+0x52>
  400348:	f3bf 8f4f 	dsb	sy
    __DSB();

    SCB->CCR |=  (uint32_t)SCB_CCR_DC_Msk;  /* enable D-Cache */
  40034c:	4b3e      	ldr	r3, [pc, #248]	; (400448 <board_init+0x178>)
  40034e:	695a      	ldr	r2, [r3, #20]
  400350:	f442 3280 	orr.w	r2, r2, #65536	; 0x10000
  400354:	615a      	str	r2, [r3, #20]
  400356:	f3bf 8f4f 	dsb	sy
  __ASM volatile ("isb 0xF":::"memory");
  40035a:	f3bf 8f6f 	isb	sy
		*dst++ = *src++;
	}
#endif
#else
	/* TCM Configuration */
	EFC->EEFC_FCR = (EEFC_FCR_FKEY_PASSWD | EEFC_FCR_FCMD_CGPB 
  40035e:	4a3b      	ldr	r2, [pc, #236]	; (40044c <board_init+0x17c>)
  400360:	493b      	ldr	r1, [pc, #236]	; (400450 <board_init+0x180>)
  400362:	6051      	str	r1, [r2, #4]
					| EEFC_FCR_FARG(8));
	EFC->EEFC_FCR = (EEFC_FCR_FKEY_PASSWD | EEFC_FCR_FCMD_CGPB 
  400364:	f5a1 7180 	sub.w	r1, r1, #256	; 0x100
  400368:	6051      	str	r1, [r2, #4]
  __ASM volatile ("dsb 0xF":::"memory");
  40036a:	f3bf 8f4f 	dsb	sy
  __ASM volatile ("isb 0xF":::"memory");
  40036e:	f3bf 8f6f 	isb	sy
	SCB->ITCMCR &= ~(uint32_t)(1UL);
  400372:	f8d3 2290 	ldr.w	r2, [r3, #656]	; 0x290
  400376:	f022 0201 	bic.w	r2, r2, #1
  40037a:	f8c3 2290 	str.w	r2, [r3, #656]	; 0x290
	SCB->DTCMCR &= ~(uint32_t)SCB_DTCMCR_EN_Msk;
  40037e:	f8d3 2294 	ldr.w	r2, [r3, #660]	; 0x294
  400382:	f022 0201 	bic.w	r2, r2, #1
  400386:	f8c3 2294 	str.w	r2, [r3, #660]	; 0x294
  __ASM volatile ("dsb 0xF":::"memory");
  40038a:	f3bf 8f4f 	dsb	sy
  __ASM volatile ("isb 0xF":::"memory");
  40038e:	f3bf 8f6f 	isb	sy
 *
 * \param ul_id Id (number) of the peripheral clock.
 */
static inline void sysclk_enable_peripheral_clock(uint32_t ul_id)
{
	pmc_enable_periph_clk(ul_id);
  400392:	200a      	movs	r0, #10
  400394:	4c2f      	ldr	r4, [pc, #188]	; (400454 <board_init+0x184>)
  400396:	47a0      	blx	r4
  400398:	200b      	movs	r0, #11
  40039a:	47a0      	blx	r4
  40039c:	200c      	movs	r0, #12
  40039e:	47a0      	blx	r4
  4003a0:	2010      	movs	r0, #16
  4003a2:	47a0      	blx	r4
  4003a4:	2011      	movs	r0, #17
  4003a6:	47a0      	blx	r4
		enum ioport_direction dir)
{
	Pio *base = arch_ioport_pin_to_base(pin);

	if (dir == IOPORT_DIR_OUTPUT) {
		base->PIO_OER = arch_ioport_pin_to_mask(pin);
  4003a8:	4b2b      	ldr	r3, [pc, #172]	; (400458 <board_init+0x188>)
  4003aa:	f44f 7280 	mov.w	r2, #256	; 0x100
  4003ae:	611a      	str	r2, [r3, #16]
	} else if (dir == IOPORT_DIR_INPUT) {
		base->PIO_ODR = arch_ioport_pin_to_mask(pin);
	}

	base->PIO_OWER = arch_ioport_pin_to_mask(pin);
  4003b0:	f8c3 20a0 	str.w	r2, [r3, #160]	; 0xa0
		bool level)
{
	Pio *base = arch_ioport_pin_to_base(pin);

	if (level) {
		base->PIO_SODR = arch_ioport_pin_to_mask(pin);
  4003b4:	631a      	str	r2, [r3, #48]	; 0x30
		base->PIO_ODR = arch_ioport_pin_to_mask(pin);
  4003b6:	f5a3 6380 	sub.w	r3, r3, #1024	; 0x400
  4003ba:	f44f 6200 	mov.w	r2, #2048	; 0x800
  4003be:	615a      	str	r2, [r3, #20]
	base->PIO_OWER = arch_ioport_pin_to_mask(pin);
  4003c0:	f8c3 20a0 	str.w	r2, [r3, #160]	; 0xa0
		base->PIO_PUER = mask;
  4003c4:	665a      	str	r2, [r3, #100]	; 0x64
		base->PIO_PPDDR = mask;
  4003c6:	f8c3 2090 	str.w	r2, [r3, #144]	; 0x90
		base->PIO_MDDR = mask;
  4003ca:	655a      	str	r2, [r3, #84]	; 0x54
		base->PIO_IFER = mask;
  4003cc:	621a      	str	r2, [r3, #32]
		base->PIO_IFSCER = mask;
  4003ce:	f8c3 2084 	str.w	r2, [r3, #132]	; 0x84
		base->PIO_ABCDSR[0] &= ~mask;
  4003d2:	6f19      	ldr	r1, [r3, #112]	; 0x70
  4003d4:	f421 6100 	bic.w	r1, r1, #2048	; 0x800
  4003d8:	6719      	str	r1, [r3, #112]	; 0x70
		base->PIO_ABCDSR[1] &= ~mask;
  4003da:	6f59      	ldr	r1, [r3, #116]	; 0x74
  4003dc:	f421 6100 	bic.w	r1, r1, #2048	; 0x800
  4003e0:	6759      	str	r1, [r3, #116]	; 0x74
	case IOPORT_SENSE_FALLING:
		base->PIO_ESR = mask;
		base->PIO_FELLSR = mask;
		break;
	case IOPORT_SENSE_RISING:
		base->PIO_ESR = mask;
  4003e2:	f8c3 20c0 	str.w	r2, [r3, #192]	; 0xc0
		base->PIO_REHLSR = mask;
  4003e6:	f8c3 20d4 	str.w	r2, [r3, #212]	; 0xd4
		break;
	default:
		base->PIO_AIMDR = mask;
		return;
	}
	base->PIO_AIMER = mask;
  4003ea:	f8c3 20b0 	str.w	r2, [r3, #176]	; 0xb0
		base->PIO_PUDR = mask;
  4003ee:	f44f 1200 	mov.w	r2, #2097152	; 0x200000
  4003f2:	661a      	str	r2, [r3, #96]	; 0x60
		base->PIO_PPDDR = mask;
  4003f4:	f8c3 2090 	str.w	r2, [r3, #144]	; 0x90
		base->PIO_MDDR = mask;
  4003f8:	655a      	str	r2, [r3, #84]	; 0x54
		base->PIO_IFDR = mask;
  4003fa:	625a      	str	r2, [r3, #36]	; 0x24
		base->PIO_IFSCDR = mask;
  4003fc:	f8c3 2080 	str.w	r2, [r3, #128]	; 0x80
		base->PIO_ABCDSR[0] &= ~mask;
  400400:	6f19      	ldr	r1, [r3, #112]	; 0x70
  400402:	f421 1100 	bic.w	r1, r1, #2097152	; 0x200000
  400406:	6719      	str	r1, [r3, #112]	; 0x70
		base->PIO_ABCDSR[1] &= ~mask;
  400408:	6f59      	ldr	r1, [r3, #116]	; 0x74
  40040a:	f421 1100 	bic.w	r1, r1, #2097152	; 0x200000
  40040e:	6759      	str	r1, [r3, #116]	; 0x74
	arch_ioport_port_to_base(port)->PIO_PDR = mask;
  400410:	605a      	str	r2, [r3, #4]
			GPIO_PUSH_BUTTON_1_SENSE);

#ifdef CONF_BOARD_UART_CONSOLE
	/* Configure UART pins */
	ioport_set_pin_peripheral_mode(USART1_RXD_GPIO, USART1_RXD_FLAGS);
	MATRIX->CCFG_SYSIO |= CCFG_SYSIO_SYSIO4;
  400412:	4a12      	ldr	r2, [pc, #72]	; (40045c <board_init+0x18c>)
  400414:	f8d2 3114 	ldr.w	r3, [r2, #276]	; 0x114
  400418:	f043 0310 	orr.w	r3, r3, #16
  40041c:	f8c2 3114 	str.w	r3, [r2, #276]	; 0x114
		base->PIO_PUDR = mask;
  400420:	4b0f      	ldr	r3, [pc, #60]	; (400460 <board_init+0x190>)
  400422:	2210      	movs	r2, #16
  400424:	661a      	str	r2, [r3, #96]	; 0x60
		base->PIO_PPDDR = mask;
  400426:	f8c3 2090 	str.w	r2, [r3, #144]	; 0x90
		base->PIO_MDDR = mask;
  40042a:	655a      	str	r2, [r3, #84]	; 0x54
		base->PIO_IFDR = mask;
  40042c:	625a      	str	r2, [r3, #36]	; 0x24
		base->PIO_IFSCDR = mask;
  40042e:	f8c3 2080 	str.w	r2, [r3, #128]	; 0x80
		base->PIO_ABCDSR[0] |= mask;
  400432:	6f19      	ldr	r1, [r3, #112]	; 0x70
  400434:	4311      	orrs	r1, r2
  400436:	6719      	str	r1, [r3, #112]	; 0x70
		base->PIO_ABCDSR[1] |= mask;
  400438:	6f59      	ldr	r1, [r3, #116]	; 0x74
  40043a:	4311      	orrs	r1, r2
  40043c:	6759      	str	r1, [r3, #116]	; 0x74
	arch_ioport_port_to_base(port)->PIO_PDR = mask;
  40043e:	605a      	str	r2, [r3, #4]
  400440:	bdf8      	pop	{r3, r4, r5, r6, r7, pc}
  400442:	bf00      	nop
  400444:	400e1850 	.word	0x400e1850
  400448:	e000ed00 	.word	0xe000ed00
  40044c:	400e0c00 	.word	0x400e0c00
  400450:	5a00080c 	.word	0x5a00080c
  400454:	0040067d 	.word	0x0040067d
  400458:	400e1200 	.word	0x400e1200
  40045c:	40088000 	.word	0x40088000
  400460:	400e1000 	.word	0x400e1000

00400464 <pio_set>:
 * \param p_pio Pointer to a PIO instance.
 * \param ul_mask Bitmask of one or more pin(s) to configure.
 */
void pio_set(Pio *p_pio, const uint32_t ul_mask)
{
	p_pio->PIO_SODR = ul_mask;
  400464:	6301      	str	r1, [r0, #48]	; 0x30
  400466:	4770      	bx	lr

00400468 <pio_clear>:
 * \param p_pio Pointer to a PIO instance.
 * \param ul_mask Bitmask of one or more pin(s) to configure.
 */
void pio_clear(Pio *p_pio, const uint32_t ul_mask)
{
	p_pio->PIO_CODR = ul_mask;
  400468:	6341      	str	r1, [r0, #52]	; 0x34
  40046a:	4770      	bx	lr

0040046c <pio_set_output>:
 */
void pio_set_output(Pio *p_pio, const uint32_t ul_mask,
		const uint32_t ul_default_level,
		const uint32_t ul_multidrive_enable,
		const uint32_t ul_pull_up_enable)
{
  40046c:	b410      	push	{r4}
  40046e:	9c01      	ldr	r4, [sp, #4]
 * \param p_pio Pointer to a PIO instance.
 * \param ul_mask Interrupt sources bit map.
 */
void pio_disable_interrupt(Pio *p_pio, const uint32_t ul_mask)
{
	p_pio->PIO_IDR = ul_mask;
  400470:	6441      	str	r1, [r0, #68]	; 0x44
	if (ul_pull_up_enable) {
  400472:	b94c      	cbnz	r4, 400488 <pio_set_output+0x1c>
		p_pio->PIO_PUDR = ul_mask;
  400474:	6601      	str	r1, [r0, #96]	; 0x60
	if (ul_multidrive_enable) {
  400476:	b14b      	cbz	r3, 40048c <pio_set_output+0x20>
		p_pio->PIO_MDER = ul_mask;
  400478:	6501      	str	r1, [r0, #80]	; 0x50
	if (ul_default_level) {
  40047a:	b94a      	cbnz	r2, 400490 <pio_set_output+0x24>
		p_pio->PIO_CODR = ul_mask;
  40047c:	6341      	str	r1, [r0, #52]	; 0x34
	p_pio->PIO_OER = ul_mask;
  40047e:	6101      	str	r1, [r0, #16]
	p_pio->PIO_PER = ul_mask;
  400480:	6001      	str	r1, [r0, #0]
}
  400482:	f85d 4b04 	ldr.w	r4, [sp], #4
  400486:	4770      	bx	lr
		p_pio->PIO_PUER = ul_mask;
  400488:	6641      	str	r1, [r0, #100]	; 0x64
  40048a:	e7f4      	b.n	400476 <pio_set_output+0xa>
		p_pio->PIO_MDDR = ul_mask;
  40048c:	6541      	str	r1, [r0, #84]	; 0x54
  40048e:	e7f4      	b.n	40047a <pio_set_output+0xe>
		p_pio->PIO_SODR = ul_mask;
  400490:	6301      	str	r1, [r0, #48]	; 0x30
  400492:	e7f4      	b.n	40047e <pio_set_output+0x12>

00400494 <pio_get_output_data_status>:
	if ((p_pio->PIO_ODSR & ul_mask) == 0) {
  400494:	6b83      	ldr	r3, [r0, #56]	; 0x38
  400496:	420b      	tst	r3, r1
}
  400498:	bf14      	ite	ne
  40049a:	2001      	movne	r0, #1
  40049c:	2000      	moveq	r0, #0
  40049e:	4770      	bx	lr

004004a0 <pio_get_interrupt_status>:
 *
 * \return The interrupt status value.
 */
uint32_t pio_get_interrupt_status(const Pio *p_pio)
{
	return p_pio->PIO_ISR;
  4004a0:	6cc0      	ldr	r0, [r0, #76]	; 0x4c
}
  4004a2:	4770      	bx	lr

004004a4 <pio_get_interrupt_mask>:
 *
 * \return The interrupt mask value.
 */
uint32_t pio_get_interrupt_mask(const Pio *p_pio)
{
	return p_pio->PIO_IMR;
  4004a4:	6c80      	ldr	r0, [r0, #72]	; 0x48
}
  4004a6:	4770      	bx	lr

004004a8 <pio_handler_process>:
 *
 * \param p_pio PIO controller base address.
 * \param ul_id PIO controller ID.
 */
void pio_handler_process(Pio *p_pio, uint32_t ul_id)
{
  4004a8:	e92d 41f0 	stmdb	sp!, {r4, r5, r6, r7, r8, lr}
  4004ac:	4604      	mov	r4, r0
  4004ae:	4688      	mov	r8, r1
	uint32_t status;
	uint32_t i;

	/* Read PIO controller status */
	status = pio_get_interrupt_status(p_pio);
  4004b0:	4b0e      	ldr	r3, [pc, #56]	; (4004ec <pio_handler_process+0x44>)
  4004b2:	4798      	blx	r3
  4004b4:	4605      	mov	r5, r0
	status &= pio_get_interrupt_mask(p_pio);
  4004b6:	4620      	mov	r0, r4
  4004b8:	4b0d      	ldr	r3, [pc, #52]	; (4004f0 <pio_handler_process+0x48>)
  4004ba:	4798      	blx	r3

	/* Check pending events */
	if (status != 0) {
  4004bc:	4005      	ands	r5, r0
  4004be:	d013      	beq.n	4004e8 <pio_handler_process+0x40>
  4004c0:	4c0c      	ldr	r4, [pc, #48]	; (4004f4 <pio_handler_process+0x4c>)
  4004c2:	f104 0660 	add.w	r6, r4, #96	; 0x60
  4004c6:	e003      	b.n	4004d0 <pio_handler_process+0x28>
							gs_interrupt_sources[i].mask);
					status &= ~(gs_interrupt_sources[i].mask);
				}
			}
			i++;
			if (i >= MAX_INTERRUPT_SOURCES) {
  4004c8:	42b4      	cmp	r4, r6
  4004ca:	d00d      	beq.n	4004e8 <pio_handler_process+0x40>
  4004cc:	3410      	adds	r4, #16
		while (status != 0) {
  4004ce:	b15d      	cbz	r5, 4004e8 <pio_handler_process+0x40>
			if (gs_interrupt_sources[i].id == ul_id) {
  4004d0:	6820      	ldr	r0, [r4, #0]
  4004d2:	4540      	cmp	r0, r8
  4004d4:	d1f8      	bne.n	4004c8 <pio_handler_process+0x20>
				if ((status & gs_interrupt_sources[i].mask) != 0) {
  4004d6:	6861      	ldr	r1, [r4, #4]
  4004d8:	4229      	tst	r1, r5
  4004da:	d0f5      	beq.n	4004c8 <pio_handler_process+0x20>
					gs_interrupt_sources[i].handler(gs_interrupt_sources[i].id,
  4004dc:	68e3      	ldr	r3, [r4, #12]
  4004de:	4798      	blx	r3
					status &= ~(gs_interrupt_sources[i].mask);
  4004e0:	6863      	ldr	r3, [r4, #4]
  4004e2:	ea25 0503 	bic.w	r5, r5, r3
  4004e6:	e7ef      	b.n	4004c8 <pio_handler_process+0x20>
  4004e8:	e8bd 81f0 	ldmia.w	sp!, {r4, r5, r6, r7, r8, pc}
  4004ec:	004004a1 	.word	0x004004a1
  4004f0:	004004a5 	.word	0x004004a5
  4004f4:	204009d4 	.word	0x204009d4

004004f8 <PIOA_Handler>:
/**
 * \brief Parallel IO Controller A interrupt handler.
 * Redefined PIOA interrupt handler for NVIC interrupt table.
 */
void PIOA_Handler(void)
{
  4004f8:	b508      	push	{r3, lr}
	pio_handler_process(PIOA, ID_PIOA);
  4004fa:	210a      	movs	r1, #10
  4004fc:	4801      	ldr	r0, [pc, #4]	; (400504 <PIOA_Handler+0xc>)
  4004fe:	4b02      	ldr	r3, [pc, #8]	; (400508 <PIOA_Handler+0x10>)
  400500:	4798      	blx	r3
  400502:	bd08      	pop	{r3, pc}
  400504:	400e0e00 	.word	0x400e0e00
  400508:	004004a9 	.word	0x004004a9

0040050c <PIOB_Handler>:
/**
 * \brief Parallel IO Controller B interrupt handler
 * Redefined PIOB interrupt handler for NVIC interrupt table.
 */
void PIOB_Handler(void)
{
  40050c:	b508      	push	{r3, lr}
    pio_handler_process(PIOB, ID_PIOB);
  40050e:	210b      	movs	r1, #11
  400510:	4801      	ldr	r0, [pc, #4]	; (400518 <PIOB_Handler+0xc>)
  400512:	4b02      	ldr	r3, [pc, #8]	; (40051c <PIOB_Handler+0x10>)
  400514:	4798      	blx	r3
  400516:	bd08      	pop	{r3, pc}
  400518:	400e1000 	.word	0x400e1000
  40051c:	004004a9 	.word	0x004004a9

00400520 <PIOC_Handler>:
/**
 * \brief Parallel IO Controller C interrupt handler.
 * Redefined PIOC interrupt handler for NVIC interrupt table.
 */
void PIOC_Handler(void)
{
  400520:	b508      	push	{r3, lr}
	pio_handler_process(PIOC, ID_PIOC);
  400522:	210c      	movs	r1, #12
  400524:	4801      	ldr	r0, [pc, #4]	; (40052c <PIOC_Handler+0xc>)
  400526:	4b02      	ldr	r3, [pc, #8]	; (400530 <PIOC_Handler+0x10>)
  400528:	4798      	blx	r3
  40052a:	bd08      	pop	{r3, pc}
  40052c:	400e1200 	.word	0x400e1200
  400530:	004004a9 	.word	0x004004a9

00400534 <PIOD_Handler>:
/**
 * \brief Parallel IO Controller D interrupt handler.
 * Redefined PIOD interrupt handler for NVIC interrupt table.
 */
void PIOD_Handler(void)
{
  400534:	b508      	push	{r3, lr}
	pio_handler_process(PIOD, ID_PIOD);
  400536:	2110      	movs	r1, #16
  400538:	4801      	ldr	r0, [pc, #4]	; (400540 <PIOD_Handler+0xc>)
  40053a:	4b02      	ldr	r3, [pc, #8]	; (400544 <PIOD_Handler+0x10>)
  40053c:	4798      	blx	r3
  40053e:	bd08      	pop	{r3, pc}
  400540:	400e1400 	.word	0x400e1400
  400544:	004004a9 	.word	0x004004a9

00400548 <PIOE_Handler>:
/**
 * \brief Parallel IO Controller E interrupt handler.
 * Redefined PIOE interrupt handler for NVIC interrupt table.
 */
void PIOE_Handler(void)
{
  400548:	b508      	push	{r3, lr}
	pio_handler_process(PIOE, ID_PIOE);
  40054a:	2111      	movs	r1, #17
  40054c:	4801      	ldr	r0, [pc, #4]	; (400554 <PIOE_Handler+0xc>)
  40054e:	4b02      	ldr	r3, [pc, #8]	; (400558 <PIOE_Handler+0x10>)
  400550:	4798      	blx	r3
  400552:	bd08      	pop	{r3, pc}
  400554:	400e1600 	.word	0x400e1600
  400558:	004004a9 	.word	0x004004a9

0040055c <pmc_mck_set_division>:
 *
 * \param ul_div Division value.
 */
void pmc_mck_set_division(uint32_t ul_div)
{
	switch (ul_div) {
  40055c:	2803      	cmp	r0, #3
  40055e:	d011      	beq.n	400584 <pmc_mck_set_division+0x28>
  400560:	2804      	cmp	r0, #4
  400562:	d012      	beq.n	40058a <pmc_mck_set_division+0x2e>
		case 1:
			ul_div = PMC_MCKR_MDIV_EQ_PCK;
  400564:	2802      	cmp	r0, #2
  400566:	bf0c      	ite	eq
  400568:	f44f 7180 	moveq.w	r1, #256	; 0x100
  40056c:	2100      	movne	r1, #0
		default:
			ul_div = PMC_MCKR_MDIV_EQ_PCK;
			break;
	}
	PMC->PMC_MCKR =
			(PMC->PMC_MCKR & (~PMC_MCKR_MDIV_Msk)) | ul_div;
  40056e:	4a08      	ldr	r2, [pc, #32]	; (400590 <pmc_mck_set_division+0x34>)
  400570:	6b13      	ldr	r3, [r2, #48]	; 0x30
  400572:	f423 7340 	bic.w	r3, r3, #768	; 0x300
  400576:	430b      	orrs	r3, r1
	PMC->PMC_MCKR =
  400578:	6313      	str	r3, [r2, #48]	; 0x30
	while (!(PMC->PMC_SR & PMC_SR_MCKRDY));
  40057a:	6e93      	ldr	r3, [r2, #104]	; 0x68
  40057c:	f013 0f08 	tst.w	r3, #8
  400580:	d0fb      	beq.n	40057a <pmc_mck_set_division+0x1e>
}
  400582:	4770      	bx	lr
			ul_div = PMC_MCKR_MDIV_PCK_DIV3;
  400584:	f44f 7140 	mov.w	r1, #768	; 0x300
			break;
  400588:	e7f1      	b.n	40056e <pmc_mck_set_division+0x12>
			ul_div = PMC_MCKR_MDIV_PCK_DIV4;
  40058a:	f44f 7100 	mov.w	r1, #512	; 0x200
			break;
  40058e:	e7ee      	b.n	40056e <pmc_mck_set_division+0x12>
  400590:	400e0600 	.word	0x400e0600

00400594 <pmc_switch_mck_to_pllack>:
 */
uint32_t pmc_switch_mck_to_pllack(uint32_t ul_pres)
{
	uint32_t ul_timeout;

	PMC->PMC_MCKR = (PMC->PMC_MCKR & (~PMC_MCKR_PRES_Msk)) | ul_pres;
  400594:	4a17      	ldr	r2, [pc, #92]	; (4005f4 <pmc_switch_mck_to_pllack+0x60>)
  400596:	6b13      	ldr	r3, [r2, #48]	; 0x30
  400598:	f023 0370 	bic.w	r3, r3, #112	; 0x70
  40059c:	4318      	orrs	r0, r3
  40059e:	6310      	str	r0, [r2, #48]	; 0x30
	for (ul_timeout = PMC_TIMEOUT; !(PMC->PMC_SR & PMC_SR_MCKRDY);
  4005a0:	6e93      	ldr	r3, [r2, #104]	; 0x68
  4005a2:	f013 0f08 	tst.w	r3, #8
  4005a6:	d10a      	bne.n	4005be <pmc_switch_mck_to_pllack+0x2a>
  4005a8:	f44f 5380 	mov.w	r3, #4096	; 0x1000
  4005ac:	4911      	ldr	r1, [pc, #68]	; (4005f4 <pmc_switch_mck_to_pllack+0x60>)
  4005ae:	6e8a      	ldr	r2, [r1, #104]	; 0x68
  4005b0:	f012 0f08 	tst.w	r2, #8
  4005b4:	d103      	bne.n	4005be <pmc_switch_mck_to_pllack+0x2a>
			--ul_timeout) {
		if (ul_timeout == 0) {
  4005b6:	3b01      	subs	r3, #1
  4005b8:	d1f9      	bne.n	4005ae <pmc_switch_mck_to_pllack+0x1a>
			return 1;
  4005ba:	2001      	movs	r0, #1
  4005bc:	4770      	bx	lr
		}
	}

	PMC->PMC_MCKR = (PMC->PMC_MCKR & (~PMC_MCKR_CSS_Msk)) |
  4005be:	4a0d      	ldr	r2, [pc, #52]	; (4005f4 <pmc_switch_mck_to_pllack+0x60>)
  4005c0:	6b13      	ldr	r3, [r2, #48]	; 0x30
  4005c2:	f023 0303 	bic.w	r3, r3, #3
  4005c6:	f043 0302 	orr.w	r3, r3, #2
  4005ca:	6313      	str	r3, [r2, #48]	; 0x30
			PMC_MCKR_CSS_PLLA_CLK;

	for (ul_timeout = PMC_TIMEOUT; !(PMC->PMC_SR & PMC_SR_MCKRDY);
  4005cc:	6e93      	ldr	r3, [r2, #104]	; 0x68
  4005ce:	f013 0f08 	tst.w	r3, #8
  4005d2:	d10a      	bne.n	4005ea <pmc_switch_mck_to_pllack+0x56>
  4005d4:	f44f 5380 	mov.w	r3, #4096	; 0x1000
  4005d8:	4906      	ldr	r1, [pc, #24]	; (4005f4 <pmc_switch_mck_to_pllack+0x60>)
  4005da:	6e8a      	ldr	r2, [r1, #104]	; 0x68
  4005dc:	f012 0f08 	tst.w	r2, #8
  4005e0:	d105      	bne.n	4005ee <pmc_switch_mck_to_pllack+0x5a>
			--ul_timeout) {
		if (ul_timeout == 0) {
  4005e2:	3b01      	subs	r3, #1
  4005e4:	d1f9      	bne.n	4005da <pmc_switch_mck_to_pllack+0x46>
			return 1;
  4005e6:	2001      	movs	r0, #1
		}
	}

	return 0;
}
  4005e8:	4770      	bx	lr
	return 0;
  4005ea:	2000      	movs	r0, #0
  4005ec:	4770      	bx	lr
  4005ee:	2000      	movs	r0, #0
  4005f0:	4770      	bx	lr
  4005f2:	bf00      	nop
  4005f4:	400e0600 	.word	0x400e0600

004005f8 <pmc_switch_mainck_to_xtal>:
 */
void pmc_switch_mainck_to_xtal(uint32_t ul_bypass,
		uint32_t ul_xtal_startup_time)
{
	/* Enable Main Xtal oscillator */
	if (ul_bypass) {
  4005f8:	b9a0      	cbnz	r0, 400624 <pmc_switch_mainck_to_xtal+0x2c>
		PMC->CKGR_MOR = (PMC->CKGR_MOR & ~CKGR_MOR_MOSCXTEN) |
				CKGR_MOR_KEY_PASSWD | CKGR_MOR_MOSCXTBY |
				CKGR_MOR_MOSCSEL;
	} else {
		PMC->CKGR_MOR = (PMC->CKGR_MOR & ~CKGR_MOR_MOSCXTBY) |
  4005fa:	480e      	ldr	r0, [pc, #56]	; (400634 <pmc_switch_mainck_to_xtal+0x3c>)
  4005fc:	6a03      	ldr	r3, [r0, #32]
				CKGR_MOR_KEY_PASSWD | CKGR_MOR_MOSCXTEN |
				CKGR_MOR_MOSCXTST(ul_xtal_startup_time);
  4005fe:	0209      	lsls	r1, r1, #8
  400600:	b289      	uxth	r1, r1
				CKGR_MOR_KEY_PASSWD | CKGR_MOR_MOSCXTEN |
  400602:	4a0d      	ldr	r2, [pc, #52]	; (400638 <pmc_switch_mainck_to_xtal+0x40>)
  400604:	401a      	ands	r2, r3
  400606:	4b0d      	ldr	r3, [pc, #52]	; (40063c <pmc_switch_mainck_to_xtal+0x44>)
  400608:	4313      	orrs	r3, r2
  40060a:	4319      	orrs	r1, r3
		PMC->CKGR_MOR = (PMC->CKGR_MOR & ~CKGR_MOR_MOSCXTBY) |
  40060c:	6201      	str	r1, [r0, #32]
		/* Wait the Xtal to stabilize */
		while (!(PMC->PMC_SR & PMC_SR_MOSCXTS));
  40060e:	4602      	mov	r2, r0
  400610:	6e93      	ldr	r3, [r2, #104]	; 0x68
  400612:	f013 0f01 	tst.w	r3, #1
  400616:	d0fb      	beq.n	400610 <pmc_switch_mainck_to_xtal+0x18>

		PMC->CKGR_MOR |= CKGR_MOR_KEY_PASSWD | CKGR_MOR_MOSCSEL;
  400618:	4a06      	ldr	r2, [pc, #24]	; (400634 <pmc_switch_mainck_to_xtal+0x3c>)
  40061a:	6a11      	ldr	r1, [r2, #32]
  40061c:	4b08      	ldr	r3, [pc, #32]	; (400640 <pmc_switch_mainck_to_xtal+0x48>)
  40061e:	430b      	orrs	r3, r1
  400620:	6213      	str	r3, [r2, #32]
  400622:	4770      	bx	lr
		PMC->CKGR_MOR = (PMC->CKGR_MOR & ~CKGR_MOR_MOSCXTEN) |
  400624:	4903      	ldr	r1, [pc, #12]	; (400634 <pmc_switch_mainck_to_xtal+0x3c>)
  400626:	6a0b      	ldr	r3, [r1, #32]
				CKGR_MOR_KEY_PASSWD | CKGR_MOR_MOSCXTBY |
  400628:	4a06      	ldr	r2, [pc, #24]	; (400644 <pmc_switch_mainck_to_xtal+0x4c>)
  40062a:	401a      	ands	r2, r3
  40062c:	4b06      	ldr	r3, [pc, #24]	; (400648 <pmc_switch_mainck_to_xtal+0x50>)
  40062e:	4313      	orrs	r3, r2
		PMC->CKGR_MOR = (PMC->CKGR_MOR & ~CKGR_MOR_MOSCXTEN) |
  400630:	620b      	str	r3, [r1, #32]
  400632:	4770      	bx	lr
  400634:	400e0600 	.word	0x400e0600
  400638:	ffc8fffc 	.word	0xffc8fffc
  40063c:	00370001 	.word	0x00370001
  400640:	01370000 	.word	0x01370000
  400644:	fec8fffc 	.word	0xfec8fffc
  400648:	01370002 	.word	0x01370002

0040064c <pmc_osc_is_ready_mainck>:
 * \retval 1 Xtal is ready.
 * \retval 0 Xtal is not ready.
 */
uint32_t pmc_osc_is_ready_mainck(void)
{
	return PMC->PMC_SR & PMC_SR_MOSCSELS;
  40064c:	4b02      	ldr	r3, [pc, #8]	; (400658 <pmc_osc_is_ready_mainck+0xc>)
  40064e:	6e98      	ldr	r0, [r3, #104]	; 0x68
}
  400650:	f400 3080 	and.w	r0, r0, #65536	; 0x10000
  400654:	4770      	bx	lr
  400656:	bf00      	nop
  400658:	400e0600 	.word	0x400e0600

0040065c <pmc_disable_pllack>:
void pmc_disable_pllack(void)
{
#if (SAM4C || SAM4CM || SAM4CP || SAMG)
	PMC->CKGR_PLLAR = CKGR_PLLAR_MULA(0);
#else
	PMC->CKGR_PLLAR = CKGR_PLLAR_ONE | CKGR_PLLAR_MULA(0);
  40065c:	f04f 5200 	mov.w	r2, #536870912	; 0x20000000
  400660:	4b01      	ldr	r3, [pc, #4]	; (400668 <pmc_disable_pllack+0xc>)
  400662:	629a      	str	r2, [r3, #40]	; 0x28
  400664:	4770      	bx	lr
  400666:	bf00      	nop
  400668:	400e0600 	.word	0x400e0600

0040066c <pmc_is_locked_pllack>:
 * \retval 0 Not locked.
 * \retval 1 Locked.
 */
uint32_t pmc_is_locked_pllack(void)
{
	return (PMC->PMC_SR & PMC_SR_LOCKA);
  40066c:	4b02      	ldr	r3, [pc, #8]	; (400678 <pmc_is_locked_pllack+0xc>)
  40066e:	6e98      	ldr	r0, [r3, #104]	; 0x68
}
  400670:	f000 0002 	and.w	r0, r0, #2
  400674:	4770      	bx	lr
  400676:	bf00      	nop
  400678:	400e0600 	.word	0x400e0600

0040067c <pmc_enable_periph_clk>:
 */
uint32_t pmc_enable_periph_clk(uint32_t ul_id)
{
#if defined(REG_PMC_PCR) && !SAMG55
	uint32_t pcr;
	PMC->PMC_PCR = ul_id & 0x7F;
  40067c:	f000 007f 	and.w	r0, r0, #127	; 0x7f
  400680:	4b05      	ldr	r3, [pc, #20]	; (400698 <pmc_enable_periph_clk+0x1c>)
  400682:	f8c3 010c 	str.w	r0, [r3, #268]	; 0x10c
	pcr = PMC->PMC_PCR | PMC_PCR_EN | PMC_PCR_CMD;
  400686:	f8d3 210c 	ldr.w	r2, [r3, #268]	; 0x10c
  40068a:	f042 2210 	orr.w	r2, r2, #268439552	; 0x10001000
	PMC->PMC_PCR = pcr;
  40068e:	f8c3 210c 	str.w	r2, [r3, #268]	; 0x10c
#endif
	}

	return 0;
#endif /* defined(REG_PMC_PCR) && !SAMG55 */
}
  400692:	2000      	movs	r0, #0
  400694:	4770      	bx	lr
  400696:	bf00      	nop
  400698:	400e0600 	.word	0x400e0600

0040069c <uart_write>:
 * \retval 1 I/O Failure, UART is not ready.
 */
uint32_t uart_write(Uart *p_uart, const uint8_t uc_data)
{
	/* Check if the transmitter is ready */
	if (!(p_uart->UART_SR & UART_SR_TXRDY))
  40069c:	6943      	ldr	r3, [r0, #20]
  40069e:	f013 0f02 	tst.w	r3, #2
  4006a2:	d002      	beq.n	4006aa <uart_write+0xe>
		return 1;

	/* Send character */
	p_uart->UART_THR = uc_data;
  4006a4:	61c1      	str	r1, [r0, #28]
	return 0;
  4006a6:	2000      	movs	r0, #0
  4006a8:	4770      	bx	lr
		return 1;
  4006aa:	2001      	movs	r0, #1
}
  4006ac:	4770      	bx	lr

004006ae <uart_read>:
 * \retval 1 I/O Failure, UART is not ready.
 */
uint32_t uart_read(Uart *p_uart, uint8_t *puc_data)
{
	/* Check if the receiver is ready */
	if ((p_uart->UART_SR & UART_SR_RXRDY) == 0)
  4006ae:	6943      	ldr	r3, [r0, #20]
  4006b0:	f013 0f01 	tst.w	r3, #1
  4006b4:	d003      	beq.n	4006be <uart_read+0x10>
		return 1;

	/* Read character */
	*puc_data = (uint8_t) p_uart->UART_RHR;
  4006b6:	6983      	ldr	r3, [r0, #24]
  4006b8:	700b      	strb	r3, [r1, #0]
	return 0;
  4006ba:	2000      	movs	r0, #0
  4006bc:	4770      	bx	lr
		return 1;
  4006be:	2001      	movs	r0, #1
}
  4006c0:	4770      	bx	lr

004006c2 <usart_set_async_baudrate>:
 * \retval 1 Baud rate set point is out of range for the given input clock
 * frequency.
 */
uint32_t usart_set_async_baudrate(Usart *p_usart,
		uint32_t baudrate, uint32_t ul_mck)
{
  4006c2:	b410      	push	{r4}
	uint32_t cd_fp;
	uint32_t cd;
	uint32_t fp;

	/* Calculate the receiver sampling divide of baudrate clock. */
	if (ul_mck >= HIGH_FRQ_SAMPLE_DIV * baudrate) {
  4006c4:	010b      	lsls	r3, r1, #4
  4006c6:	4293      	cmp	r3, r2
  4006c8:	d914      	bls.n	4006f4 <usart_set_async_baudrate+0x32>
	} else {
		over = LOW_FRQ_SAMPLE_DIV;
	}

	/* Calculate clock divider according to the fraction calculated formula. */
	cd_fp = (8 * ul_mck + (over * baudrate) / 2) / (over * baudrate);
  4006ca:	00c9      	lsls	r1, r1, #3
  4006cc:	084b      	lsrs	r3, r1, #1
  4006ce:	eb03 02c2 	add.w	r2, r3, r2, lsl #3
  4006d2:	fbb2 f2f1 	udiv	r2, r2, r1
	cd = cd_fp >> 3;
  4006d6:	08d3      	lsrs	r3, r2, #3
	fp = cd_fp & 0x07;
	if (cd < MIN_CD_VALUE || cd > MAX_CD_VALUE) {
  4006d8:	1e5c      	subs	r4, r3, #1
  4006da:	f64f 71fe 	movw	r1, #65534	; 0xfffe
  4006de:	428c      	cmp	r4, r1
  4006e0:	d901      	bls.n	4006e6 <usart_set_async_baudrate+0x24>
		return 1;
  4006e2:	2001      	movs	r0, #1
  4006e4:	e017      	b.n	400716 <usart_set_async_baudrate+0x54>
	}

	/* Configure the OVER bit in MR register. */
	if (over == 8) {
		p_usart->US_MR |= US_MR_OVER;
  4006e6:	6841      	ldr	r1, [r0, #4]
  4006e8:	f441 2100 	orr.w	r1, r1, #524288	; 0x80000
  4006ec:	6041      	str	r1, [r0, #4]
  4006ee:	e00c      	b.n	40070a <usart_set_async_baudrate+0x48>
		return 1;
  4006f0:	2001      	movs	r0, #1
  4006f2:	e010      	b.n	400716 <usart_set_async_baudrate+0x54>
	cd_fp = (8 * ul_mck + (over * baudrate) / 2) / (over * baudrate);
  4006f4:	0859      	lsrs	r1, r3, #1
  4006f6:	eb01 02c2 	add.w	r2, r1, r2, lsl #3
  4006fa:	fbb2 f2f3 	udiv	r2, r2, r3
	cd = cd_fp >> 3;
  4006fe:	08d3      	lsrs	r3, r2, #3
	if (cd < MIN_CD_VALUE || cd > MAX_CD_VALUE) {
  400700:	1e5c      	subs	r4, r3, #1
  400702:	f64f 71fe 	movw	r1, #65534	; 0xfffe
  400706:	428c      	cmp	r4, r1
  400708:	d8f2      	bhi.n	4006f0 <usart_set_async_baudrate+0x2e>
	}

	/* Configure the baudrate generate register. */
	p_usart->US_BRGR = (cd << US_BRGR_CD_Pos) | (fp << US_BRGR_FP_Pos);
  40070a:	0412      	lsls	r2, r2, #16
  40070c:	f402 22e0 	and.w	r2, r2, #458752	; 0x70000
  400710:	431a      	orrs	r2, r3
  400712:	6202      	str	r2, [r0, #32]

	return 0;
  400714:	2000      	movs	r0, #0
}
  400716:	f85d 4b04 	ldr.w	r4, [sp], #4
  40071a:	4770      	bx	lr

0040071c <usart_reset>:
 *
 * \param p_usart Pointer to a USART instance.
 */
void usart_disable_writeprotect(Usart *p_usart)
{
	p_usart->US_WPMR = US_WPMR_WPKEY_PASSWD;
  40071c:	4b08      	ldr	r3, [pc, #32]	; (400740 <usart_reset+0x24>)
  40071e:	f8c0 30e4 	str.w	r3, [r0, #228]	; 0xe4
	p_usart->US_MR = 0;
  400722:	2300      	movs	r3, #0
  400724:	6043      	str	r3, [r0, #4]
	p_usart->US_RTOR = 0;
  400726:	6243      	str	r3, [r0, #36]	; 0x24
	p_usart->US_TTGR = 0;
  400728:	6283      	str	r3, [r0, #40]	; 0x28
	p_usart->US_CR = US_CR_RSTTX | US_CR_TXDIS;
  40072a:	2388      	movs	r3, #136	; 0x88
  40072c:	6003      	str	r3, [r0, #0]
	p_usart->US_CR = US_CR_RSTRX | US_CR_RXDIS;
  40072e:	2324      	movs	r3, #36	; 0x24
  400730:	6003      	str	r3, [r0, #0]
	p_usart->US_CR = US_CR_RSTSTA;
  400732:	f44f 7380 	mov.w	r3, #256	; 0x100
  400736:	6003      	str	r3, [r0, #0]
	p_usart->US_CR = US_CR_RTSDIS;
  400738:	f44f 2300 	mov.w	r3, #524288	; 0x80000
  40073c:	6003      	str	r3, [r0, #0]
  40073e:	4770      	bx	lr
  400740:	55534100 	.word	0x55534100

00400744 <usart_init_rs232>:
{
  400744:	b570      	push	{r4, r5, r6, lr}
  400746:	4605      	mov	r5, r0
  400748:	460c      	mov	r4, r1
  40074a:	4616      	mov	r6, r2
	usart_reset(p_usart);
  40074c:	4b0f      	ldr	r3, [pc, #60]	; (40078c <usart_init_rs232+0x48>)
  40074e:	4798      	blx	r3
	ul_reg_val = 0;
  400750:	2200      	movs	r2, #0
  400752:	4b0f      	ldr	r3, [pc, #60]	; (400790 <usart_init_rs232+0x4c>)
  400754:	601a      	str	r2, [r3, #0]
	if (!p_usart_opt || usart_set_async_baudrate(p_usart,
  400756:	b1a4      	cbz	r4, 400782 <usart_init_rs232+0x3e>
  400758:	4632      	mov	r2, r6
  40075a:	6821      	ldr	r1, [r4, #0]
  40075c:	4628      	mov	r0, r5
  40075e:	4b0d      	ldr	r3, [pc, #52]	; (400794 <usart_init_rs232+0x50>)
  400760:	4798      	blx	r3
  400762:	4602      	mov	r2, r0
  400764:	b978      	cbnz	r0, 400786 <usart_init_rs232+0x42>
	ul_reg_val |= p_usart_opt->char_length | p_usart_opt->parity_type |
  400766:	6863      	ldr	r3, [r4, #4]
  400768:	68a1      	ldr	r1, [r4, #8]
  40076a:	430b      	orrs	r3, r1
  40076c:	6921      	ldr	r1, [r4, #16]
  40076e:	430b      	orrs	r3, r1
			p_usart_opt->channel_mode | p_usart_opt->stop_bits;
  400770:	68e1      	ldr	r1, [r4, #12]
  400772:	430b      	orrs	r3, r1
	ul_reg_val |= p_usart_opt->char_length | p_usart_opt->parity_type |
  400774:	4906      	ldr	r1, [pc, #24]	; (400790 <usart_init_rs232+0x4c>)
  400776:	600b      	str	r3, [r1, #0]
	p_usart->US_MR |= ul_reg_val;
  400778:	6869      	ldr	r1, [r5, #4]
  40077a:	430b      	orrs	r3, r1
  40077c:	606b      	str	r3, [r5, #4]
}
  40077e:	4610      	mov	r0, r2
  400780:	bd70      	pop	{r4, r5, r6, pc}
		return 1;
  400782:	2201      	movs	r2, #1
  400784:	e7fb      	b.n	40077e <usart_init_rs232+0x3a>
  400786:	2201      	movs	r2, #1
  400788:	e7f9      	b.n	40077e <usart_init_rs232+0x3a>
  40078a:	bf00      	nop
  40078c:	0040071d 	.word	0x0040071d
  400790:	20400a44 	.word	0x20400a44
  400794:	004006c3 	.word	0x004006c3

00400798 <usart_enable_tx>:
	p_usart->US_CR = US_CR_TXEN;
  400798:	2340      	movs	r3, #64	; 0x40
  40079a:	6003      	str	r3, [r0, #0]
  40079c:	4770      	bx	lr

0040079e <usart_enable_rx>:
	p_usart->US_CR = US_CR_RXEN;
  40079e:	2310      	movs	r3, #16
  4007a0:	6003      	str	r3, [r0, #0]
  4007a2:	4770      	bx	lr

004007a4 <usart_write>:
	if (!(p_usart->US_CSR & US_CSR_TXRDY)) {
  4007a4:	6943      	ldr	r3, [r0, #20]
  4007a6:	f013 0f02 	tst.w	r3, #2
  4007aa:	d004      	beq.n	4007b6 <usart_write+0x12>
	p_usart->US_THR = US_THR_TXCHR(c);
  4007ac:	f3c1 0108 	ubfx	r1, r1, #0, #9
  4007b0:	61c1      	str	r1, [r0, #28]
	return 0;
  4007b2:	2000      	movs	r0, #0
  4007b4:	4770      	bx	lr
		return 1;
  4007b6:	2001      	movs	r0, #1
}
  4007b8:	4770      	bx	lr

004007ba <usart_read>:
	if (!(p_usart->US_CSR & US_CSR_RXRDY)) {
  4007ba:	6943      	ldr	r3, [r0, #20]
  4007bc:	f013 0f01 	tst.w	r3, #1
  4007c0:	d005      	beq.n	4007ce <usart_read+0x14>
	*c = p_usart->US_RHR & US_RHR_RXCHR_Msk;
  4007c2:	6983      	ldr	r3, [r0, #24]
  4007c4:	f3c3 0308 	ubfx	r3, r3, #0, #9
  4007c8:	600b      	str	r3, [r1, #0]
	return 0;
  4007ca:	2000      	movs	r0, #0
  4007cc:	4770      	bx	lr
		return 1;
  4007ce:	2001      	movs	r0, #1
}
  4007d0:	4770      	bx	lr

004007d2 <Dummy_Handler>:

/**
 * \brief Default interrupt handler for unused IRQs.
 */
void Dummy_Handler(void)
{
  4007d2:	e7fe      	b.n	4007d2 <Dummy_Handler>

004007d4 <Reset_Handler>:
{
  4007d4:	b500      	push	{lr}
  4007d6:	b083      	sub	sp, #12
        if (pSrc != pDest) {
  4007d8:	4b25      	ldr	r3, [pc, #148]	; (400870 <Reset_Handler+0x9c>)
  4007da:	4a26      	ldr	r2, [pc, #152]	; (400874 <Reset_Handler+0xa0>)
  4007dc:	429a      	cmp	r2, r3
  4007de:	d010      	beq.n	400802 <Reset_Handler+0x2e>
                for (; pDest < &_erelocate;) {
  4007e0:	4b25      	ldr	r3, [pc, #148]	; (400878 <Reset_Handler+0xa4>)
  4007e2:	4a23      	ldr	r2, [pc, #140]	; (400870 <Reset_Handler+0x9c>)
  4007e4:	429a      	cmp	r2, r3
  4007e6:	d20c      	bcs.n	400802 <Reset_Handler+0x2e>
  4007e8:	3b01      	subs	r3, #1
  4007ea:	1a9b      	subs	r3, r3, r2
  4007ec:	f023 0303 	bic.w	r3, r3, #3
  4007f0:	3304      	adds	r3, #4
  4007f2:	4413      	add	r3, r2
  4007f4:	491f      	ldr	r1, [pc, #124]	; (400874 <Reset_Handler+0xa0>)
                        *pDest++ = *pSrc++;
  4007f6:	f851 0b04 	ldr.w	r0, [r1], #4
  4007fa:	f842 0b04 	str.w	r0, [r2], #4
                for (; pDest < &_erelocate;) {
  4007fe:	429a      	cmp	r2, r3
  400800:	d1f9      	bne.n	4007f6 <Reset_Handler+0x22>
        for (pDest = &_szero; pDest < &_ezero;) {
  400802:	4b1e      	ldr	r3, [pc, #120]	; (40087c <Reset_Handler+0xa8>)
  400804:	4a1e      	ldr	r2, [pc, #120]	; (400880 <Reset_Handler+0xac>)
  400806:	429a      	cmp	r2, r3
  400808:	d20a      	bcs.n	400820 <Reset_Handler+0x4c>
  40080a:	3b01      	subs	r3, #1
  40080c:	1a9b      	subs	r3, r3, r2
  40080e:	f023 0303 	bic.w	r3, r3, #3
  400812:	3304      	adds	r3, #4
  400814:	4413      	add	r3, r2
                *pDest++ = 0;
  400816:	2100      	movs	r1, #0
  400818:	f842 1b04 	str.w	r1, [r2], #4
        for (pDest = &_szero; pDest < &_ezero;) {
  40081c:	4293      	cmp	r3, r2
  40081e:	d1fb      	bne.n	400818 <Reset_Handler+0x44>
        SCB->VTOR = ((uint32_t) pSrc & SCB_VTOR_TBLOFF_Msk);
  400820:	4a18      	ldr	r2, [pc, #96]	; (400884 <Reset_Handler+0xb0>)
  400822:	4b19      	ldr	r3, [pc, #100]	; (400888 <Reset_Handler+0xb4>)
  400824:	f023 037f 	bic.w	r3, r3, #127	; 0x7f
  400828:	6093      	str	r3, [r2, #8]
  __ASM volatile ("MRS %0, primask" : "=r" (result) :: "memory");
  40082a:	f3ef 8310 	mrs	r3, PRIMASK
static volatile uint32_t cpu_irq_critical_section_counter;
static volatile bool     cpu_irq_prev_interrupt_state;

static inline irqflags_t cpu_irq_save(void)
{
	volatile irqflags_t flags = cpu_irq_is_enabled();
  40082e:	fab3 f383 	clz	r3, r3
  400832:	095b      	lsrs	r3, r3, #5
  400834:	9301      	str	r3, [sp, #4]
  __ASM volatile ("cpsid i" : : : "memory");
  400836:	b672      	cpsid	i
  \details Ensures the apparent order of the explicit memory operations before
           and after the instruction, without ensuring their completion.
 */
__STATIC_FORCEINLINE void __DMB(void)
{
  __ASM volatile ("dmb 0xF":::"memory");
  400838:	f3bf 8f5f 	dmb	sy
	cpu_irq_disable();
  40083c:	2200      	movs	r2, #0
  40083e:	4b13      	ldr	r3, [pc, #76]	; (40088c <Reset_Handler+0xb8>)
  400840:	701a      	strb	r2, [r3, #0]
	return flags;
  400842:	9901      	ldr	r1, [sp, #4]
 */
__always_inline static void fpu_enable(void)
{
	irqflags_t flags;
	flags = cpu_irq_save();
	REG_CPACR |=  (0xFu << 20);
  400844:	4a12      	ldr	r2, [pc, #72]	; (400890 <Reset_Handler+0xbc>)
  400846:	6813      	ldr	r3, [r2, #0]
  400848:	f443 0370 	orr.w	r3, r3, #15728640	; 0xf00000
  40084c:	6013      	str	r3, [r2, #0]
  __ASM volatile ("dsb 0xF":::"memory");
  40084e:	f3bf 8f4f 	dsb	sy
  __ASM volatile ("isb 0xF":::"memory");
  400852:	f3bf 8f6f 	isb	sy
	return (flags);
}

static inline void cpu_irq_restore(irqflags_t flags)
{
	if (cpu_irq_is_enabled_flags(flags))
  400856:	b129      	cbz	r1, 400864 <Reset_Handler+0x90>
		cpu_irq_enable();
  400858:	2201      	movs	r2, #1
  40085a:	4b0c      	ldr	r3, [pc, #48]	; (40088c <Reset_Handler+0xb8>)
  40085c:	701a      	strb	r2, [r3, #0]
  __ASM volatile ("dmb 0xF":::"memory");
  40085e:	f3bf 8f5f 	dmb	sy
  __ASM volatile ("cpsie i" : : : "memory");
  400862:	b662      	cpsie	i
        __libc_init_array();
  400864:	4b0b      	ldr	r3, [pc, #44]	; (400894 <Reset_Handler+0xc0>)
  400866:	4798      	blx	r3
        main();
  400868:	4b0b      	ldr	r3, [pc, #44]	; (400898 <Reset_Handler+0xc4>)
  40086a:	4798      	blx	r3
  40086c:	e7fe      	b.n	40086c <Reset_Handler+0x98>
  40086e:	bf00      	nop
  400870:	20400000 	.word	0x20400000
  400874:	0040968c 	.word	0x0040968c
  400878:	204009b8 	.word	0x204009b8
  40087c:	20400d3c 	.word	0x20400d3c
  400880:	204009b8 	.word	0x204009b8
  400884:	e000ed00 	.word	0xe000ed00
  400888:	00400000 	.word	0x00400000
  40088c:	20400000 	.word	0x20400000
  400890:	e000ed88 	.word	0xe000ed88
  400894:	00402d7d 	.word	0x00402d7d
  400898:	00402c1d 	.word	0x00402c1d

0040089c <SystemCoreClockUpdate>:
}

void SystemCoreClockUpdate( void )
{
  /* Determine clock frequency according to clock register values */
  switch (PMC->PMC_MCKR & (uint32_t) PMC_MCKR_CSS_Msk)
  40089c:	4b3b      	ldr	r3, [pc, #236]	; (40098c <SystemCoreClockUpdate+0xf0>)
  40089e:	6b1b      	ldr	r3, [r3, #48]	; 0x30
  4008a0:	f003 0303 	and.w	r3, r3, #3
  4008a4:	2b01      	cmp	r3, #1
  4008a6:	d01d      	beq.n	4008e4 <SystemCoreClockUpdate+0x48>
  4008a8:	b183      	cbz	r3, 4008cc <SystemCoreClockUpdate+0x30>
  4008aa:	2b02      	cmp	r3, #2
  4008ac:	d036      	beq.n	40091c <SystemCoreClockUpdate+0x80>

    default:
    break;
  }

  if ( (PMC->PMC_MCKR & PMC_MCKR_PRES_Msk) == PMC_MCKR_PRES_CLK_3 )
  4008ae:	4b37      	ldr	r3, [pc, #220]	; (40098c <SystemCoreClockUpdate+0xf0>)
  4008b0:	6b1b      	ldr	r3, [r3, #48]	; 0x30
  4008b2:	f003 0370 	and.w	r3, r3, #112	; 0x70
  4008b6:	2b70      	cmp	r3, #112	; 0x70
  4008b8:	d05f      	beq.n	40097a <SystemCoreClockUpdate+0xde>
  {
    SystemCoreClock /= 3U;
  }
  else
  {
    SystemCoreClock >>= ((PMC->PMC_MCKR & PMC_MCKR_PRES_Msk) >> PMC_MCKR_PRES_Pos);
  4008ba:	4b34      	ldr	r3, [pc, #208]	; (40098c <SystemCoreClockUpdate+0xf0>)
  4008bc:	6b1a      	ldr	r2, [r3, #48]	; 0x30
  4008be:	4934      	ldr	r1, [pc, #208]	; (400990 <SystemCoreClockUpdate+0xf4>)
  4008c0:	f3c2 1202 	ubfx	r2, r2, #4, #3
  4008c4:	680b      	ldr	r3, [r1, #0]
  4008c6:	40d3      	lsrs	r3, r2
  4008c8:	600b      	str	r3, [r1, #0]
  4008ca:	4770      	bx	lr
      if ( SUPC->SUPC_SR & SUPC_SR_OSCSEL )
  4008cc:	4b31      	ldr	r3, [pc, #196]	; (400994 <SystemCoreClockUpdate+0xf8>)
  4008ce:	695b      	ldr	r3, [r3, #20]
  4008d0:	f013 0f80 	tst.w	r3, #128	; 0x80
        SystemCoreClock = CHIP_FREQ_XTAL_32K;
  4008d4:	bf14      	ite	ne
  4008d6:	f44f 4200 	movne.w	r2, #32768	; 0x8000
        SystemCoreClock = CHIP_FREQ_SLCK_RC;
  4008da:	f44f 42fa 	moveq.w	r2, #32000	; 0x7d00
  4008de:	4b2c      	ldr	r3, [pc, #176]	; (400990 <SystemCoreClockUpdate+0xf4>)
  4008e0:	601a      	str	r2, [r3, #0]
  4008e2:	e7e4      	b.n	4008ae <SystemCoreClockUpdate+0x12>
      if ( PMC->CKGR_MOR & CKGR_MOR_MOSCSEL )
  4008e4:	4b29      	ldr	r3, [pc, #164]	; (40098c <SystemCoreClockUpdate+0xf0>)
  4008e6:	6a1b      	ldr	r3, [r3, #32]
  4008e8:	f013 7f80 	tst.w	r3, #16777216	; 0x1000000
  4008ec:	d003      	beq.n	4008f6 <SystemCoreClockUpdate+0x5a>
        SystemCoreClock = CHIP_FREQ_XTAL_12M;
  4008ee:	4a2a      	ldr	r2, [pc, #168]	; (400998 <SystemCoreClockUpdate+0xfc>)
  4008f0:	4b27      	ldr	r3, [pc, #156]	; (400990 <SystemCoreClockUpdate+0xf4>)
  4008f2:	601a      	str	r2, [r3, #0]
  4008f4:	e7db      	b.n	4008ae <SystemCoreClockUpdate+0x12>
        SystemCoreClock = CHIP_FREQ_MAINCK_RC_4MHZ;
  4008f6:	4a29      	ldr	r2, [pc, #164]	; (40099c <SystemCoreClockUpdate+0x100>)
  4008f8:	4b25      	ldr	r3, [pc, #148]	; (400990 <SystemCoreClockUpdate+0xf4>)
  4008fa:	601a      	str	r2, [r3, #0]
        switch ( PMC->CKGR_MOR & CKGR_MOR_MOSCRCF_Msk )
  4008fc:	4b23      	ldr	r3, [pc, #140]	; (40098c <SystemCoreClockUpdate+0xf0>)
  4008fe:	6a1b      	ldr	r3, [r3, #32]
  400900:	f003 0370 	and.w	r3, r3, #112	; 0x70
  400904:	2b10      	cmp	r3, #16
  400906:	d005      	beq.n	400914 <SystemCoreClockUpdate+0x78>
  400908:	2b20      	cmp	r3, #32
  40090a:	d1d0      	bne.n	4008ae <SystemCoreClockUpdate+0x12>
            SystemCoreClock *= 3U;
  40090c:	4a22      	ldr	r2, [pc, #136]	; (400998 <SystemCoreClockUpdate+0xfc>)
  40090e:	4b20      	ldr	r3, [pc, #128]	; (400990 <SystemCoreClockUpdate+0xf4>)
  400910:	601a      	str	r2, [r3, #0]
          break;
  400912:	e7cc      	b.n	4008ae <SystemCoreClockUpdate+0x12>
            SystemCoreClock *= 2U;
  400914:	4a22      	ldr	r2, [pc, #136]	; (4009a0 <SystemCoreClockUpdate+0x104>)
  400916:	4b1e      	ldr	r3, [pc, #120]	; (400990 <SystemCoreClockUpdate+0xf4>)
  400918:	601a      	str	r2, [r3, #0]
          break;
  40091a:	e7c8      	b.n	4008ae <SystemCoreClockUpdate+0x12>
      if ( PMC->CKGR_MOR & CKGR_MOR_MOSCSEL )
  40091c:	4b1b      	ldr	r3, [pc, #108]	; (40098c <SystemCoreClockUpdate+0xf0>)
  40091e:	6a1b      	ldr	r3, [r3, #32]
  400920:	f013 7f80 	tst.w	r3, #16777216	; 0x1000000
  400924:	d016      	beq.n	400954 <SystemCoreClockUpdate+0xb8>
        SystemCoreClock = CHIP_FREQ_XTAL_12M ;
  400926:	4a1c      	ldr	r2, [pc, #112]	; (400998 <SystemCoreClockUpdate+0xfc>)
  400928:	4b19      	ldr	r3, [pc, #100]	; (400990 <SystemCoreClockUpdate+0xf4>)
  40092a:	601a      	str	r2, [r3, #0]
      if ( (uint32_t) (PMC->PMC_MCKR & (uint32_t) PMC_MCKR_CSS_Msk) == PMC_MCKR_CSS_PLLA_CLK )
  40092c:	4b17      	ldr	r3, [pc, #92]	; (40098c <SystemCoreClockUpdate+0xf0>)
  40092e:	6b1b      	ldr	r3, [r3, #48]	; 0x30
  400930:	f003 0303 	and.w	r3, r3, #3
  400934:	2b02      	cmp	r3, #2
  400936:	d1ba      	bne.n	4008ae <SystemCoreClockUpdate+0x12>
        SystemCoreClock *= ((((PMC->CKGR_PLLAR) & CKGR_PLLAR_MULA_Msk) >> CKGR_PLLAR_MULA_Pos) + 1U);
  400938:	4a14      	ldr	r2, [pc, #80]	; (40098c <SystemCoreClockUpdate+0xf0>)
  40093a:	6a91      	ldr	r1, [r2, #40]	; 0x28
        SystemCoreClock /= ((((PMC->CKGR_PLLAR) & CKGR_PLLAR_DIVA_Msk) >> CKGR_PLLAR_DIVA_Pos));
  40093c:	6a92      	ldr	r2, [r2, #40]	; 0x28
  40093e:	4814      	ldr	r0, [pc, #80]	; (400990 <SystemCoreClockUpdate+0xf4>)
        SystemCoreClock *= ((((PMC->CKGR_PLLAR) & CKGR_PLLAR_MULA_Msk) >> CKGR_PLLAR_MULA_Pos) + 1U);
  400940:	f3c1 410a 	ubfx	r1, r1, #16, #11
  400944:	6803      	ldr	r3, [r0, #0]
  400946:	fb01 3303 	mla	r3, r1, r3, r3
        SystemCoreClock /= ((((PMC->CKGR_PLLAR) & CKGR_PLLAR_DIVA_Msk) >> CKGR_PLLAR_DIVA_Pos));
  40094a:	b2d2      	uxtb	r2, r2
  40094c:	fbb3 f3f2 	udiv	r3, r3, r2
  400950:	6003      	str	r3, [r0, #0]
  400952:	e7ac      	b.n	4008ae <SystemCoreClockUpdate+0x12>
        SystemCoreClock = CHIP_FREQ_MAINCK_RC_4MHZ;
  400954:	4a11      	ldr	r2, [pc, #68]	; (40099c <SystemCoreClockUpdate+0x100>)
  400956:	4b0e      	ldr	r3, [pc, #56]	; (400990 <SystemCoreClockUpdate+0xf4>)
  400958:	601a      	str	r2, [r3, #0]
        switch ( PMC->CKGR_MOR & CKGR_MOR_MOSCRCF_Msk )
  40095a:	4b0c      	ldr	r3, [pc, #48]	; (40098c <SystemCoreClockUpdate+0xf0>)
  40095c:	6a1b      	ldr	r3, [r3, #32]
  40095e:	f003 0370 	and.w	r3, r3, #112	; 0x70
  400962:	2b10      	cmp	r3, #16
  400964:	d005      	beq.n	400972 <SystemCoreClockUpdate+0xd6>
  400966:	2b20      	cmp	r3, #32
  400968:	d1e0      	bne.n	40092c <SystemCoreClockUpdate+0x90>
            SystemCoreClock *= 3U;
  40096a:	4a0b      	ldr	r2, [pc, #44]	; (400998 <SystemCoreClockUpdate+0xfc>)
  40096c:	4b08      	ldr	r3, [pc, #32]	; (400990 <SystemCoreClockUpdate+0xf4>)
  40096e:	601a      	str	r2, [r3, #0]
          break;
  400970:	e7dc      	b.n	40092c <SystemCoreClockUpdate+0x90>
            SystemCoreClock *= 2U;
  400972:	4a0b      	ldr	r2, [pc, #44]	; (4009a0 <SystemCoreClockUpdate+0x104>)
  400974:	4b06      	ldr	r3, [pc, #24]	; (400990 <SystemCoreClockUpdate+0xf4>)
  400976:	601a      	str	r2, [r3, #0]
          break;
  400978:	e7d8      	b.n	40092c <SystemCoreClockUpdate+0x90>
    SystemCoreClock /= 3U;
  40097a:	4a05      	ldr	r2, [pc, #20]	; (400990 <SystemCoreClockUpdate+0xf4>)
  40097c:	6813      	ldr	r3, [r2, #0]
  40097e:	4909      	ldr	r1, [pc, #36]	; (4009a4 <SystemCoreClockUpdate+0x108>)
  400980:	fba1 1303 	umull	r1, r3, r1, r3
  400984:	085b      	lsrs	r3, r3, #1
  400986:	6013      	str	r3, [r2, #0]
  400988:	4770      	bx	lr
  40098a:	bf00      	nop
  40098c:	400e0600 	.word	0x400e0600
  400990:	20400004 	.word	0x20400004
  400994:	400e1810 	.word	0x400e1810
  400998:	00b71b00 	.word	0x00b71b00
  40099c:	003d0900 	.word	0x003d0900
  4009a0:	007a1200 	.word	0x007a1200
  4009a4:	aaaaaaab 	.word	0xaaaaaaab

004009a8 <system_init_flash>:
 * Initialize flash.
 */
void system_init_flash( uint32_t ul_clk )
{
  /* Set FWS for embedded Flash access according to operating frequency */
  if ( ul_clk < CHIP_FREQ_FWS_0 )
  4009a8:	4b16      	ldr	r3, [pc, #88]	; (400a04 <system_init_flash+0x5c>)
  4009aa:	4298      	cmp	r0, r3
  4009ac:	d913      	bls.n	4009d6 <system_init_flash+0x2e>
  {
    EFC->EEFC_FMR = EEFC_FMR_FWS(0)|EEFC_FMR_CLOE;
  }
  else
  {
    if (ul_clk < CHIP_FREQ_FWS_1)
  4009ae:	4b16      	ldr	r3, [pc, #88]	; (400a08 <system_init_flash+0x60>)
  4009b0:	4298      	cmp	r0, r3
  4009b2:	d915      	bls.n	4009e0 <system_init_flash+0x38>
    {
      EFC->EEFC_FMR = EEFC_FMR_FWS(1)|EEFC_FMR_CLOE;
    }
    else
    {
      if (ul_clk < CHIP_FREQ_FWS_2)
  4009b4:	4b15      	ldr	r3, [pc, #84]	; (400a0c <system_init_flash+0x64>)
  4009b6:	4298      	cmp	r0, r3
  4009b8:	d916      	bls.n	4009e8 <system_init_flash+0x40>
      {
        EFC->EEFC_FMR = EEFC_FMR_FWS(2)|EEFC_FMR_CLOE;
      }
      else
      {
        if ( ul_clk < CHIP_FREQ_FWS_3 )
  4009ba:	4b15      	ldr	r3, [pc, #84]	; (400a10 <system_init_flash+0x68>)
  4009bc:	4298      	cmp	r0, r3
  4009be:	d917      	bls.n	4009f0 <system_init_flash+0x48>
        {
          EFC->EEFC_FMR = EEFC_FMR_FWS(3)|EEFC_FMR_CLOE;
        }
        else
        {
          if ( ul_clk < CHIP_FREQ_FWS_4 )
  4009c0:	4b14      	ldr	r3, [pc, #80]	; (400a14 <system_init_flash+0x6c>)
  4009c2:	4298      	cmp	r0, r3
  4009c4:	d918      	bls.n	4009f8 <system_init_flash+0x50>
          {
            EFC->EEFC_FMR = EEFC_FMR_FWS(4)|EEFC_FMR_CLOE;
          }
          else
          {
            if ( ul_clk < CHIP_FREQ_FWS_5 )
  4009c6:	4b14      	ldr	r3, [pc, #80]	; (400a18 <system_init_flash+0x70>)
  4009c8:	4298      	cmp	r0, r3
            {
              EFC->EEFC_FMR = EEFC_FMR_FWS(5)|EEFC_FMR_CLOE;
  4009ca:	bf94      	ite	ls
  4009cc:	4a13      	ldrls	r2, [pc, #76]	; (400a1c <system_init_flash+0x74>)
            }
            else
            {
              EFC->EEFC_FMR = EEFC_FMR_FWS(6)|EEFC_FMR_CLOE;
  4009ce:	4a14      	ldrhi	r2, [pc, #80]	; (400a20 <system_init_flash+0x78>)
  4009d0:	4b14      	ldr	r3, [pc, #80]	; (400a24 <system_init_flash+0x7c>)
  4009d2:	601a      	str	r2, [r3, #0]
  4009d4:	4770      	bx	lr
    EFC->EEFC_FMR = EEFC_FMR_FWS(0)|EEFC_FMR_CLOE;
  4009d6:	f04f 6280 	mov.w	r2, #67108864	; 0x4000000
  4009da:	4b12      	ldr	r3, [pc, #72]	; (400a24 <system_init_flash+0x7c>)
  4009dc:	601a      	str	r2, [r3, #0]
  4009de:	4770      	bx	lr
      EFC->EEFC_FMR = EEFC_FMR_FWS(1)|EEFC_FMR_CLOE;
  4009e0:	4a11      	ldr	r2, [pc, #68]	; (400a28 <system_init_flash+0x80>)
  4009e2:	4b10      	ldr	r3, [pc, #64]	; (400a24 <system_init_flash+0x7c>)
  4009e4:	601a      	str	r2, [r3, #0]
  4009e6:	4770      	bx	lr
        EFC->EEFC_FMR = EEFC_FMR_FWS(2)|EEFC_FMR_CLOE;
  4009e8:	4a10      	ldr	r2, [pc, #64]	; (400a2c <system_init_flash+0x84>)
  4009ea:	4b0e      	ldr	r3, [pc, #56]	; (400a24 <system_init_flash+0x7c>)
  4009ec:	601a      	str	r2, [r3, #0]
  4009ee:	4770      	bx	lr
          EFC->EEFC_FMR = EEFC_FMR_FWS(3)|EEFC_FMR_CLOE;
  4009f0:	4a0f      	ldr	r2, [pc, #60]	; (400a30 <system_init_flash+0x88>)
  4009f2:	4b0c      	ldr	r3, [pc, #48]	; (400a24 <system_init_flash+0x7c>)
  4009f4:	601a      	str	r2, [r3, #0]
  4009f6:	4770      	bx	lr
            EFC->EEFC_FMR = EEFC_FMR_FWS(4)|EEFC_FMR_CLOE;
  4009f8:	f04f 2204 	mov.w	r2, #67109888	; 0x4000400
  4009fc:	4b09      	ldr	r3, [pc, #36]	; (400a24 <system_init_flash+0x7c>)
  4009fe:	601a      	str	r2, [r3, #0]
  400a00:	4770      	bx	lr
  400a02:	bf00      	nop
  400a04:	015ef3bf 	.word	0x015ef3bf
  400a08:	02bde77f 	.word	0x02bde77f
  400a0c:	041cdb3f 	.word	0x041cdb3f
  400a10:	057bceff 	.word	0x057bceff
  400a14:	06dac2bf 	.word	0x06dac2bf
  400a18:	0839b67f 	.word	0x0839b67f
  400a1c:	04000500 	.word	0x04000500
  400a20:	04000600 	.word	0x04000600
  400a24:	400e0c00 	.word	0x400e0c00
  400a28:	04000100 	.word	0x04000100
  400a2c:	04000200 	.word	0x04000200
  400a30:	04000300 	.word	0x04000300

00400a34 <_sbrk>:
{
	static unsigned char *heap = NULL;
	unsigned char *prev_heap;
	int ramend = (int)&__ram_end__;

	if (heap == NULL) {
  400a34:	4b0a      	ldr	r3, [pc, #40]	; (400a60 <_sbrk+0x2c>)
  400a36:	681b      	ldr	r3, [r3, #0]
  400a38:	b153      	cbz	r3, 400a50 <_sbrk+0x1c>
		heap = (unsigned char *)&_end;
	}
	prev_heap = heap;
  400a3a:	4b09      	ldr	r3, [pc, #36]	; (400a60 <_sbrk+0x2c>)
  400a3c:	681b      	ldr	r3, [r3, #0]

	if (((int)prev_heap + incr) > ramend) {
  400a3e:	181a      	adds	r2, r3, r0
  400a40:	4908      	ldr	r1, [pc, #32]	; (400a64 <_sbrk+0x30>)
  400a42:	4291      	cmp	r1, r2
  400a44:	db08      	blt.n	400a58 <_sbrk+0x24>
		return (caddr_t) -1;	
	}

	heap += incr;
  400a46:	4610      	mov	r0, r2
  400a48:	4a05      	ldr	r2, [pc, #20]	; (400a60 <_sbrk+0x2c>)
  400a4a:	6010      	str	r0, [r2, #0]

	return (caddr_t) prev_heap;
  400a4c:	4618      	mov	r0, r3
  400a4e:	4770      	bx	lr
		heap = (unsigned char *)&_end;
  400a50:	4a05      	ldr	r2, [pc, #20]	; (400a68 <_sbrk+0x34>)
  400a52:	4b03      	ldr	r3, [pc, #12]	; (400a60 <_sbrk+0x2c>)
  400a54:	601a      	str	r2, [r3, #0]
  400a56:	e7f0      	b.n	400a3a <_sbrk+0x6>
		return (caddr_t) -1;	
  400a58:	f04f 30ff 	mov.w	r0, #4294967295
}
  400a5c:	4770      	bx	lr
  400a5e:	bf00      	nop
  400a60:	20400a48 	.word	0x20400a48
  400a64:	2045fffc 	.word	0x2045fffc
  400a68:	20402f40 	.word	0x20402f40

00400a6c <_close>:
}

extern int _close(int file)
{
	return -1;
}
  400a6c:	f04f 30ff 	mov.w	r0, #4294967295
  400a70:	4770      	bx	lr

00400a72 <_fstat>:

extern int _fstat(int file, struct stat *st)
{
	st->st_mode = S_IFCHR;
  400a72:	f44f 5300 	mov.w	r3, #8192	; 0x2000
  400a76:	604b      	str	r3, [r1, #4]

	return 0;
}
  400a78:	2000      	movs	r0, #0
  400a7a:	4770      	bx	lr

00400a7c <_isatty>:

extern int _isatty(int file)
{
	return 1;
}
  400a7c:	2001      	movs	r0, #1
  400a7e:	4770      	bx	lr

00400a80 <_lseek>:

extern int _lseek(int file, int ptr, int dir)
{
	return 0;
}
  400a80:	2000      	movs	r0, #0
  400a82:	4770      	bx	lr

00400a84 <vListInitialise>:
void vListInitialise( List_t * const pxList )
{
	/* The list structure contains a list item which is used to mark the
	end of the list.  To initialise the list the list end is inserted
	as the only list entry. */
	pxList->pxIndex = ( ListItem_t * ) &( pxList->xListEnd );			/*lint !e826 !e740 The mini list structure is used as the list end to save RAM.  This is checked and valid. */
  400a84:	f100 0308 	add.w	r3, r0, #8
  400a88:	6043      	str	r3, [r0, #4]

	/* The list end value is the highest possible value in the list to
	ensure it remains at the end of the list. */
	pxList->xListEnd.xItemValue = portMAX_DELAY;
  400a8a:	f04f 32ff 	mov.w	r2, #4294967295
  400a8e:	6082      	str	r2, [r0, #8]

	/* The list end next and previous pointers point to itself so we know
	when the list is empty. */
	pxList->xListEnd.pxNext = ( ListItem_t * ) &( pxList->xListEnd );	/*lint !e826 !e740 The mini list structure is used as the list end to save RAM.  This is checked and valid. */
  400a90:	60c3      	str	r3, [r0, #12]
	pxList->xListEnd.pxPrevious = ( ListItem_t * ) &( pxList->xListEnd );/*lint !e826 !e740 The mini list structure is used as the list end to save RAM.  This is checked and valid. */
  400a92:	6103      	str	r3, [r0, #16]

	pxList->uxNumberOfItems = ( UBaseType_t ) 0U;
  400a94:	2300      	movs	r3, #0
  400a96:	6003      	str	r3, [r0, #0]
  400a98:	4770      	bx	lr

00400a9a <vListInitialiseItem>:
/*-----------------------------------------------------------*/

void vListInitialiseItem( ListItem_t * const pxItem )
{
	/* Make sure the list item is not recorded as being on a list. */
	pxItem->pvContainer = NULL;
  400a9a:	2300      	movs	r3, #0
  400a9c:	6103      	str	r3, [r0, #16]
  400a9e:	4770      	bx	lr

00400aa0 <vListInsertEnd>:
}
/*-----------------------------------------------------------*/

void vListInsertEnd( List_t * const pxList, ListItem_t * const pxNewListItem )
{
ListItem_t * const pxIndex = pxList->pxIndex;
  400aa0:	6843      	ldr	r3, [r0, #4]
	listTEST_LIST_ITEM_INTEGRITY( pxNewListItem );

	/* Insert a new list item into pxList, but rather than sort the list,
	makes the new list item the last item to be removed by a call to
	listGET_OWNER_OF_NEXT_ENTRY(). */
	pxNewListItem->pxNext = pxIndex;
  400aa2:	604b      	str	r3, [r1, #4]
	pxNewListItem->pxPrevious = pxIndex->pxPrevious;
  400aa4:	689a      	ldr	r2, [r3, #8]
  400aa6:	608a      	str	r2, [r1, #8]

	/* Only used during decision coverage testing. */
	mtCOVERAGE_TEST_DELAY();

	pxIndex->pxPrevious->pxNext = pxNewListItem;
  400aa8:	689a      	ldr	r2, [r3, #8]
  400aaa:	6051      	str	r1, [r2, #4]
	pxIndex->pxPrevious = pxNewListItem;
  400aac:	6099      	str	r1, [r3, #8]

	/* Remember which list the item is in. */
	pxNewListItem->pvContainer = ( void * ) pxList;
  400aae:	6108      	str	r0, [r1, #16]

	( pxList->uxNumberOfItems )++;
  400ab0:	6803      	ldr	r3, [r0, #0]
  400ab2:	3301      	adds	r3, #1
  400ab4:	6003      	str	r3, [r0, #0]
  400ab6:	4770      	bx	lr

00400ab8 <vListInsert>:
}
/*-----------------------------------------------------------*/

void vListInsert( List_t * const pxList, ListItem_t * const pxNewListItem )
{
  400ab8:	b430      	push	{r4, r5}
ListItem_t *pxIterator;
const TickType_t xValueOfInsertion = pxNewListItem->xItemValue;
  400aba:	680d      	ldr	r5, [r1, #0]
	new list item should be placed after it.  This ensures that TCB's which are
	stored in ready lists (all of which have the same xItemValue value) get a
	share of the CPU.  However, if the xItemValue is the same as the back marker
	the iteration loop below will not end.  Therefore the value is checked
	first, and the algorithm slightly modified if necessary. */
	if( xValueOfInsertion == portMAX_DELAY )
  400abc:	f1b5 3fff 	cmp.w	r5, #4294967295
  400ac0:	d002      	beq.n	400ac8 <vListInsert+0x10>
			4) Using a queue or semaphore before it has been initialised or
			   before the scheduler has been started (are interrupts firing
			   before vTaskStartScheduler() has been called?).
		**********************************************************************/

		for( pxIterator = ( ListItem_t * ) &( pxList->xListEnd ); pxIterator->pxNext->xItemValue <= xValueOfInsertion; pxIterator = pxIterator->pxNext ) /*lint !e826 !e740 The mini list structure is used as the list end to save RAM.  This is checked and valid. */
  400ac2:	f100 0208 	add.w	r2, r0, #8
  400ac6:	e002      	b.n	400ace <vListInsert+0x16>
		pxIterator = pxList->xListEnd.pxPrevious;
  400ac8:	6902      	ldr	r2, [r0, #16]
  400aca:	e004      	b.n	400ad6 <vListInsert+0x1e>
		for( pxIterator = ( ListItem_t * ) &( pxList->xListEnd ); pxIterator->pxNext->xItemValue <= xValueOfInsertion; pxIterator = pxIterator->pxNext ) /*lint !e826 !e740 The mini list structure is used as the list end to save RAM.  This is checked and valid. */
  400acc:	461a      	mov	r2, r3
  400ace:	6853      	ldr	r3, [r2, #4]
  400ad0:	681c      	ldr	r4, [r3, #0]
  400ad2:	42a5      	cmp	r5, r4
  400ad4:	d2fa      	bcs.n	400acc <vListInsert+0x14>
			/* There is nothing to do here, just iterating to the wanted
			insertion position. */
		}
	}

	pxNewListItem->pxNext = pxIterator->pxNext;
  400ad6:	6853      	ldr	r3, [r2, #4]
  400ad8:	604b      	str	r3, [r1, #4]
	pxNewListItem->pxNext->pxPrevious = pxNewListItem;
  400ada:	6099      	str	r1, [r3, #8]
	pxNewListItem->pxPrevious = pxIterator;
  400adc:	608a      	str	r2, [r1, #8]
	pxIterator->pxNext = pxNewListItem;
  400ade:	6051      	str	r1, [r2, #4]

	/* Remember which list the item is in.  This allows fast removal of the
	item later. */
	pxNewListItem->pvContainer = ( void * ) pxList;
  400ae0:	6108      	str	r0, [r1, #16]

	( pxList->uxNumberOfItems )++;
  400ae2:	6803      	ldr	r3, [r0, #0]
  400ae4:	3301      	adds	r3, #1
  400ae6:	6003      	str	r3, [r0, #0]
}
  400ae8:	bc30      	pop	{r4, r5}
  400aea:	4770      	bx	lr

00400aec <uxListRemove>:

UBaseType_t uxListRemove( ListItem_t * const pxItemToRemove )
{
/* The list item knows which list it is in.  Obtain the list from the list
item. */
List_t * const pxList = ( List_t * ) pxItemToRemove->pvContainer;
  400aec:	6903      	ldr	r3, [r0, #16]

	pxItemToRemove->pxNext->pxPrevious = pxItemToRemove->pxPrevious;
  400aee:	6842      	ldr	r2, [r0, #4]
  400af0:	6881      	ldr	r1, [r0, #8]
  400af2:	6091      	str	r1, [r2, #8]
	pxItemToRemove->pxPrevious->pxNext = pxItemToRemove->pxNext;
  400af4:	6882      	ldr	r2, [r0, #8]
  400af6:	6841      	ldr	r1, [r0, #4]
  400af8:	6051      	str	r1, [r2, #4]

	/* Only used during decision coverage testing. */
	mtCOVERAGE_TEST_DELAY();

	/* Make sure the index is left pointing to a valid item. */
	if( pxList->pxIndex == pxItemToRemove )
  400afa:	685a      	ldr	r2, [r3, #4]
  400afc:	4290      	cmp	r0, r2
  400afe:	d006      	beq.n	400b0e <uxListRemove+0x22>
	else
	{
		mtCOVERAGE_TEST_MARKER();
	}

	pxItemToRemove->pvContainer = NULL;
  400b00:	2200      	movs	r2, #0
  400b02:	6102      	str	r2, [r0, #16]
	( pxList->uxNumberOfItems )--;
  400b04:	681a      	ldr	r2, [r3, #0]
  400b06:	3a01      	subs	r2, #1
  400b08:	601a      	str	r2, [r3, #0]

	return pxList->uxNumberOfItems;
  400b0a:	6818      	ldr	r0, [r3, #0]
}
  400b0c:	4770      	bx	lr
		pxList->pxIndex = pxItemToRemove->pxPrevious;
  400b0e:	6882      	ldr	r2, [r0, #8]
  400b10:	605a      	str	r2, [r3, #4]
  400b12:	e7f5      	b.n	400b00 <uxListRemove+0x14>

00400b14 <prvTaskExitError>:
	return pxTopOfStack;
}
/*-----------------------------------------------------------*/

static void prvTaskExitError( void )
{
  400b14:	b082      	sub	sp, #8
volatile uint32_t ulDummy = 0;
  400b16:	2300      	movs	r3, #0
  400b18:	9301      	str	r3, [sp, #4]
	its caller as there is nothing to return to.  If a task wants to exit it
	should instead call vTaskDelete( NULL ).

	Artificially force an assert() to be triggered if configASSERT() is
	defined, then stop here so application writers can catch the error. */
	configASSERT( uxCriticalNesting == ~0UL );
  400b1a:	4b0f      	ldr	r3, [pc, #60]	; (400b58 <prvTaskExitError+0x44>)
  400b1c:	681b      	ldr	r3, [r3, #0]
  400b1e:	f1b3 3fff 	cmp.w	r3, #4294967295
  400b22:	d00a      	beq.n	400b3a <prvTaskExitError+0x26>

portFORCE_INLINE static void vPortRaiseBASEPRI( void )
{
uint32_t ulNewBASEPRI;

	__asm volatile
  400b24:	f04f 0380 	mov.w	r3, #128	; 0x80
  400b28:	b672      	cpsid	i
  400b2a:	f383 8811 	msr	BASEPRI, r3
  400b2e:	f3bf 8f6f 	isb	sy
  400b32:	f3bf 8f4f 	dsb	sy
  400b36:	b662      	cpsie	i
  400b38:	e7fe      	b.n	400b38 <prvTaskExitError+0x24>
  400b3a:	f04f 0380 	mov.w	r3, #128	; 0x80
  400b3e:	b672      	cpsid	i
  400b40:	f383 8811 	msr	BASEPRI, r3
  400b44:	f3bf 8f6f 	isb	sy
  400b48:	f3bf 8f4f 	dsb	sy
  400b4c:	b662      	cpsie	i
	portDISABLE_INTERRUPTS();
	while( ulDummy == 0 )
  400b4e:	9b01      	ldr	r3, [sp, #4]
  400b50:	2b00      	cmp	r3, #0
  400b52:	d0fc      	beq.n	400b4e <prvTaskExitError+0x3a>
		about code appearing after this function is called - making ulDummy
		volatile makes the compiler think the function could return and
		therefore not output an 'unreachable code' warning for code that appears
		after it. */
	}
}
  400b54:	b002      	add	sp, #8
  400b56:	4770      	bx	lr
  400b58:	20400008 	.word	0x20400008

00400b5c <prvPortStartFirstTask>:
{
	/* Start the first task.  This also clears the bit that indicates the FPU is
	in use in case the FPU was used before the scheduler was started - which
	would otherwise result in the unnecessary leaving of space in the SVC stack
	for lazy saving of FPU registers. */
	__asm volatile(
  400b5c:	4808      	ldr	r0, [pc, #32]	; (400b80 <prvPortStartFirstTask+0x24>)
  400b5e:	6800      	ldr	r0, [r0, #0]
  400b60:	6800      	ldr	r0, [r0, #0]
  400b62:	f380 8808 	msr	MSP, r0
  400b66:	f04f 0000 	mov.w	r0, #0
  400b6a:	f380 8814 	msr	CONTROL, r0
  400b6e:	b662      	cpsie	i
  400b70:	b661      	cpsie	f
  400b72:	f3bf 8f4f 	dsb	sy
  400b76:	f3bf 8f6f 	isb	sy
  400b7a:	df00      	svc	0
  400b7c:	bf00      	nop
  400b7e:	0000      	.short	0x0000
  400b80:	e000ed08 	.word	0xe000ed08

00400b84 <vPortEnableVFP>:
/*-----------------------------------------------------------*/

/* This is a naked function. */
static void vPortEnableVFP( void )
{
	__asm volatile
  400b84:	f8df 000c 	ldr.w	r0, [pc, #12]	; 400b94 <vPortEnableVFP+0x10>
  400b88:	6801      	ldr	r1, [r0, #0]
  400b8a:	f441 0170 	orr.w	r1, r1, #15728640	; 0xf00000
  400b8e:	6001      	str	r1, [r0, #0]
  400b90:	4770      	bx	lr
  400b92:	0000      	.short	0x0000
  400b94:	e000ed88 	.word	0xe000ed88

00400b98 <pxPortInitialiseStack>:
	*pxTopOfStack = portINITIAL_XPSR;	/* xPSR */
  400b98:	f04f 7380 	mov.w	r3, #16777216	; 0x1000000
  400b9c:	f840 3c04 	str.w	r3, [r0, #-4]
	*pxTopOfStack = ( ( StackType_t ) pxCode ) & portSTART_ADDRESS_MASK;	/* PC */
  400ba0:	f021 0101 	bic.w	r1, r1, #1
  400ba4:	f840 1c08 	str.w	r1, [r0, #-8]
	*pxTopOfStack = ( StackType_t ) portTASK_RETURN_ADDRESS;	/* LR */
  400ba8:	4b05      	ldr	r3, [pc, #20]	; (400bc0 <pxPortInitialiseStack+0x28>)
  400baa:	f840 3c0c 	str.w	r3, [r0, #-12]
	*pxTopOfStack = ( StackType_t ) pvParameters;	/* R0 */
  400bae:	f840 2c20 	str.w	r2, [r0, #-32]
	*pxTopOfStack = portINITIAL_EXC_RETURN;
  400bb2:	f06f 0302 	mvn.w	r3, #2
  400bb6:	f840 3c24 	str.w	r3, [r0, #-36]
}
  400bba:	3844      	subs	r0, #68	; 0x44
  400bbc:	4770      	bx	lr
  400bbe:	bf00      	nop
  400bc0:	00400b15 	.word	0x00400b15
	...

00400bd0 <SVC_Handler>:
	__asm volatile (
  400bd0:	4b07      	ldr	r3, [pc, #28]	; (400bf0 <pxCurrentTCBConst2>)
  400bd2:	6819      	ldr	r1, [r3, #0]
  400bd4:	6808      	ldr	r0, [r1, #0]
  400bd6:	e8b0 4ff0 	ldmia.w	r0!, {r4, r5, r6, r7, r8, r9, sl, fp, lr}
  400bda:	f380 8809 	msr	PSP, r0
  400bde:	f3bf 8f6f 	isb	sy
  400be2:	f04f 0000 	mov.w	r0, #0
  400be6:	f380 8811 	msr	BASEPRI, r0
  400bea:	4770      	bx	lr
  400bec:	f3af 8000 	nop.w

00400bf0 <pxCurrentTCBConst2>:
  400bf0:	20400a54 	.word	0x20400a54

00400bf4 <vPortEnterCritical>:
  400bf4:	f04f 0380 	mov.w	r3, #128	; 0x80
  400bf8:	b672      	cpsid	i
  400bfa:	f383 8811 	msr	BASEPRI, r3
  400bfe:	f3bf 8f6f 	isb	sy
  400c02:	f3bf 8f4f 	dsb	sy
  400c06:	b662      	cpsie	i
	uxCriticalNesting++;
  400c08:	4a0b      	ldr	r2, [pc, #44]	; (400c38 <vPortEnterCritical+0x44>)
  400c0a:	6813      	ldr	r3, [r2, #0]
  400c0c:	3301      	adds	r3, #1
  400c0e:	6013      	str	r3, [r2, #0]
	if( uxCriticalNesting == 1 )
  400c10:	2b01      	cmp	r3, #1
  400c12:	d10f      	bne.n	400c34 <vPortEnterCritical+0x40>
		configASSERT( ( portNVIC_INT_CTRL_REG & portVECTACTIVE_MASK ) == 0 );
  400c14:	4b09      	ldr	r3, [pc, #36]	; (400c3c <vPortEnterCritical+0x48>)
  400c16:	681b      	ldr	r3, [r3, #0]
  400c18:	f013 0fff 	tst.w	r3, #255	; 0xff
  400c1c:	d00a      	beq.n	400c34 <vPortEnterCritical+0x40>
  400c1e:	f04f 0380 	mov.w	r3, #128	; 0x80
  400c22:	b672      	cpsid	i
  400c24:	f383 8811 	msr	BASEPRI, r3
  400c28:	f3bf 8f6f 	isb	sy
  400c2c:	f3bf 8f4f 	dsb	sy
  400c30:	b662      	cpsie	i
  400c32:	e7fe      	b.n	400c32 <vPortEnterCritical+0x3e>
  400c34:	4770      	bx	lr
  400c36:	bf00      	nop
  400c38:	20400008 	.word	0x20400008
  400c3c:	e000ed04 	.word	0xe000ed04

00400c40 <vPortExitCritical>:
	configASSERT( uxCriticalNesting );
  400c40:	4b0a      	ldr	r3, [pc, #40]	; (400c6c <vPortExitCritical+0x2c>)
  400c42:	681b      	ldr	r3, [r3, #0]
  400c44:	b953      	cbnz	r3, 400c5c <vPortExitCritical+0x1c>
  400c46:	f04f 0380 	mov.w	r3, #128	; 0x80
  400c4a:	b672      	cpsid	i
  400c4c:	f383 8811 	msr	BASEPRI, r3
  400c50:	f3bf 8f6f 	isb	sy
  400c54:	f3bf 8f4f 	dsb	sy
  400c58:	b662      	cpsie	i
  400c5a:	e7fe      	b.n	400c5a <vPortExitCritical+0x1a>
	uxCriticalNesting--;
  400c5c:	3b01      	subs	r3, #1
  400c5e:	4a03      	ldr	r2, [pc, #12]	; (400c6c <vPortExitCritical+0x2c>)
  400c60:	6013      	str	r3, [r2, #0]
	if( uxCriticalNesting == 0 )
  400c62:	b90b      	cbnz	r3, 400c68 <vPortExitCritical+0x28>
}
/*-----------------------------------------------------------*/

portFORCE_INLINE static void vPortSetBASEPRI( uint32_t ulNewMaskValue )
{
	__asm volatile
  400c64:	f383 8811 	msr	BASEPRI, r3
  400c68:	4770      	bx	lr
  400c6a:	bf00      	nop
  400c6c:	20400008 	.word	0x20400008

00400c70 <PendSV_Handler>:
	__asm volatile
  400c70:	f3ef 8009 	mrs	r0, PSP
  400c74:	f3bf 8f6f 	isb	sy
  400c78:	4b15      	ldr	r3, [pc, #84]	; (400cd0 <pxCurrentTCBConst>)
  400c7a:	681a      	ldr	r2, [r3, #0]
  400c7c:	f01e 0f10 	tst.w	lr, #16
  400c80:	bf08      	it	eq
  400c82:	ed20 8a10 	vstmdbeq	r0!, {s16-s31}
  400c86:	e920 4ff0 	stmdb	r0!, {r4, r5, r6, r7, r8, r9, sl, fp, lr}
  400c8a:	6010      	str	r0, [r2, #0]
  400c8c:	e92d 0009 	stmdb	sp!, {r0, r3}
  400c90:	f04f 0080 	mov.w	r0, #128	; 0x80
  400c94:	b672      	cpsid	i
  400c96:	f380 8811 	msr	BASEPRI, r0
  400c9a:	f3bf 8f4f 	dsb	sy
  400c9e:	f3bf 8f6f 	isb	sy
  400ca2:	b662      	cpsie	i
  400ca4:	f001 f8ca 	bl	401e3c <vTaskSwitchContext>
  400ca8:	f04f 0000 	mov.w	r0, #0
  400cac:	f380 8811 	msr	BASEPRI, r0
  400cb0:	bc09      	pop	{r0, r3}
  400cb2:	6819      	ldr	r1, [r3, #0]
  400cb4:	6808      	ldr	r0, [r1, #0]
  400cb6:	e8b0 4ff0 	ldmia.w	r0!, {r4, r5, r6, r7, r8, r9, sl, fp, lr}
  400cba:	f01e 0f10 	tst.w	lr, #16
  400cbe:	bf08      	it	eq
  400cc0:	ecb0 8a10 	vldmiaeq	r0!, {s16-s31}
  400cc4:	f380 8809 	msr	PSP, r0
  400cc8:	f3bf 8f6f 	isb	sy
  400ccc:	4770      	bx	lr
  400cce:	bf00      	nop

00400cd0 <pxCurrentTCBConst>:
  400cd0:	20400a54 	.word	0x20400a54

00400cd4 <SysTick_Handler>:
{
  400cd4:	b508      	push	{r3, lr}
	__asm volatile
  400cd6:	f04f 0380 	mov.w	r3, #128	; 0x80
  400cda:	b672      	cpsid	i
  400cdc:	f383 8811 	msr	BASEPRI, r3
  400ce0:	f3bf 8f6f 	isb	sy
  400ce4:	f3bf 8f4f 	dsb	sy
  400ce8:	b662      	cpsie	i
		if( xTaskIncrementTick() != pdFALSE )
  400cea:	4b05      	ldr	r3, [pc, #20]	; (400d00 <SysTick_Handler+0x2c>)
  400cec:	4798      	blx	r3
  400cee:	b118      	cbz	r0, 400cf8 <SysTick_Handler+0x24>
			portNVIC_INT_CTRL_REG = portNVIC_PENDSVSET_BIT;
  400cf0:	f04f 5280 	mov.w	r2, #268435456	; 0x10000000
  400cf4:	4b03      	ldr	r3, [pc, #12]	; (400d04 <SysTick_Handler+0x30>)
  400cf6:	601a      	str	r2, [r3, #0]
	__asm volatile
  400cf8:	2300      	movs	r3, #0
  400cfa:	f383 8811 	msr	BASEPRI, r3
  400cfe:	bd08      	pop	{r3, pc}
  400d00:	00401b81 	.word	0x00401b81
  400d04:	e000ed04 	.word	0xe000ed04

00400d08 <vPortSetupTimerInterrupt>:
	portNVIC_SYSTICK_CTRL_REG = 0UL;
  400d08:	4b05      	ldr	r3, [pc, #20]	; (400d20 <vPortSetupTimerInterrupt+0x18>)
  400d0a:	2200      	movs	r2, #0
  400d0c:	601a      	str	r2, [r3, #0]
	portNVIC_SYSTICK_CURRENT_VALUE_REG = 0UL;
  400d0e:	4905      	ldr	r1, [pc, #20]	; (400d24 <vPortSetupTimerInterrupt+0x1c>)
  400d10:	600a      	str	r2, [r1, #0]
	portNVIC_SYSTICK_LOAD_REG = ( configSYSTICK_CLOCK_HZ / configTICK_RATE_HZ ) - 1UL;
  400d12:	4905      	ldr	r1, [pc, #20]	; (400d28 <vPortSetupTimerInterrupt+0x20>)
  400d14:	4a05      	ldr	r2, [pc, #20]	; (400d2c <vPortSetupTimerInterrupt+0x24>)
  400d16:	6011      	str	r1, [r2, #0]
	portNVIC_SYSTICK_CTRL_REG = ( portNVIC_SYSTICK_CLK_BIT | portNVIC_SYSTICK_INT_BIT | portNVIC_SYSTICK_ENABLE_BIT );
  400d18:	2207      	movs	r2, #7
  400d1a:	601a      	str	r2, [r3, #0]
  400d1c:	4770      	bx	lr
  400d1e:	bf00      	nop
  400d20:	e000e010 	.word	0xe000e010
  400d24:	e000e018 	.word	0xe000e018
  400d28:	000927bf 	.word	0x000927bf
  400d2c:	e000e014 	.word	0xe000e014

00400d30 <xPortStartScheduler>:
{
  400d30:	b510      	push	{r4, lr}
  400d32:	b082      	sub	sp, #8
		ulOriginalPriority = *pucFirstUserPriorityRegister;
  400d34:	4b2e      	ldr	r3, [pc, #184]	; (400df0 <xPortStartScheduler+0xc0>)
  400d36:	781a      	ldrb	r2, [r3, #0]
  400d38:	b2d2      	uxtb	r2, r2
  400d3a:	9201      	str	r2, [sp, #4]
		*pucFirstUserPriorityRegister = portMAX_8_BIT_VALUE;
  400d3c:	22ff      	movs	r2, #255	; 0xff
  400d3e:	701a      	strb	r2, [r3, #0]
		ucMaxPriorityValue = *pucFirstUserPriorityRegister;
  400d40:	781b      	ldrb	r3, [r3, #0]
  400d42:	b2db      	uxtb	r3, r3
  400d44:	f88d 3003 	strb.w	r3, [sp, #3]
		ucMaxSysCallPriority = configMAX_SYSCALL_INTERRUPT_PRIORITY & ucMaxPriorityValue;
  400d48:	f89d 3003 	ldrb.w	r3, [sp, #3]
  400d4c:	f003 0380 	and.w	r3, r3, #128	; 0x80
  400d50:	4a28      	ldr	r2, [pc, #160]	; (400df4 <xPortStartScheduler+0xc4>)
  400d52:	7013      	strb	r3, [r2, #0]
		ulMaxPRIGROUPValue = portMAX_PRIGROUP_BITS;
  400d54:	2207      	movs	r2, #7
  400d56:	4b28      	ldr	r3, [pc, #160]	; (400df8 <xPortStartScheduler+0xc8>)
  400d58:	601a      	str	r2, [r3, #0]
		while( ( ucMaxPriorityValue & portTOP_BIT_OF_BYTE ) == portTOP_BIT_OF_BYTE )
  400d5a:	f89d 3003 	ldrb.w	r3, [sp, #3]
  400d5e:	f013 0f80 	tst.w	r3, #128	; 0x80
  400d62:	d012      	beq.n	400d8a <xPortStartScheduler+0x5a>
  400d64:	2306      	movs	r3, #6
  400d66:	e000      	b.n	400d6a <xPortStartScheduler+0x3a>
  400d68:	460b      	mov	r3, r1
			ucMaxPriorityValue <<= ( uint8_t ) 0x01;
  400d6a:	f89d 2003 	ldrb.w	r2, [sp, #3]
  400d6e:	0052      	lsls	r2, r2, #1
  400d70:	b2d2      	uxtb	r2, r2
  400d72:	f88d 2003 	strb.w	r2, [sp, #3]
		while( ( ucMaxPriorityValue & portTOP_BIT_OF_BYTE ) == portTOP_BIT_OF_BYTE )
  400d76:	f89d 2003 	ldrb.w	r2, [sp, #3]
  400d7a:	1e59      	subs	r1, r3, #1
  400d7c:	f012 0f80 	tst.w	r2, #128	; 0x80
  400d80:	d1f2      	bne.n	400d68 <xPortStartScheduler+0x38>
  400d82:	4a1d      	ldr	r2, [pc, #116]	; (400df8 <xPortStartScheduler+0xc8>)
  400d84:	6013      	str	r3, [r2, #0]
			configASSERT( ( portMAX_PRIGROUP_BITS - ulMaxPRIGROUPValue ) == __NVIC_PRIO_BITS );
  400d86:	2b04      	cmp	r3, #4
  400d88:	d00a      	beq.n	400da0 <xPortStartScheduler+0x70>
	__asm volatile
  400d8a:	f04f 0380 	mov.w	r3, #128	; 0x80
  400d8e:	b672      	cpsid	i
  400d90:	f383 8811 	msr	BASEPRI, r3
  400d94:	f3bf 8f6f 	isb	sy
  400d98:	f3bf 8f4f 	dsb	sy
  400d9c:	b662      	cpsie	i
  400d9e:	e7fe      	b.n	400d9e <xPortStartScheduler+0x6e>
		ulMaxPRIGROUPValue <<= portPRIGROUP_SHIFT;
  400da0:	021b      	lsls	r3, r3, #8
		ulMaxPRIGROUPValue &= portPRIORITY_GROUP_MASK;
  400da2:	f403 63e0 	and.w	r3, r3, #1792	; 0x700
  400da6:	4a14      	ldr	r2, [pc, #80]	; (400df8 <xPortStartScheduler+0xc8>)
  400da8:	6013      	str	r3, [r2, #0]
		*pucFirstUserPriorityRegister = ulOriginalPriority;
  400daa:	9b01      	ldr	r3, [sp, #4]
  400dac:	b2db      	uxtb	r3, r3
  400dae:	4a10      	ldr	r2, [pc, #64]	; (400df0 <xPortStartScheduler+0xc0>)
  400db0:	7013      	strb	r3, [r2, #0]
	portNVIC_SYSPRI2_REG |= portNVIC_PENDSV_PRI;
  400db2:	4b12      	ldr	r3, [pc, #72]	; (400dfc <xPortStartScheduler+0xcc>)
  400db4:	681a      	ldr	r2, [r3, #0]
  400db6:	f442 0260 	orr.w	r2, r2, #14680064	; 0xe00000
  400dba:	601a      	str	r2, [r3, #0]
	portNVIC_SYSPRI2_REG |= portNVIC_SYSTICK_PRI;
  400dbc:	681a      	ldr	r2, [r3, #0]
  400dbe:	f042 4260 	orr.w	r2, r2, #3758096384	; 0xe0000000
  400dc2:	601a      	str	r2, [r3, #0]
	vPortSetupTimerInterrupt();
  400dc4:	4b0e      	ldr	r3, [pc, #56]	; (400e00 <xPortStartScheduler+0xd0>)
  400dc6:	4798      	blx	r3
	uxCriticalNesting = 0;
  400dc8:	2400      	movs	r4, #0
  400dca:	4b0e      	ldr	r3, [pc, #56]	; (400e04 <xPortStartScheduler+0xd4>)
  400dcc:	601c      	str	r4, [r3, #0]
	vPortEnableVFP();
  400dce:	4b0e      	ldr	r3, [pc, #56]	; (400e08 <xPortStartScheduler+0xd8>)
  400dd0:	4798      	blx	r3
	*( portFPCCR ) |= portASPEN_AND_LSPEN_BITS;
  400dd2:	4a0e      	ldr	r2, [pc, #56]	; (400e0c <xPortStartScheduler+0xdc>)
  400dd4:	6813      	ldr	r3, [r2, #0]
  400dd6:	f043 4340 	orr.w	r3, r3, #3221225472	; 0xc0000000
  400dda:	6013      	str	r3, [r2, #0]
	prvPortStartFirstTask();
  400ddc:	4b0c      	ldr	r3, [pc, #48]	; (400e10 <xPortStartScheduler+0xe0>)
  400dde:	4798      	blx	r3
	vTaskSwitchContext();
  400de0:	4b0c      	ldr	r3, [pc, #48]	; (400e14 <xPortStartScheduler+0xe4>)
  400de2:	4798      	blx	r3
	prvTaskExitError();
  400de4:	4b0c      	ldr	r3, [pc, #48]	; (400e18 <xPortStartScheduler+0xe8>)
  400de6:	4798      	blx	r3
}
  400de8:	4620      	mov	r0, r4
  400dea:	b002      	add	sp, #8
  400dec:	bd10      	pop	{r4, pc}
  400dee:	bf00      	nop
  400df0:	e000e400 	.word	0xe000e400
  400df4:	20400a4c 	.word	0x20400a4c
  400df8:	20400a50 	.word	0x20400a50
  400dfc:	e000ed20 	.word	0xe000ed20
  400e00:	00400d09 	.word	0x00400d09
  400e04:	20400008 	.word	0x20400008
  400e08:	00400b85 	.word	0x00400b85
  400e0c:	e000ef34 	.word	0xe000ef34
  400e10:	00400b5d 	.word	0x00400b5d
  400e14:	00401e3d 	.word	0x00401e3d
  400e18:	00400b15 	.word	0x00400b15

00400e1c <vPortValidateInterruptPriority>:
	{
	uint32_t ulCurrentInterrupt;
	uint8_t ucCurrentPriority;

		/* Obtain the number of the currently executing interrupt. */
		__asm volatile( "mrs %0, ipsr" : "=r"( ulCurrentInterrupt ) :: "memory" );
  400e1c:	f3ef 8305 	mrs	r3, IPSR

		/* Is the interrupt number a user defined interrupt? */
		if( ulCurrentInterrupt >= portFIRST_USER_INTERRUPT_NUMBER )
  400e20:	2b0f      	cmp	r3, #15
  400e22:	d911      	bls.n	400e48 <vPortValidateInterruptPriority+0x2c>
		{
			/* Look up the interrupt's priority. */
			ucCurrentPriority = pcInterruptPriorityRegisters[ ulCurrentInterrupt ];
  400e24:	4a12      	ldr	r2, [pc, #72]	; (400e70 <vPortValidateInterruptPriority+0x54>)
  400e26:	5c9b      	ldrb	r3, [r3, r2]
  400e28:	b2db      	uxtb	r3, r3
			interrupt entry is as fast and simple as possible.

			The following links provide detailed information:
			http://www.freertos.org/RTOS-Cortex-M3-M4.html
			http://www.freertos.org/FAQHelp.html */
			configASSERT( ucCurrentPriority >= ucMaxSysCallPriority );
  400e2a:	4a12      	ldr	r2, [pc, #72]	; (400e74 <vPortValidateInterruptPriority+0x58>)
  400e2c:	7812      	ldrb	r2, [r2, #0]
  400e2e:	429a      	cmp	r2, r3
  400e30:	d90a      	bls.n	400e48 <vPortValidateInterruptPriority+0x2c>
  400e32:	f04f 0380 	mov.w	r3, #128	; 0x80
  400e36:	b672      	cpsid	i
  400e38:	f383 8811 	msr	BASEPRI, r3
  400e3c:	f3bf 8f6f 	isb	sy
  400e40:	f3bf 8f4f 	dsb	sy
  400e44:	b662      	cpsie	i
  400e46:	e7fe      	b.n	400e46 <vPortValidateInterruptPriority+0x2a>
		configuration then the correct setting can be achieved on all Cortex-M
		devices by calling NVIC_SetPriorityGrouping( 0 ); before starting the
		scheduler.  Note however that some vendor specific peripheral libraries
		assume a non-zero priority group setting, in which cases using a value
		of zero will result in unpredictable behaviour. */
		configASSERT( ( portAIRCR_REG & portPRIORITY_GROUP_MASK ) <= ulMaxPRIGROUPValue );
  400e48:	4b0b      	ldr	r3, [pc, #44]	; (400e78 <vPortValidateInterruptPriority+0x5c>)
  400e4a:	681b      	ldr	r3, [r3, #0]
  400e4c:	f403 63e0 	and.w	r3, r3, #1792	; 0x700
  400e50:	4a0a      	ldr	r2, [pc, #40]	; (400e7c <vPortValidateInterruptPriority+0x60>)
  400e52:	6812      	ldr	r2, [r2, #0]
  400e54:	4293      	cmp	r3, r2
  400e56:	d90a      	bls.n	400e6e <vPortValidateInterruptPriority+0x52>
  400e58:	f04f 0380 	mov.w	r3, #128	; 0x80
  400e5c:	b672      	cpsid	i
  400e5e:	f383 8811 	msr	BASEPRI, r3
  400e62:	f3bf 8f6f 	isb	sy
  400e66:	f3bf 8f4f 	dsb	sy
  400e6a:	b662      	cpsie	i
  400e6c:	e7fe      	b.n	400e6c <vPortValidateInterruptPriority+0x50>
  400e6e:	4770      	bx	lr
  400e70:	e000e3f0 	.word	0xe000e3f0
  400e74:	20400a4c 	.word	0x20400a4c
  400e78:	e000ed0c 	.word	0xe000ed0c
  400e7c:	20400a50 	.word	0x20400a50

00400e80 <pvPortMalloc>:
#endif

/*-----------------------------------------------------------*/

void *pvPortMalloc( size_t xWantedSize )
{
  400e80:	b510      	push	{r4, lr}
  400e82:	4604      	mov	r4, r0
void *pvReturn;

	vTaskSuspendAll();
  400e84:	4b06      	ldr	r3, [pc, #24]	; (400ea0 <pvPortMalloc+0x20>)
  400e86:	4798      	blx	r3
	{
		pvReturn = malloc( xWantedSize );
  400e88:	4620      	mov	r0, r4
  400e8a:	4b06      	ldr	r3, [pc, #24]	; (400ea4 <pvPortMalloc+0x24>)
  400e8c:	4798      	blx	r3
  400e8e:	4604      	mov	r4, r0
		traceMALLOC( pvReturn, xWantedSize );
	}
	( void ) xTaskResumeAll();
  400e90:	4b05      	ldr	r3, [pc, #20]	; (400ea8 <pvPortMalloc+0x28>)
  400e92:	4798      	blx	r3

	#if( configUSE_MALLOC_FAILED_HOOK == 1 )
	{
		if( pvReturn == NULL )
  400e94:	b10c      	cbz	r4, 400e9a <pvPortMalloc+0x1a>
		}
	}
	#endif

	return pvReturn;
}
  400e96:	4620      	mov	r0, r4
  400e98:	bd10      	pop	{r4, pc}
			vApplicationMallocFailedHook();
  400e9a:	4b04      	ldr	r3, [pc, #16]	; (400eac <pvPortMalloc+0x2c>)
  400e9c:	4798      	blx	r3
	return pvReturn;
  400e9e:	e7fa      	b.n	400e96 <pvPortMalloc+0x16>
  400ea0:	00401b59 	.word	0x00401b59
  400ea4:	00402df5 	.word	0x00402df5
  400ea8:	00401cc9 	.word	0x00401cc9
  400eac:	00402b01 	.word	0x00402b01

00400eb0 <vPortFree>:
/*-----------------------------------------------------------*/

void vPortFree( void *pv )
{
	if( pv )
  400eb0:	b148      	cbz	r0, 400ec6 <vPortFree+0x16>
{
  400eb2:	b510      	push	{r4, lr}
  400eb4:	4604      	mov	r4, r0
	{
		vTaskSuspendAll();
  400eb6:	4b04      	ldr	r3, [pc, #16]	; (400ec8 <vPortFree+0x18>)
  400eb8:	4798      	blx	r3
		{
			free( pv );
  400eba:	4620      	mov	r0, r4
  400ebc:	4b03      	ldr	r3, [pc, #12]	; (400ecc <vPortFree+0x1c>)
  400ebe:	4798      	blx	r3
			traceFREE( pv, 0 );
		}
		( void ) xTaskResumeAll();
  400ec0:	4b03      	ldr	r3, [pc, #12]	; (400ed0 <vPortFree+0x20>)
  400ec2:	4798      	blx	r3
  400ec4:	bd10      	pop	{r4, pc}
  400ec6:	4770      	bx	lr
  400ec8:	00401b59 	.word	0x00401b59
  400ecc:	00402e05 	.word	0x00402e05
  400ed0:	00401cc9 	.word	0x00401cc9

00400ed4 <prvIsQueueEmpty>:
	taskEXIT_CRITICAL();
}
/*-----------------------------------------------------------*/

static BaseType_t prvIsQueueEmpty( const Queue_t *pxQueue )
{
  400ed4:	b510      	push	{r4, lr}
  400ed6:	4604      	mov	r4, r0
BaseType_t xReturn;

	taskENTER_CRITICAL();
  400ed8:	4b04      	ldr	r3, [pc, #16]	; (400eec <prvIsQueueEmpty+0x18>)
  400eda:	4798      	blx	r3
	{
		if( pxQueue->uxMessagesWaiting == ( UBaseType_t )  0 )
  400edc:	6ba4      	ldr	r4, [r4, #56]	; 0x38
		else
		{
			xReturn = pdFALSE;
		}
	}
	taskEXIT_CRITICAL();
  400ede:	4b04      	ldr	r3, [pc, #16]	; (400ef0 <prvIsQueueEmpty+0x1c>)
  400ee0:	4798      	blx	r3

	return xReturn;
}
  400ee2:	fab4 f084 	clz	r0, r4
  400ee6:	0940      	lsrs	r0, r0, #5
  400ee8:	bd10      	pop	{r4, pc}
  400eea:	bf00      	nop
  400eec:	00400bf5 	.word	0x00400bf5
  400ef0:	00400c41 	.word	0x00400c41

00400ef4 <prvCopyDataToQueue>:
{
  400ef4:	b570      	push	{r4, r5, r6, lr}
  400ef6:	4604      	mov	r4, r0
  400ef8:	4616      	mov	r6, r2
	uxMessagesWaiting = pxQueue->uxMessagesWaiting;
  400efa:	6b85      	ldr	r5, [r0, #56]	; 0x38
	if( pxQueue->uxItemSize == ( UBaseType_t ) 0 )
  400efc:	6c02      	ldr	r2, [r0, #64]	; 0x40
  400efe:	b952      	cbnz	r2, 400f16 <prvCopyDataToQueue+0x22>
			if( pxQueue->uxQueueType == queueQUEUE_IS_MUTEX )
  400f00:	6803      	ldr	r3, [r0, #0]
  400f02:	2b00      	cmp	r3, #0
  400f04:	d12a      	bne.n	400f5c <prvCopyDataToQueue+0x68>
				xReturn = xTaskPriorityDisinherit( ( void * ) pxQueue->pxMutexHolder );
  400f06:	6840      	ldr	r0, [r0, #4]
  400f08:	4b17      	ldr	r3, [pc, #92]	; (400f68 <prvCopyDataToQueue+0x74>)
  400f0a:	4798      	blx	r3
				pxQueue->pxMutexHolder = NULL;
  400f0c:	2300      	movs	r3, #0
  400f0e:	6063      	str	r3, [r4, #4]
	pxQueue->uxMessagesWaiting = uxMessagesWaiting + ( UBaseType_t ) 1;
  400f10:	3501      	adds	r5, #1
  400f12:	63a5      	str	r5, [r4, #56]	; 0x38
}
  400f14:	bd70      	pop	{r4, r5, r6, pc}
	else if( xPosition == queueSEND_TO_BACK )
  400f16:	b96e      	cbnz	r6, 400f34 <prvCopyDataToQueue+0x40>
		( void ) memcpy( ( void * ) pxQueue->pcWriteTo, pvItemToQueue, ( size_t ) pxQueue->uxItemSize ); /*lint !e961 !e418 MISRA exception as the casts are only redundant for some ports, plus previous logic ensures a null pointer can only be passed to memcpy() if the copy size is 0. */
  400f18:	6880      	ldr	r0, [r0, #8]
  400f1a:	4b14      	ldr	r3, [pc, #80]	; (400f6c <prvCopyDataToQueue+0x78>)
  400f1c:	4798      	blx	r3
		pxQueue->pcWriteTo += pxQueue->uxItemSize;
  400f1e:	68a3      	ldr	r3, [r4, #8]
  400f20:	6c22      	ldr	r2, [r4, #64]	; 0x40
  400f22:	4413      	add	r3, r2
  400f24:	60a3      	str	r3, [r4, #8]
		if( pxQueue->pcWriteTo >= pxQueue->pcTail ) /*lint !e946 MISRA exception justified as comparison of pointers is the cleanest solution. */
  400f26:	6862      	ldr	r2, [r4, #4]
  400f28:	4293      	cmp	r3, r2
  400f2a:	d319      	bcc.n	400f60 <prvCopyDataToQueue+0x6c>
			pxQueue->pcWriteTo = pxQueue->pcHead;
  400f2c:	6823      	ldr	r3, [r4, #0]
  400f2e:	60a3      	str	r3, [r4, #8]
BaseType_t xReturn = pdFALSE;
  400f30:	2000      	movs	r0, #0
  400f32:	e7ed      	b.n	400f10 <prvCopyDataToQueue+0x1c>
		( void ) memcpy( ( void * ) pxQueue->u.pcReadFrom, pvItemToQueue, ( size_t ) pxQueue->uxItemSize ); /*lint !e961 MISRA exception as the casts are only redundant for some ports. */
  400f34:	68c0      	ldr	r0, [r0, #12]
  400f36:	4b0d      	ldr	r3, [pc, #52]	; (400f6c <prvCopyDataToQueue+0x78>)
  400f38:	4798      	blx	r3
		pxQueue->u.pcReadFrom -= pxQueue->uxItemSize;
  400f3a:	6c23      	ldr	r3, [r4, #64]	; 0x40
  400f3c:	425b      	negs	r3, r3
  400f3e:	68e2      	ldr	r2, [r4, #12]
  400f40:	441a      	add	r2, r3
  400f42:	60e2      	str	r2, [r4, #12]
		if( pxQueue->u.pcReadFrom < pxQueue->pcHead ) /*lint !e946 MISRA exception justified as comparison of pointers is the cleanest solution. */
  400f44:	6821      	ldr	r1, [r4, #0]
  400f46:	428a      	cmp	r2, r1
  400f48:	d202      	bcs.n	400f50 <prvCopyDataToQueue+0x5c>
			pxQueue->u.pcReadFrom = ( pxQueue->pcTail - pxQueue->uxItemSize );
  400f4a:	6862      	ldr	r2, [r4, #4]
  400f4c:	4413      	add	r3, r2
  400f4e:	60e3      	str	r3, [r4, #12]
			if( uxMessagesWaiting > ( UBaseType_t ) 0 )
  400f50:	b145      	cbz	r5, 400f64 <prvCopyDataToQueue+0x70>
  400f52:	2e02      	cmp	r6, #2
  400f54:	d106      	bne.n	400f64 <prvCopyDataToQueue+0x70>
				--uxMessagesWaiting;
  400f56:	3d01      	subs	r5, #1
BaseType_t xReturn = pdFALSE;
  400f58:	2000      	movs	r0, #0
  400f5a:	e7d9      	b.n	400f10 <prvCopyDataToQueue+0x1c>
  400f5c:	2000      	movs	r0, #0
  400f5e:	e7d7      	b.n	400f10 <prvCopyDataToQueue+0x1c>
  400f60:	2000      	movs	r0, #0
  400f62:	e7d5      	b.n	400f10 <prvCopyDataToQueue+0x1c>
  400f64:	2000      	movs	r0, #0
  400f66:	e7d3      	b.n	400f10 <prvCopyDataToQueue+0x1c>
  400f68:	004022c5 	.word	0x004022c5
  400f6c:	00403375 	.word	0x00403375

00400f70 <prvNotifyQueueSetContainer>:
/*-----------------------------------------------------------*/

#if ( configUSE_QUEUE_SETS == 1 )

	static BaseType_t prvNotifyQueueSetContainer( const Queue_t * const pxQueue, const BaseType_t xCopyPosition )
	{
  400f70:	b570      	push	{r4, r5, r6, lr}
  400f72:	b082      	sub	sp, #8
  400f74:	9001      	str	r0, [sp, #4]
	Queue_t *pxQueueSetContainer = pxQueue->pxQueueSetContainer;
  400f76:	6c84      	ldr	r4, [r0, #72]	; 0x48
	BaseType_t xReturn = pdFALSE;

		/* This function must be called form a critical section. */

		configASSERT( pxQueueSetContainer );
  400f78:	b174      	cbz	r4, 400f98 <prvNotifyQueueSetContainer+0x28>
		configASSERT( pxQueueSetContainer->uxMessagesWaiting < pxQueueSetContainer->uxLength );
  400f7a:	6ba2      	ldr	r2, [r4, #56]	; 0x38
  400f7c:	6be3      	ldr	r3, [r4, #60]	; 0x3c
  400f7e:	429a      	cmp	r2, r3
  400f80:	d315      	bcc.n	400fae <prvNotifyQueueSetContainer+0x3e>
  400f82:	f04f 0380 	mov.w	r3, #128	; 0x80
  400f86:	b672      	cpsid	i
  400f88:	f383 8811 	msr	BASEPRI, r3
  400f8c:	f3bf 8f6f 	isb	sy
  400f90:	f3bf 8f4f 	dsb	sy
  400f94:	b662      	cpsie	i
  400f96:	e7fe      	b.n	400f96 <prvNotifyQueueSetContainer+0x26>
  400f98:	f04f 0380 	mov.w	r3, #128	; 0x80
  400f9c:	b672      	cpsid	i
  400f9e:	f383 8811 	msr	BASEPRI, r3
  400fa2:	f3bf 8f6f 	isb	sy
  400fa6:	f3bf 8f4f 	dsb	sy
  400faa:	b662      	cpsie	i
  400fac:	e7fe      	b.n	400fac <prvNotifyQueueSetContainer+0x3c>

		if( pxQueueSetContainer->uxMessagesWaiting < pxQueueSetContainer->uxLength )
  400fae:	6ba2      	ldr	r2, [r4, #56]	; 0x38
  400fb0:	4293      	cmp	r3, r2
  400fb2:	d803      	bhi.n	400fbc <prvNotifyQueueSetContainer+0x4c>
	BaseType_t xReturn = pdFALSE;
  400fb4:	2600      	movs	r6, #0
		{
			mtCOVERAGE_TEST_MARKER();
		}

		return xReturn;
	}
  400fb6:	4630      	mov	r0, r6
  400fb8:	b002      	add	sp, #8
  400fba:	bd70      	pop	{r4, r5, r6, pc}
  400fbc:	460a      	mov	r2, r1
			const int8_t cTxLock = pxQueueSetContainer->cTxLock;
  400fbe:	f894 5045 	ldrb.w	r5, [r4, #69]	; 0x45
  400fc2:	b26d      	sxtb	r5, r5
			xReturn = prvCopyDataToQueue( pxQueueSetContainer, &pxQueue, xCopyPosition );
  400fc4:	a901      	add	r1, sp, #4
  400fc6:	4620      	mov	r0, r4
  400fc8:	4b0a      	ldr	r3, [pc, #40]	; (400ff4 <prvNotifyQueueSetContainer+0x84>)
  400fca:	4798      	blx	r3
  400fcc:	4606      	mov	r6, r0
			if( cTxLock == queueUNLOCKED )
  400fce:	f1b5 3fff 	cmp.w	r5, #4294967295
  400fd2:	d10a      	bne.n	400fea <prvNotifyQueueSetContainer+0x7a>
				if( listLIST_IS_EMPTY( &( pxQueueSetContainer->xTasksWaitingToReceive ) ) == pdFALSE )
  400fd4:	6a63      	ldr	r3, [r4, #36]	; 0x24
  400fd6:	2b00      	cmp	r3, #0
  400fd8:	d0ed      	beq.n	400fb6 <prvNotifyQueueSetContainer+0x46>
					if( xTaskRemoveFromEventList( &( pxQueueSetContainer->xTasksWaitingToReceive ) ) != pdFALSE )
  400fda:	f104 0024 	add.w	r0, r4, #36	; 0x24
  400fde:	4b06      	ldr	r3, [pc, #24]	; (400ff8 <prvNotifyQueueSetContainer+0x88>)
  400fe0:	4798      	blx	r3
  400fe2:	2800      	cmp	r0, #0
						xReturn = pdTRUE;
  400fe4:	bf18      	it	ne
  400fe6:	2601      	movne	r6, #1
  400fe8:	e7e5      	b.n	400fb6 <prvNotifyQueueSetContainer+0x46>
				pxQueueSetContainer->cTxLock = ( int8_t ) ( cTxLock + 1 );
  400fea:	1c6b      	adds	r3, r5, #1
  400fec:	b25b      	sxtb	r3, r3
  400fee:	f884 3045 	strb.w	r3, [r4, #69]	; 0x45
  400ff2:	e7e0      	b.n	400fb6 <prvNotifyQueueSetContainer+0x46>
  400ff4:	00400ef5 	.word	0x00400ef5
  400ff8:	00401f91 	.word	0x00401f91

00400ffc <prvCopyDataFromQueue>:
	if( pxQueue->uxItemSize != ( UBaseType_t ) 0 )
  400ffc:	6c02      	ldr	r2, [r0, #64]	; 0x40
  400ffe:	b172      	cbz	r2, 40101e <prvCopyDataFromQueue+0x22>
{
  401000:	b510      	push	{r4, lr}
  401002:	4603      	mov	r3, r0
		pxQueue->u.pcReadFrom += pxQueue->uxItemSize;
  401004:	68c4      	ldr	r4, [r0, #12]
  401006:	4414      	add	r4, r2
  401008:	60c4      	str	r4, [r0, #12]
		if( pxQueue->u.pcReadFrom >= pxQueue->pcTail ) /*lint !e946 MISRA exception justified as use of the relational operator is the cleanest solutions. */
  40100a:	6840      	ldr	r0, [r0, #4]
  40100c:	4284      	cmp	r4, r0
  40100e:	d301      	bcc.n	401014 <prvCopyDataFromQueue+0x18>
			pxQueue->u.pcReadFrom = pxQueue->pcHead;
  401010:	6818      	ldr	r0, [r3, #0]
  401012:	60d8      	str	r0, [r3, #12]
  401014:	4608      	mov	r0, r1
		( void ) memcpy( ( void * ) pvBuffer, ( void * ) pxQueue->u.pcReadFrom, ( size_t ) pxQueue->uxItemSize ); /*lint !e961 !e418 MISRA exception as the casts are only redundant for some ports.  Also previous logic ensures a null pointer can only be passed to memcpy() when the count is 0. */
  401016:	68d9      	ldr	r1, [r3, #12]
  401018:	4b01      	ldr	r3, [pc, #4]	; (401020 <prvCopyDataFromQueue+0x24>)
  40101a:	4798      	blx	r3
  40101c:	bd10      	pop	{r4, pc}
  40101e:	4770      	bx	lr
  401020:	00403375 	.word	0x00403375

00401024 <prvUnlockQueue>:
{
  401024:	e92d 41f0 	stmdb	sp!, {r4, r5, r6, r7, r8, lr}
  401028:	4605      	mov	r5, r0
	taskENTER_CRITICAL();
  40102a:	4b23      	ldr	r3, [pc, #140]	; (4010b8 <prvUnlockQueue+0x94>)
  40102c:	4798      	blx	r3
		int8_t cTxLock = pxQueue->cTxLock;
  40102e:	f895 4045 	ldrb.w	r4, [r5, #69]	; 0x45
  401032:	b264      	sxtb	r4, r4
		while( cTxLock > queueLOCKED_UNMODIFIED )
  401034:	2c00      	cmp	r4, #0
  401036:	dd19      	ble.n	40106c <prvUnlockQueue+0x48>
					if( prvNotifyQueueSetContainer( pxQueue, queueSEND_TO_BACK ) != pdFALSE )
  401038:	4e20      	ldr	r6, [pc, #128]	; (4010bc <prvUnlockQueue+0x98>)
						vTaskMissedYield();
  40103a:	f8df 808c 	ldr.w	r8, [pc, #140]	; 4010c8 <prvUnlockQueue+0xa4>
						if( xTaskRemoveFromEventList( &( pxQueue->xTasksWaitingToReceive ) ) != pdFALSE )
  40103e:	4f20      	ldr	r7, [pc, #128]	; (4010c0 <prvUnlockQueue+0x9c>)
  401040:	e008      	b.n	401054 <prvUnlockQueue+0x30>
					if( listLIST_IS_EMPTY( &( pxQueue->xTasksWaitingToReceive ) ) == pdFALSE )
  401042:	6a6b      	ldr	r3, [r5, #36]	; 0x24
  401044:	b193      	cbz	r3, 40106c <prvUnlockQueue+0x48>
						if( xTaskRemoveFromEventList( &( pxQueue->xTasksWaitingToReceive ) ) != pdFALSE )
  401046:	f105 0024 	add.w	r0, r5, #36	; 0x24
  40104a:	47b8      	blx	r7
  40104c:	b960      	cbnz	r0, 401068 <prvUnlockQueue+0x44>
  40104e:	3c01      	subs	r4, #1
  401050:	b264      	sxtb	r4, r4
		while( cTxLock > queueLOCKED_UNMODIFIED )
  401052:	b15c      	cbz	r4, 40106c <prvUnlockQueue+0x48>
				if( pxQueue->pxQueueSetContainer != NULL )
  401054:	6cab      	ldr	r3, [r5, #72]	; 0x48
  401056:	2b00      	cmp	r3, #0
  401058:	d0f3      	beq.n	401042 <prvUnlockQueue+0x1e>
					if( prvNotifyQueueSetContainer( pxQueue, queueSEND_TO_BACK ) != pdFALSE )
  40105a:	2100      	movs	r1, #0
  40105c:	4628      	mov	r0, r5
  40105e:	47b0      	blx	r6
  401060:	2800      	cmp	r0, #0
  401062:	d0f4      	beq.n	40104e <prvUnlockQueue+0x2a>
						vTaskMissedYield();
  401064:	47c0      	blx	r8
  401066:	e7f2      	b.n	40104e <prvUnlockQueue+0x2a>
							vTaskMissedYield();
  401068:	47c0      	blx	r8
  40106a:	e7f0      	b.n	40104e <prvUnlockQueue+0x2a>
		pxQueue->cTxLock = queueUNLOCKED;
  40106c:	23ff      	movs	r3, #255	; 0xff
  40106e:	f885 3045 	strb.w	r3, [r5, #69]	; 0x45
	taskEXIT_CRITICAL();
  401072:	4b14      	ldr	r3, [pc, #80]	; (4010c4 <prvUnlockQueue+0xa0>)
  401074:	4798      	blx	r3
	taskENTER_CRITICAL();
  401076:	4b10      	ldr	r3, [pc, #64]	; (4010b8 <prvUnlockQueue+0x94>)
  401078:	4798      	blx	r3
		int8_t cRxLock = pxQueue->cRxLock;
  40107a:	f895 4044 	ldrb.w	r4, [r5, #68]	; 0x44
  40107e:	b264      	sxtb	r4, r4
		while( cRxLock > queueLOCKED_UNMODIFIED )
  401080:	2c00      	cmp	r4, #0
  401082:	dd12      	ble.n	4010aa <prvUnlockQueue+0x86>
			if( listLIST_IS_EMPTY( &( pxQueue->xTasksWaitingToSend ) ) == pdFALSE )
  401084:	692b      	ldr	r3, [r5, #16]
  401086:	b183      	cbz	r3, 4010aa <prvUnlockQueue+0x86>
				if( xTaskRemoveFromEventList( &( pxQueue->xTasksWaitingToSend ) ) != pdFALSE )
  401088:	f105 0710 	add.w	r7, r5, #16
  40108c:	4e0c      	ldr	r6, [pc, #48]	; (4010c0 <prvUnlockQueue+0x9c>)
					vTaskMissedYield();
  40108e:	f8df 8038 	ldr.w	r8, [pc, #56]	; 4010c8 <prvUnlockQueue+0xa4>
  401092:	e004      	b.n	40109e <prvUnlockQueue+0x7a>
  401094:	3c01      	subs	r4, #1
  401096:	b264      	sxtb	r4, r4
		while( cRxLock > queueLOCKED_UNMODIFIED )
  401098:	b13c      	cbz	r4, 4010aa <prvUnlockQueue+0x86>
			if( listLIST_IS_EMPTY( &( pxQueue->xTasksWaitingToSend ) ) == pdFALSE )
  40109a:	692b      	ldr	r3, [r5, #16]
  40109c:	b12b      	cbz	r3, 4010aa <prvUnlockQueue+0x86>
				if( xTaskRemoveFromEventList( &( pxQueue->xTasksWaitingToSend ) ) != pdFALSE )
  40109e:	4638      	mov	r0, r7
  4010a0:	47b0      	blx	r6
  4010a2:	2800      	cmp	r0, #0
  4010a4:	d0f6      	beq.n	401094 <prvUnlockQueue+0x70>
					vTaskMissedYield();
  4010a6:	47c0      	blx	r8
  4010a8:	e7f4      	b.n	401094 <prvUnlockQueue+0x70>
		pxQueue->cRxLock = queueUNLOCKED;
  4010aa:	23ff      	movs	r3, #255	; 0xff
  4010ac:	f885 3044 	strb.w	r3, [r5, #68]	; 0x44
	taskEXIT_CRITICAL();
  4010b0:	4b04      	ldr	r3, [pc, #16]	; (4010c4 <prvUnlockQueue+0xa0>)
  4010b2:	4798      	blx	r3
  4010b4:	e8bd 81f0 	ldmia.w	sp!, {r4, r5, r6, r7, r8, pc}
  4010b8:	00400bf5 	.word	0x00400bf5
  4010bc:	00400f71 	.word	0x00400f71
  4010c0:	00401f91 	.word	0x00401f91
  4010c4:	00400c41 	.word	0x00400c41
  4010c8:	004020d5 	.word	0x004020d5

004010cc <xQueueGenericReset>:
{
  4010cc:	b538      	push	{r3, r4, r5, lr}
	configASSERT( pxQueue );
  4010ce:	b330      	cbz	r0, 40111e <xQueueGenericReset+0x52>
  4010d0:	4604      	mov	r4, r0
  4010d2:	460d      	mov	r5, r1
	taskENTER_CRITICAL();
  4010d4:	4b1d      	ldr	r3, [pc, #116]	; (40114c <xQueueGenericReset+0x80>)
  4010d6:	4798      	blx	r3
		pxQueue->pcTail = pxQueue->pcHead + ( pxQueue->uxLength * pxQueue->uxItemSize );
  4010d8:	6822      	ldr	r2, [r4, #0]
  4010da:	6c21      	ldr	r1, [r4, #64]	; 0x40
  4010dc:	6be3      	ldr	r3, [r4, #60]	; 0x3c
  4010de:	fb03 f301 	mul.w	r3, r3, r1
  4010e2:	18d0      	adds	r0, r2, r3
  4010e4:	6060      	str	r0, [r4, #4]
		pxQueue->uxMessagesWaiting = ( UBaseType_t ) 0U;
  4010e6:	2000      	movs	r0, #0
  4010e8:	63a0      	str	r0, [r4, #56]	; 0x38
		pxQueue->pcWriteTo = pxQueue->pcHead;
  4010ea:	60a2      	str	r2, [r4, #8]
		pxQueue->u.pcReadFrom = pxQueue->pcHead + ( ( pxQueue->uxLength - ( UBaseType_t ) 1U ) * pxQueue->uxItemSize );
  4010ec:	1a5b      	subs	r3, r3, r1
  4010ee:	4413      	add	r3, r2
  4010f0:	60e3      	str	r3, [r4, #12]
		pxQueue->cRxLock = queueUNLOCKED;
  4010f2:	23ff      	movs	r3, #255	; 0xff
  4010f4:	f884 3044 	strb.w	r3, [r4, #68]	; 0x44
		pxQueue->cTxLock = queueUNLOCKED;
  4010f8:	f884 3045 	strb.w	r3, [r4, #69]	; 0x45
		if( xNewQueue == pdFALSE )
  4010fc:	b9d5      	cbnz	r5, 401134 <xQueueGenericReset+0x68>
			if( listLIST_IS_EMPTY( &( pxQueue->xTasksWaitingToSend ) ) == pdFALSE )
  4010fe:	6923      	ldr	r3, [r4, #16]
  401100:	b1fb      	cbz	r3, 401142 <xQueueGenericReset+0x76>
				if( xTaskRemoveFromEventList( &( pxQueue->xTasksWaitingToSend ) ) != pdFALSE )
  401102:	f104 0010 	add.w	r0, r4, #16
  401106:	4b12      	ldr	r3, [pc, #72]	; (401150 <xQueueGenericReset+0x84>)
  401108:	4798      	blx	r3
  40110a:	b1d0      	cbz	r0, 401142 <xQueueGenericReset+0x76>
					queueYIELD_IF_USING_PREEMPTION();
  40110c:	f04f 5280 	mov.w	r2, #268435456	; 0x10000000
  401110:	4b10      	ldr	r3, [pc, #64]	; (401154 <xQueueGenericReset+0x88>)
  401112:	601a      	str	r2, [r3, #0]
  401114:	f3bf 8f4f 	dsb	sy
  401118:	f3bf 8f6f 	isb	sy
  40111c:	e011      	b.n	401142 <xQueueGenericReset+0x76>
  40111e:	f04f 0380 	mov.w	r3, #128	; 0x80
  401122:	b672      	cpsid	i
  401124:	f383 8811 	msr	BASEPRI, r3
  401128:	f3bf 8f6f 	isb	sy
  40112c:	f3bf 8f4f 	dsb	sy
  401130:	b662      	cpsie	i
  401132:	e7fe      	b.n	401132 <xQueueGenericReset+0x66>
			vListInitialise( &( pxQueue->xTasksWaitingToSend ) );
  401134:	f104 0010 	add.w	r0, r4, #16
  401138:	4d07      	ldr	r5, [pc, #28]	; (401158 <xQueueGenericReset+0x8c>)
  40113a:	47a8      	blx	r5
			vListInitialise( &( pxQueue->xTasksWaitingToReceive ) );
  40113c:	f104 0024 	add.w	r0, r4, #36	; 0x24
  401140:	47a8      	blx	r5
	taskEXIT_CRITICAL();
  401142:	4b06      	ldr	r3, [pc, #24]	; (40115c <xQueueGenericReset+0x90>)
  401144:	4798      	blx	r3
}
  401146:	2001      	movs	r0, #1
  401148:	bd38      	pop	{r3, r4, r5, pc}
  40114a:	bf00      	nop
  40114c:	00400bf5 	.word	0x00400bf5
  401150:	00401f91 	.word	0x00401f91
  401154:	e000ed04 	.word	0xe000ed04
  401158:	00400a85 	.word	0x00400a85
  40115c:	00400c41 	.word	0x00400c41

00401160 <xQueueGenericCreate>:
	{
  401160:	b5f8      	push	{r3, r4, r5, r6, r7, lr}
		configASSERT( uxQueueLength > ( UBaseType_t ) 0 );
  401162:	b950      	cbnz	r0, 40117a <xQueueGenericCreate+0x1a>
  401164:	f04f 0380 	mov.w	r3, #128	; 0x80
  401168:	b672      	cpsid	i
  40116a:	f383 8811 	msr	BASEPRI, r3
  40116e:	f3bf 8f6f 	isb	sy
  401172:	f3bf 8f4f 	dsb	sy
  401176:	b662      	cpsie	i
  401178:	e7fe      	b.n	401178 <xQueueGenericCreate+0x18>
  40117a:	4606      	mov	r6, r0
  40117c:	4617      	mov	r7, r2
  40117e:	460d      	mov	r5, r1
			xQueueSizeInBytes = ( size_t ) ( uxQueueLength * uxItemSize ); /*lint !e961 MISRA exception as the casts are only redundant for some ports. */
  401180:	fb01 f000 	mul.w	r0, r1, r0
		pxNewQueue = ( Queue_t * ) pvPortMalloc( sizeof( Queue_t ) + xQueueSizeInBytes );
  401184:	3054      	adds	r0, #84	; 0x54
  401186:	4b0b      	ldr	r3, [pc, #44]	; (4011b4 <xQueueGenericCreate+0x54>)
  401188:	4798      	blx	r3
		if( pxNewQueue != NULL )
  40118a:	4604      	mov	r4, r0
  40118c:	b178      	cbz	r0, 4011ae <xQueueGenericCreate+0x4e>
	if( uxItemSize == ( UBaseType_t ) 0 )
  40118e:	b11d      	cbz	r5, 401198 <xQueueGenericCreate+0x38>
			pucQueueStorage = ( ( uint8_t * ) pxNewQueue ) + sizeof( Queue_t );
  401190:	f100 0354 	add.w	r3, r0, #84	; 0x54
		pxNewQueue->pcHead = ( int8_t * ) pucQueueStorage;
  401194:	6003      	str	r3, [r0, #0]
  401196:	e000      	b.n	40119a <xQueueGenericCreate+0x3a>
		pxNewQueue->pcHead = ( int8_t * ) pxNewQueue;
  401198:	6020      	str	r0, [r4, #0]
	pxNewQueue->uxLength = uxQueueLength;
  40119a:	63e6      	str	r6, [r4, #60]	; 0x3c
	pxNewQueue->uxItemSize = uxItemSize;
  40119c:	6425      	str	r5, [r4, #64]	; 0x40
	( void ) xQueueGenericReset( pxNewQueue, pdTRUE );
  40119e:	2101      	movs	r1, #1
  4011a0:	4620      	mov	r0, r4
  4011a2:	4b05      	ldr	r3, [pc, #20]	; (4011b8 <xQueueGenericCreate+0x58>)
  4011a4:	4798      	blx	r3
		pxNewQueue->ucQueueType = ucQueueType;
  4011a6:	f884 7050 	strb.w	r7, [r4, #80]	; 0x50
		pxNewQueue->pxQueueSetContainer = NULL;
  4011aa:	2300      	movs	r3, #0
  4011ac:	64a3      	str	r3, [r4, #72]	; 0x48
	}
  4011ae:	4620      	mov	r0, r4
  4011b0:	bdf8      	pop	{r3, r4, r5, r6, r7, pc}
  4011b2:	bf00      	nop
  4011b4:	00400e81 	.word	0x00400e81
  4011b8:	004010cd 	.word	0x004010cd

004011bc <xQueueGenericSend>:
{
  4011bc:	e92d 4ff0 	stmdb	sp!, {r4, r5, r6, r7, r8, r9, sl, fp, lr}
  4011c0:	b085      	sub	sp, #20
  4011c2:	9201      	str	r2, [sp, #4]
	configASSERT( pxQueue );
  4011c4:	b1b8      	cbz	r0, 4011f6 <xQueueGenericSend+0x3a>
  4011c6:	4604      	mov	r4, r0
	configASSERT( !( ( pvItemToQueue == NULL ) && ( pxQueue->uxItemSize != ( UBaseType_t ) 0U ) ) );
  4011c8:	b301      	cbz	r1, 40120c <xQueueGenericSend+0x50>
	configASSERT( !( ( xCopyPosition == queueOVERWRITE ) && ( pxQueue->uxLength != 1 ) ) );
  4011ca:	2b02      	cmp	r3, #2
  4011cc:	d02c      	beq.n	401228 <xQueueGenericSend+0x6c>
  4011ce:	461e      	mov	r6, r3
  4011d0:	460f      	mov	r7, r1
		configASSERT( !( ( xTaskGetSchedulerState() == taskSCHEDULER_SUSPENDED ) && ( xTicksToWait != 0 ) ) );
  4011d2:	4b69      	ldr	r3, [pc, #420]	; (401378 <xQueueGenericSend+0x1bc>)
  4011d4:	4798      	blx	r3
  4011d6:	2800      	cmp	r0, #0
  4011d8:	d134      	bne.n	401244 <xQueueGenericSend+0x88>
  4011da:	9b01      	ldr	r3, [sp, #4]
  4011dc:	2b00      	cmp	r3, #0
  4011de:	d039      	beq.n	401254 <xQueueGenericSend+0x98>
  4011e0:	f04f 0380 	mov.w	r3, #128	; 0x80
  4011e4:	b672      	cpsid	i
  4011e6:	f383 8811 	msr	BASEPRI, r3
  4011ea:	f3bf 8f6f 	isb	sy
  4011ee:	f3bf 8f4f 	dsb	sy
  4011f2:	b662      	cpsie	i
  4011f4:	e7fe      	b.n	4011f4 <xQueueGenericSend+0x38>
  4011f6:	f04f 0380 	mov.w	r3, #128	; 0x80
  4011fa:	b672      	cpsid	i
  4011fc:	f383 8811 	msr	BASEPRI, r3
  401200:	f3bf 8f6f 	isb	sy
  401204:	f3bf 8f4f 	dsb	sy
  401208:	b662      	cpsie	i
  40120a:	e7fe      	b.n	40120a <xQueueGenericSend+0x4e>
	configASSERT( !( ( pvItemToQueue == NULL ) && ( pxQueue->uxItemSize != ( UBaseType_t ) 0U ) ) );
  40120c:	6c02      	ldr	r2, [r0, #64]	; 0x40
  40120e:	2a00      	cmp	r2, #0
  401210:	d0db      	beq.n	4011ca <xQueueGenericSend+0xe>
  401212:	f04f 0380 	mov.w	r3, #128	; 0x80
  401216:	b672      	cpsid	i
  401218:	f383 8811 	msr	BASEPRI, r3
  40121c:	f3bf 8f6f 	isb	sy
  401220:	f3bf 8f4f 	dsb	sy
  401224:	b662      	cpsie	i
  401226:	e7fe      	b.n	401226 <xQueueGenericSend+0x6a>
	configASSERT( !( ( xCopyPosition == queueOVERWRITE ) && ( pxQueue->uxLength != 1 ) ) );
  401228:	6be2      	ldr	r2, [r4, #60]	; 0x3c
  40122a:	2a01      	cmp	r2, #1
  40122c:	d0cf      	beq.n	4011ce <xQueueGenericSend+0x12>
  40122e:	f04f 0380 	mov.w	r3, #128	; 0x80
  401232:	b672      	cpsid	i
  401234:	f383 8811 	msr	BASEPRI, r3
  401238:	f3bf 8f6f 	isb	sy
  40123c:	f3bf 8f4f 	dsb	sy
  401240:	b662      	cpsie	i
  401242:	e7fe      	b.n	401242 <xQueueGenericSend+0x86>
  401244:	2500      	movs	r5, #0
		taskENTER_CRITICAL();
  401246:	f8df 815c 	ldr.w	r8, [pc, #348]	; 4013a4 <xQueueGenericSend+0x1e8>
					vTaskInternalSetTimeOutState( &xTimeOut );
  40124a:	f8df a15c 	ldr.w	sl, [pc, #348]	; 4013a8 <xQueueGenericSend+0x1ec>
					portYIELD_WITHIN_API();
  40124e:	f8df 9134 	ldr.w	r9, [pc, #308]	; 401384 <xQueueGenericSend+0x1c8>
  401252:	e041      	b.n	4012d8 <xQueueGenericSend+0x11c>
  401254:	2500      	movs	r5, #0
  401256:	e7f6      	b.n	401246 <xQueueGenericSend+0x8a>
				xYieldRequired = prvCopyDataToQueue( pxQueue, pvItemToQueue, xCopyPosition );
  401258:	4632      	mov	r2, r6
  40125a:	4639      	mov	r1, r7
  40125c:	4620      	mov	r0, r4
  40125e:	4b47      	ldr	r3, [pc, #284]	; (40137c <xQueueGenericSend+0x1c0>)
  401260:	4798      	blx	r3
					if( pxQueue->pxQueueSetContainer != NULL )
  401262:	6ca3      	ldr	r3, [r4, #72]	; 0x48
  401264:	b193      	cbz	r3, 40128c <xQueueGenericSend+0xd0>
						if( prvNotifyQueueSetContainer( pxQueue, xCopyPosition ) != pdFALSE )
  401266:	4631      	mov	r1, r6
  401268:	4620      	mov	r0, r4
  40126a:	4b45      	ldr	r3, [pc, #276]	; (401380 <xQueueGenericSend+0x1c4>)
  40126c:	4798      	blx	r3
  40126e:	b138      	cbz	r0, 401280 <xQueueGenericSend+0xc4>
							queueYIELD_IF_USING_PREEMPTION();
  401270:	f04f 5280 	mov.w	r2, #268435456	; 0x10000000
  401274:	4b43      	ldr	r3, [pc, #268]	; (401384 <xQueueGenericSend+0x1c8>)
  401276:	601a      	str	r2, [r3, #0]
  401278:	f3bf 8f4f 	dsb	sy
  40127c:	f3bf 8f6f 	isb	sy
				taskEXIT_CRITICAL();
  401280:	4b41      	ldr	r3, [pc, #260]	; (401388 <xQueueGenericSend+0x1cc>)
  401282:	4798      	blx	r3
				return pdPASS;
  401284:	2001      	movs	r0, #1
}
  401286:	b005      	add	sp, #20
  401288:	e8bd 8ff0 	ldmia.w	sp!, {r4, r5, r6, r7, r8, r9, sl, fp, pc}
						if( listLIST_IS_EMPTY( &( pxQueue->xTasksWaitingToReceive ) ) == pdFALSE )
  40128c:	6a63      	ldr	r3, [r4, #36]	; 0x24
  40128e:	b173      	cbz	r3, 4012ae <xQueueGenericSend+0xf2>
							if( xTaskRemoveFromEventList( &( pxQueue->xTasksWaitingToReceive ) ) != pdFALSE )
  401290:	f104 0024 	add.w	r0, r4, #36	; 0x24
  401294:	4b3d      	ldr	r3, [pc, #244]	; (40138c <xQueueGenericSend+0x1d0>)
  401296:	4798      	blx	r3
  401298:	2800      	cmp	r0, #0
  40129a:	d0f1      	beq.n	401280 <xQueueGenericSend+0xc4>
								queueYIELD_IF_USING_PREEMPTION();
  40129c:	f04f 5280 	mov.w	r2, #268435456	; 0x10000000
  4012a0:	4b38      	ldr	r3, [pc, #224]	; (401384 <xQueueGenericSend+0x1c8>)
  4012a2:	601a      	str	r2, [r3, #0]
  4012a4:	f3bf 8f4f 	dsb	sy
  4012a8:	f3bf 8f6f 	isb	sy
  4012ac:	e7e8      	b.n	401280 <xQueueGenericSend+0xc4>
						else if( xYieldRequired != pdFALSE )
  4012ae:	2800      	cmp	r0, #0
  4012b0:	d0e6      	beq.n	401280 <xQueueGenericSend+0xc4>
							queueYIELD_IF_USING_PREEMPTION();
  4012b2:	f04f 5280 	mov.w	r2, #268435456	; 0x10000000
  4012b6:	4b33      	ldr	r3, [pc, #204]	; (401384 <xQueueGenericSend+0x1c8>)
  4012b8:	601a      	str	r2, [r3, #0]
  4012ba:	f3bf 8f4f 	dsb	sy
  4012be:	f3bf 8f6f 	isb	sy
  4012c2:	e7dd      	b.n	401280 <xQueueGenericSend+0xc4>
					taskEXIT_CRITICAL();
  4012c4:	4b30      	ldr	r3, [pc, #192]	; (401388 <xQueueGenericSend+0x1cc>)
  4012c6:	4798      	blx	r3
					return errQUEUE_FULL;
  4012c8:	2000      	movs	r0, #0
  4012ca:	e7dc      	b.n	401286 <xQueueGenericSend+0xca>
				prvUnlockQueue( pxQueue );
  4012cc:	4620      	mov	r0, r4
  4012ce:	4b30      	ldr	r3, [pc, #192]	; (401390 <xQueueGenericSend+0x1d4>)
  4012d0:	4798      	blx	r3
				( void ) xTaskResumeAll();
  4012d2:	4b30      	ldr	r3, [pc, #192]	; (401394 <xQueueGenericSend+0x1d8>)
  4012d4:	4798      	blx	r3
  4012d6:	2501      	movs	r5, #1
		taskENTER_CRITICAL();
  4012d8:	47c0      	blx	r8
			if( ( pxQueue->uxMessagesWaiting < pxQueue->uxLength ) || ( xCopyPosition == queueOVERWRITE ) )
  4012da:	6ba2      	ldr	r2, [r4, #56]	; 0x38
  4012dc:	6be3      	ldr	r3, [r4, #60]	; 0x3c
  4012de:	429a      	cmp	r2, r3
  4012e0:	d3ba      	bcc.n	401258 <xQueueGenericSend+0x9c>
  4012e2:	2e02      	cmp	r6, #2
  4012e4:	d0b8      	beq.n	401258 <xQueueGenericSend+0x9c>
				if( xTicksToWait == ( TickType_t ) 0 )
  4012e6:	9b01      	ldr	r3, [sp, #4]
  4012e8:	2b00      	cmp	r3, #0
  4012ea:	d0eb      	beq.n	4012c4 <xQueueGenericSend+0x108>
				else if( xEntryTimeSet == pdFALSE )
  4012ec:	b90d      	cbnz	r5, 4012f2 <xQueueGenericSend+0x136>
					vTaskInternalSetTimeOutState( &xTimeOut );
  4012ee:	a802      	add	r0, sp, #8
  4012f0:	47d0      	blx	sl
		taskEXIT_CRITICAL();
  4012f2:	4b25      	ldr	r3, [pc, #148]	; (401388 <xQueueGenericSend+0x1cc>)
  4012f4:	4798      	blx	r3
		vTaskSuspendAll();
  4012f6:	4b28      	ldr	r3, [pc, #160]	; (401398 <xQueueGenericSend+0x1dc>)
  4012f8:	4798      	blx	r3
		prvLockQueue( pxQueue );
  4012fa:	47c0      	blx	r8
  4012fc:	f894 3044 	ldrb.w	r3, [r4, #68]	; 0x44
  401300:	b25b      	sxtb	r3, r3
  401302:	f1b3 3fff 	cmp.w	r3, #4294967295
  401306:	d102      	bne.n	40130e <xQueueGenericSend+0x152>
  401308:	2300      	movs	r3, #0
  40130a:	f884 3044 	strb.w	r3, [r4, #68]	; 0x44
  40130e:	f894 3045 	ldrb.w	r3, [r4, #69]	; 0x45
  401312:	b25b      	sxtb	r3, r3
  401314:	f1b3 3fff 	cmp.w	r3, #4294967295
  401318:	d102      	bne.n	401320 <xQueueGenericSend+0x164>
  40131a:	2300      	movs	r3, #0
  40131c:	f884 3045 	strb.w	r3, [r4, #69]	; 0x45
  401320:	4b19      	ldr	r3, [pc, #100]	; (401388 <xQueueGenericSend+0x1cc>)
  401322:	4798      	blx	r3
		if( xTaskCheckForTimeOut( &xTimeOut, &xTicksToWait ) == pdFALSE )
  401324:	a901      	add	r1, sp, #4
  401326:	a802      	add	r0, sp, #8
  401328:	4b1c      	ldr	r3, [pc, #112]	; (40139c <xQueueGenericSend+0x1e0>)
  40132a:	4798      	blx	r3
  40132c:	b9e0      	cbnz	r0, 401368 <xQueueGenericSend+0x1ac>
	taskENTER_CRITICAL();
  40132e:	47c0      	blx	r8
		if( pxQueue->uxMessagesWaiting == pxQueue->uxLength )
  401330:	f8d4 b038 	ldr.w	fp, [r4, #56]	; 0x38
  401334:	6be5      	ldr	r5, [r4, #60]	; 0x3c
	taskEXIT_CRITICAL();
  401336:	4b14      	ldr	r3, [pc, #80]	; (401388 <xQueueGenericSend+0x1cc>)
  401338:	4798      	blx	r3
			if( prvIsQueueFull( pxQueue ) != pdFALSE )
  40133a:	45ab      	cmp	fp, r5
  40133c:	d1c6      	bne.n	4012cc <xQueueGenericSend+0x110>
				vTaskPlaceOnEventList( &( pxQueue->xTasksWaitingToSend ), xTicksToWait );
  40133e:	9901      	ldr	r1, [sp, #4]
  401340:	f104 0010 	add.w	r0, r4, #16
  401344:	4b16      	ldr	r3, [pc, #88]	; (4013a0 <xQueueGenericSend+0x1e4>)
  401346:	4798      	blx	r3
				prvUnlockQueue( pxQueue );
  401348:	4620      	mov	r0, r4
  40134a:	4b11      	ldr	r3, [pc, #68]	; (401390 <xQueueGenericSend+0x1d4>)
  40134c:	4798      	blx	r3
				if( xTaskResumeAll() == pdFALSE )
  40134e:	4b11      	ldr	r3, [pc, #68]	; (401394 <xQueueGenericSend+0x1d8>)
  401350:	4798      	blx	r3
  401352:	2800      	cmp	r0, #0
  401354:	d1bf      	bne.n	4012d6 <xQueueGenericSend+0x11a>
					portYIELD_WITHIN_API();
  401356:	f04f 5380 	mov.w	r3, #268435456	; 0x10000000
  40135a:	f8c9 3000 	str.w	r3, [r9]
  40135e:	f3bf 8f4f 	dsb	sy
  401362:	f3bf 8f6f 	isb	sy
  401366:	e7b6      	b.n	4012d6 <xQueueGenericSend+0x11a>
			prvUnlockQueue( pxQueue );
  401368:	4620      	mov	r0, r4
  40136a:	4b09      	ldr	r3, [pc, #36]	; (401390 <xQueueGenericSend+0x1d4>)
  40136c:	4798      	blx	r3
			( void ) xTaskResumeAll();
  40136e:	4b09      	ldr	r3, [pc, #36]	; (401394 <xQueueGenericSend+0x1d8>)
  401370:	4798      	blx	r3
			return errQUEUE_FULL;
  401372:	2000      	movs	r0, #0
  401374:	e787      	b.n	401286 <xQueueGenericSend+0xca>
  401376:	bf00      	nop
  401378:	004022a5 	.word	0x004022a5
  40137c:	00400ef5 	.word	0x00400ef5
  401380:	00400f71 	.word	0x00400f71
  401384:	e000ed04 	.word	0xe000ed04
  401388:	00400c41 	.word	0x00400c41
  40138c:	00401f91 	.word	0x00401f91
  401390:	00401025 	.word	0x00401025
  401394:	00401cc9 	.word	0x00401cc9
  401398:	00401b59 	.word	0x00401b59
  40139c:	00402041 	.word	0x00402041
  4013a0:	00401f0d 	.word	0x00401f0d
  4013a4:	00400bf5 	.word	0x00400bf5
  4013a8:	00402029 	.word	0x00402029

004013ac <xQueueGenericSendFromISR>:
{
  4013ac:	e92d 43f8 	stmdb	sp!, {r3, r4, r5, r6, r7, r8, r9, lr}
	configASSERT( pxQueue );
  4013b0:	2800      	cmp	r0, #0
  4013b2:	d039      	beq.n	401428 <xQueueGenericSendFromISR+0x7c>
  4013b4:	4604      	mov	r4, r0
	configASSERT( !( ( pvItemToQueue == NULL ) && ( pxQueue->uxItemSize != ( UBaseType_t ) 0U ) ) );
  4013b6:	2900      	cmp	r1, #0
  4013b8:	d041      	beq.n	40143e <xQueueGenericSendFromISR+0x92>
	configASSERT( !( ( xCopyPosition == queueOVERWRITE ) && ( pxQueue->uxLength != 1 ) ) );
  4013ba:	2b02      	cmp	r3, #2
  4013bc:	d04d      	beq.n	40145a <xQueueGenericSendFromISR+0xae>
  4013be:	461f      	mov	r7, r3
  4013c0:	4690      	mov	r8, r2
  4013c2:	4689      	mov	r9, r1
	portASSERT_IF_INTERRUPT_PRIORITY_INVALID();
  4013c4:	4b3a      	ldr	r3, [pc, #232]	; (4014b0 <xQueueGenericSendFromISR+0x104>)
  4013c6:	4798      	blx	r3
	__asm volatile
  4013c8:	f3ef 8611 	mrs	r6, BASEPRI
  4013cc:	f04f 0380 	mov.w	r3, #128	; 0x80
  4013d0:	b672      	cpsid	i
  4013d2:	f383 8811 	msr	BASEPRI, r3
  4013d6:	f3bf 8f6f 	isb	sy
  4013da:	f3bf 8f4f 	dsb	sy
  4013de:	b662      	cpsie	i
		if( ( pxQueue->uxMessagesWaiting < pxQueue->uxLength ) || ( xCopyPosition == queueOVERWRITE ) )
  4013e0:	6ba2      	ldr	r2, [r4, #56]	; 0x38
  4013e2:	6be3      	ldr	r3, [r4, #60]	; 0x3c
  4013e4:	429a      	cmp	r2, r3
  4013e6:	d301      	bcc.n	4013ec <xQueueGenericSendFromISR+0x40>
  4013e8:	2f02      	cmp	r7, #2
  4013ea:	d158      	bne.n	40149e <xQueueGenericSendFromISR+0xf2>
			const int8_t cTxLock = pxQueue->cTxLock;
  4013ec:	f894 5045 	ldrb.w	r5, [r4, #69]	; 0x45
  4013f0:	b26d      	sxtb	r5, r5
			( void ) prvCopyDataToQueue( pxQueue, pvItemToQueue, xCopyPosition );
  4013f2:	463a      	mov	r2, r7
  4013f4:	4649      	mov	r1, r9
  4013f6:	4620      	mov	r0, r4
  4013f8:	4b2e      	ldr	r3, [pc, #184]	; (4014b4 <xQueueGenericSendFromISR+0x108>)
  4013fa:	4798      	blx	r3
			if( cTxLock == queueUNLOCKED )
  4013fc:	f1b5 3fff 	cmp.w	r5, #4294967295
  401400:	d147      	bne.n	401492 <xQueueGenericSendFromISR+0xe6>
					if( pxQueue->pxQueueSetContainer != NULL )
  401402:	6ca3      	ldr	r3, [r4, #72]	; 0x48
  401404:	2b00      	cmp	r3, #0
  401406:	d036      	beq.n	401476 <xQueueGenericSendFromISR+0xca>
						if( prvNotifyQueueSetContainer( pxQueue, xCopyPosition ) != pdFALSE )
  401408:	4639      	mov	r1, r7
  40140a:	4620      	mov	r0, r4
  40140c:	4b2a      	ldr	r3, [pc, #168]	; (4014b8 <xQueueGenericSendFromISR+0x10c>)
  40140e:	4798      	blx	r3
							if( pxHigherPriorityTaskWoken != NULL )
  401410:	f1b8 0f00 	cmp.w	r8, #0
  401414:	d045      	beq.n	4014a2 <xQueueGenericSendFromISR+0xf6>
  401416:	2800      	cmp	r0, #0
  401418:	d043      	beq.n	4014a2 <xQueueGenericSendFromISR+0xf6>
								*pxHigherPriorityTaskWoken = pdTRUE;
  40141a:	2001      	movs	r0, #1
  40141c:	f8c8 0000 	str.w	r0, [r8]
	__asm volatile
  401420:	f386 8811 	msr	BASEPRI, r6
}
  401424:	e8bd 83f8 	ldmia.w	sp!, {r3, r4, r5, r6, r7, r8, r9, pc}
	__asm volatile
  401428:	f04f 0380 	mov.w	r3, #128	; 0x80
  40142c:	b672      	cpsid	i
  40142e:	f383 8811 	msr	BASEPRI, r3
  401432:	f3bf 8f6f 	isb	sy
  401436:	f3bf 8f4f 	dsb	sy
  40143a:	b662      	cpsie	i
  40143c:	e7fe      	b.n	40143c <xQueueGenericSendFromISR+0x90>
	configASSERT( !( ( pvItemToQueue == NULL ) && ( pxQueue->uxItemSize != ( UBaseType_t ) 0U ) ) );
  40143e:	6c00      	ldr	r0, [r0, #64]	; 0x40
  401440:	2800      	cmp	r0, #0
  401442:	d0ba      	beq.n	4013ba <xQueueGenericSendFromISR+0xe>
  401444:	f04f 0380 	mov.w	r3, #128	; 0x80
  401448:	b672      	cpsid	i
  40144a:	f383 8811 	msr	BASEPRI, r3
  40144e:	f3bf 8f6f 	isb	sy
  401452:	f3bf 8f4f 	dsb	sy
  401456:	b662      	cpsie	i
  401458:	e7fe      	b.n	401458 <xQueueGenericSendFromISR+0xac>
	configASSERT( !( ( xCopyPosition == queueOVERWRITE ) && ( pxQueue->uxLength != 1 ) ) );
  40145a:	6be0      	ldr	r0, [r4, #60]	; 0x3c
  40145c:	2801      	cmp	r0, #1
  40145e:	d0ae      	beq.n	4013be <xQueueGenericSendFromISR+0x12>
  401460:	f04f 0380 	mov.w	r3, #128	; 0x80
  401464:	b672      	cpsid	i
  401466:	f383 8811 	msr	BASEPRI, r3
  40146a:	f3bf 8f6f 	isb	sy
  40146e:	f3bf 8f4f 	dsb	sy
  401472:	b662      	cpsie	i
  401474:	e7fe      	b.n	401474 <xQueueGenericSendFromISR+0xc8>
						if( listLIST_IS_EMPTY( &( pxQueue->xTasksWaitingToReceive ) ) == pdFALSE )
  401476:	6a63      	ldr	r3, [r4, #36]	; 0x24
  401478:	b1ab      	cbz	r3, 4014a6 <xQueueGenericSendFromISR+0xfa>
							if( xTaskRemoveFromEventList( &( pxQueue->xTasksWaitingToReceive ) ) != pdFALSE )
  40147a:	f104 0024 	add.w	r0, r4, #36	; 0x24
  40147e:	4b0f      	ldr	r3, [pc, #60]	; (4014bc <xQueueGenericSendFromISR+0x110>)
  401480:	4798      	blx	r3
								if( pxHigherPriorityTaskWoken != NULL )
  401482:	f1b8 0f00 	cmp.w	r8, #0
  401486:	d010      	beq.n	4014aa <xQueueGenericSendFromISR+0xfe>
  401488:	b178      	cbz	r0, 4014aa <xQueueGenericSendFromISR+0xfe>
									*pxHigherPriorityTaskWoken = pdTRUE;
  40148a:	2001      	movs	r0, #1
  40148c:	f8c8 0000 	str.w	r0, [r8]
  401490:	e7c6      	b.n	401420 <xQueueGenericSendFromISR+0x74>
				pxQueue->cTxLock = ( int8_t ) ( cTxLock + 1 );
  401492:	1c6b      	adds	r3, r5, #1
  401494:	b25b      	sxtb	r3, r3
  401496:	f884 3045 	strb.w	r3, [r4, #69]	; 0x45
			xReturn = pdPASS;
  40149a:	2001      	movs	r0, #1
  40149c:	e7c0      	b.n	401420 <xQueueGenericSendFromISR+0x74>
			xReturn = errQUEUE_FULL;
  40149e:	2000      	movs	r0, #0
  4014a0:	e7be      	b.n	401420 <xQueueGenericSendFromISR+0x74>
			xReturn = pdPASS;
  4014a2:	2001      	movs	r0, #1
  4014a4:	e7bc      	b.n	401420 <xQueueGenericSendFromISR+0x74>
  4014a6:	2001      	movs	r0, #1
  4014a8:	e7ba      	b.n	401420 <xQueueGenericSendFromISR+0x74>
  4014aa:	2001      	movs	r0, #1
  4014ac:	e7b8      	b.n	401420 <xQueueGenericSendFromISR+0x74>
  4014ae:	bf00      	nop
  4014b0:	00400e1d 	.word	0x00400e1d
  4014b4:	00400ef5 	.word	0x00400ef5
  4014b8:	00400f71 	.word	0x00400f71
  4014bc:	00401f91 	.word	0x00401f91

004014c0 <xQueueReceive>:
{
  4014c0:	e92d 47f0 	stmdb	sp!, {r4, r5, r6, r7, r8, r9, sl, lr}
  4014c4:	b084      	sub	sp, #16
  4014c6:	9201      	str	r2, [sp, #4]
	configASSERT( ( pxQueue ) );
  4014c8:	b190      	cbz	r0, 4014f0 <xQueueReceive+0x30>
  4014ca:	4604      	mov	r4, r0
	configASSERT( !( ( ( pvBuffer ) == NULL ) && ( ( pxQueue )->uxItemSize != ( UBaseType_t ) 0U ) ) );
  4014cc:	b1d9      	cbz	r1, 401506 <xQueueReceive+0x46>
  4014ce:	460e      	mov	r6, r1
		configASSERT( !( ( xTaskGetSchedulerState() == taskSCHEDULER_SUSPENDED ) && ( xTicksToWait != 0 ) ) );
  4014d0:	4b54      	ldr	r3, [pc, #336]	; (401624 <xQueueReceive+0x164>)
  4014d2:	4798      	blx	r3
  4014d4:	bb28      	cbnz	r0, 401522 <xQueueReceive+0x62>
  4014d6:	9b01      	ldr	r3, [sp, #4]
  4014d8:	b35b      	cbz	r3, 401532 <xQueueReceive+0x72>
  4014da:	f04f 0380 	mov.w	r3, #128	; 0x80
  4014de:	b672      	cpsid	i
  4014e0:	f383 8811 	msr	BASEPRI, r3
  4014e4:	f3bf 8f6f 	isb	sy
  4014e8:	f3bf 8f4f 	dsb	sy
  4014ec:	b662      	cpsie	i
  4014ee:	e7fe      	b.n	4014ee <xQueueReceive+0x2e>
  4014f0:	f04f 0380 	mov.w	r3, #128	; 0x80
  4014f4:	b672      	cpsid	i
  4014f6:	f383 8811 	msr	BASEPRI, r3
  4014fa:	f3bf 8f6f 	isb	sy
  4014fe:	f3bf 8f4f 	dsb	sy
  401502:	b662      	cpsie	i
  401504:	e7fe      	b.n	401504 <xQueueReceive+0x44>
	configASSERT( !( ( ( pvBuffer ) == NULL ) && ( ( pxQueue )->uxItemSize != ( UBaseType_t ) 0U ) ) );
  401506:	6c03      	ldr	r3, [r0, #64]	; 0x40
  401508:	2b00      	cmp	r3, #0
  40150a:	d0e0      	beq.n	4014ce <xQueueReceive+0xe>
  40150c:	f04f 0380 	mov.w	r3, #128	; 0x80
  401510:	b672      	cpsid	i
  401512:	f383 8811 	msr	BASEPRI, r3
  401516:	f3bf 8f6f 	isb	sy
  40151a:	f3bf 8f4f 	dsb	sy
  40151e:	b662      	cpsie	i
  401520:	e7fe      	b.n	401520 <xQueueReceive+0x60>
  401522:	2700      	movs	r7, #0
		taskENTER_CRITICAL();
  401524:	f8df 8128 	ldr.w	r8, [pc, #296]	; 401650 <xQueueReceive+0x190>
					vTaskInternalSetTimeOutState( &xTimeOut );
  401528:	f8df a128 	ldr.w	sl, [pc, #296]	; 401654 <xQueueReceive+0x194>
					portYIELD_WITHIN_API();
  40152c:	f8df 9100 	ldr.w	r9, [pc, #256]	; 401630 <xQueueReceive+0x170>
  401530:	e031      	b.n	401596 <xQueueReceive+0xd6>
  401532:	2700      	movs	r7, #0
  401534:	e7f6      	b.n	401524 <xQueueReceive+0x64>
				prvCopyDataFromQueue( pxQueue, pvBuffer );
  401536:	4631      	mov	r1, r6
  401538:	4620      	mov	r0, r4
  40153a:	4b3b      	ldr	r3, [pc, #236]	; (401628 <xQueueReceive+0x168>)
  40153c:	4798      	blx	r3
				pxQueue->uxMessagesWaiting = uxMessagesWaiting - ( UBaseType_t ) 1;
  40153e:	3d01      	subs	r5, #1
  401540:	63a5      	str	r5, [r4, #56]	; 0x38
				if( listLIST_IS_EMPTY( &( pxQueue->xTasksWaitingToSend ) ) == pdFALSE )
  401542:	6923      	ldr	r3, [r4, #16]
  401544:	b163      	cbz	r3, 401560 <xQueueReceive+0xa0>
					if( xTaskRemoveFromEventList( &( pxQueue->xTasksWaitingToSend ) ) != pdFALSE )
  401546:	f104 0010 	add.w	r0, r4, #16
  40154a:	4b38      	ldr	r3, [pc, #224]	; (40162c <xQueueReceive+0x16c>)
  40154c:	4798      	blx	r3
  40154e:	b138      	cbz	r0, 401560 <xQueueReceive+0xa0>
						queueYIELD_IF_USING_PREEMPTION();
  401550:	f04f 5280 	mov.w	r2, #268435456	; 0x10000000
  401554:	4b36      	ldr	r3, [pc, #216]	; (401630 <xQueueReceive+0x170>)
  401556:	601a      	str	r2, [r3, #0]
  401558:	f3bf 8f4f 	dsb	sy
  40155c:	f3bf 8f6f 	isb	sy
				taskEXIT_CRITICAL();
  401560:	4b34      	ldr	r3, [pc, #208]	; (401634 <xQueueReceive+0x174>)
  401562:	4798      	blx	r3
				return pdPASS;
  401564:	2001      	movs	r0, #1
}
  401566:	b004      	add	sp, #16
  401568:	e8bd 87f0 	ldmia.w	sp!, {r4, r5, r6, r7, r8, r9, sl, pc}
					taskEXIT_CRITICAL();
  40156c:	4b31      	ldr	r3, [pc, #196]	; (401634 <xQueueReceive+0x174>)
  40156e:	4798      	blx	r3
					return errQUEUE_EMPTY;
  401570:	2000      	movs	r0, #0
  401572:	e7f8      	b.n	401566 <xQueueReceive+0xa6>
					vTaskInternalSetTimeOutState( &xTimeOut );
  401574:	a802      	add	r0, sp, #8
  401576:	47d0      	blx	sl
  401578:	e016      	b.n	4015a8 <xQueueReceive+0xe8>
		prvLockQueue( pxQueue );
  40157a:	2300      	movs	r3, #0
  40157c:	f884 3044 	strb.w	r3, [r4, #68]	; 0x44
  401580:	e01d      	b.n	4015be <xQueueReceive+0xfe>
  401582:	2300      	movs	r3, #0
  401584:	f884 3045 	strb.w	r3, [r4, #69]	; 0x45
  401588:	e01f      	b.n	4015ca <xQueueReceive+0x10a>
				prvUnlockQueue( pxQueue );
  40158a:	4620      	mov	r0, r4
  40158c:	4b2a      	ldr	r3, [pc, #168]	; (401638 <xQueueReceive+0x178>)
  40158e:	4798      	blx	r3
				( void ) xTaskResumeAll();
  401590:	4b2a      	ldr	r3, [pc, #168]	; (40163c <xQueueReceive+0x17c>)
  401592:	4798      	blx	r3
  401594:	2701      	movs	r7, #1
		taskENTER_CRITICAL();
  401596:	47c0      	blx	r8
			const UBaseType_t uxMessagesWaiting = pxQueue->uxMessagesWaiting;
  401598:	6ba5      	ldr	r5, [r4, #56]	; 0x38
			if( uxMessagesWaiting > ( UBaseType_t ) 0 )
  40159a:	2d00      	cmp	r5, #0
  40159c:	d1cb      	bne.n	401536 <xQueueReceive+0x76>
				if( xTicksToWait == ( TickType_t ) 0 )
  40159e:	9b01      	ldr	r3, [sp, #4]
  4015a0:	2b00      	cmp	r3, #0
  4015a2:	d0e3      	beq.n	40156c <xQueueReceive+0xac>
				else if( xEntryTimeSet == pdFALSE )
  4015a4:	2f00      	cmp	r7, #0
  4015a6:	d0e5      	beq.n	401574 <xQueueReceive+0xb4>
		taskEXIT_CRITICAL();
  4015a8:	4b22      	ldr	r3, [pc, #136]	; (401634 <xQueueReceive+0x174>)
  4015aa:	4798      	blx	r3
		vTaskSuspendAll();
  4015ac:	4b24      	ldr	r3, [pc, #144]	; (401640 <xQueueReceive+0x180>)
  4015ae:	4798      	blx	r3
		prvLockQueue( pxQueue );
  4015b0:	47c0      	blx	r8
  4015b2:	f894 3044 	ldrb.w	r3, [r4, #68]	; 0x44
  4015b6:	b25b      	sxtb	r3, r3
  4015b8:	f1b3 3fff 	cmp.w	r3, #4294967295
  4015bc:	d0dd      	beq.n	40157a <xQueueReceive+0xba>
  4015be:	f894 3045 	ldrb.w	r3, [r4, #69]	; 0x45
  4015c2:	b25b      	sxtb	r3, r3
  4015c4:	f1b3 3fff 	cmp.w	r3, #4294967295
  4015c8:	d0db      	beq.n	401582 <xQueueReceive+0xc2>
  4015ca:	4b1a      	ldr	r3, [pc, #104]	; (401634 <xQueueReceive+0x174>)
  4015cc:	4798      	blx	r3
		if( xTaskCheckForTimeOut( &xTimeOut, &xTicksToWait ) == pdFALSE )
  4015ce:	a901      	add	r1, sp, #4
  4015d0:	a802      	add	r0, sp, #8
  4015d2:	4b1c      	ldr	r3, [pc, #112]	; (401644 <xQueueReceive+0x184>)
  4015d4:	4798      	blx	r3
  4015d6:	b9c8      	cbnz	r0, 40160c <xQueueReceive+0x14c>
			if( prvIsQueueEmpty( pxQueue ) != pdFALSE )
  4015d8:	4620      	mov	r0, r4
  4015da:	4b1b      	ldr	r3, [pc, #108]	; (401648 <xQueueReceive+0x188>)
  4015dc:	4798      	blx	r3
  4015de:	2800      	cmp	r0, #0
  4015e0:	d0d3      	beq.n	40158a <xQueueReceive+0xca>
				vTaskPlaceOnEventList( &( pxQueue->xTasksWaitingToReceive ), xTicksToWait );
  4015e2:	9901      	ldr	r1, [sp, #4]
  4015e4:	f104 0024 	add.w	r0, r4, #36	; 0x24
  4015e8:	4b18      	ldr	r3, [pc, #96]	; (40164c <xQueueReceive+0x18c>)
  4015ea:	4798      	blx	r3
				prvUnlockQueue( pxQueue );
  4015ec:	4620      	mov	r0, r4
  4015ee:	4b12      	ldr	r3, [pc, #72]	; (401638 <xQueueReceive+0x178>)
  4015f0:	4798      	blx	r3
				if( xTaskResumeAll() == pdFALSE )
  4015f2:	4b12      	ldr	r3, [pc, #72]	; (40163c <xQueueReceive+0x17c>)
  4015f4:	4798      	blx	r3
  4015f6:	2800      	cmp	r0, #0
  4015f8:	d1cc      	bne.n	401594 <xQueueReceive+0xd4>
					portYIELD_WITHIN_API();
  4015fa:	f04f 5380 	mov.w	r3, #268435456	; 0x10000000
  4015fe:	f8c9 3000 	str.w	r3, [r9]
  401602:	f3bf 8f4f 	dsb	sy
  401606:	f3bf 8f6f 	isb	sy
  40160a:	e7c3      	b.n	401594 <xQueueReceive+0xd4>
			prvUnlockQueue( pxQueue );
  40160c:	4620      	mov	r0, r4
  40160e:	4b0a      	ldr	r3, [pc, #40]	; (401638 <xQueueReceive+0x178>)
  401610:	4798      	blx	r3
			( void ) xTaskResumeAll();
  401612:	4b0a      	ldr	r3, [pc, #40]	; (40163c <xQueueReceive+0x17c>)
  401614:	4798      	blx	r3
			if( prvIsQueueEmpty( pxQueue ) != pdFALSE )
  401616:	4620      	mov	r0, r4
  401618:	4b0b      	ldr	r3, [pc, #44]	; (401648 <xQueueReceive+0x188>)
  40161a:	4798      	blx	r3
  40161c:	2800      	cmp	r0, #0
  40161e:	d0b9      	beq.n	401594 <xQueueReceive+0xd4>
				return errQUEUE_EMPTY;
  401620:	2000      	movs	r0, #0
  401622:	e7a0      	b.n	401566 <xQueueReceive+0xa6>
  401624:	004022a5 	.word	0x004022a5
  401628:	00400ffd 	.word	0x00400ffd
  40162c:	00401f91 	.word	0x00401f91
  401630:	e000ed04 	.word	0xe000ed04
  401634:	00400c41 	.word	0x00400c41
  401638:	00401025 	.word	0x00401025
  40163c:	00401cc9 	.word	0x00401cc9
  401640:	00401b59 	.word	0x00401b59
  401644:	00402041 	.word	0x00402041
  401648:	00400ed5 	.word	0x00400ed5
  40164c:	00401f0d 	.word	0x00401f0d
  401650:	00400bf5 	.word	0x00400bf5
  401654:	00402029 	.word	0x00402029

00401658 <vQueueAddToRegistry>:
	{
  401658:	b410      	push	{r4}
			if( xQueueRegistry[ ux ].pcQueueName == NULL )
  40165a:	4b0b      	ldr	r3, [pc, #44]	; (401688 <vQueueAddToRegistry+0x30>)
  40165c:	681b      	ldr	r3, [r3, #0]
  40165e:	b153      	cbz	r3, 401676 <vQueueAddToRegistry+0x1e>
  401660:	2301      	movs	r3, #1
  401662:	4c09      	ldr	r4, [pc, #36]	; (401688 <vQueueAddToRegistry+0x30>)
  401664:	f854 2033 	ldr.w	r2, [r4, r3, lsl #3]
  401668:	b132      	cbz	r2, 401678 <vQueueAddToRegistry+0x20>
		for( ux = ( UBaseType_t ) 0U; ux < ( UBaseType_t ) configQUEUE_REGISTRY_SIZE; ux++ )
  40166a:	3301      	adds	r3, #1
  40166c:	2b08      	cmp	r3, #8
  40166e:	d1f9      	bne.n	401664 <vQueueAddToRegistry+0xc>
	}
  401670:	f85d 4b04 	ldr.w	r4, [sp], #4
  401674:	4770      	bx	lr
		for( ux = ( UBaseType_t ) 0U; ux < ( UBaseType_t ) configQUEUE_REGISTRY_SIZE; ux++ )
  401676:	2300      	movs	r3, #0
				xQueueRegistry[ ux ].pcQueueName = pcQueueName;
  401678:	4a03      	ldr	r2, [pc, #12]	; (401688 <vQueueAddToRegistry+0x30>)
  40167a:	f842 1033 	str.w	r1, [r2, r3, lsl #3]
				xQueueRegistry[ ux ].xHandle = xQueue;
  40167e:	eb02 03c3 	add.w	r3, r2, r3, lsl #3
  401682:	6058      	str	r0, [r3, #4]
				break;
  401684:	e7f4      	b.n	401670 <vQueueAddToRegistry+0x18>
  401686:	bf00      	nop
  401688:	20400cd4 	.word	0x20400cd4

0040168c <vQueueWaitForMessageRestricted>:
	{
  40168c:	b570      	push	{r4, r5, r6, lr}
  40168e:	4604      	mov	r4, r0
  401690:	460d      	mov	r5, r1
  401692:	4616      	mov	r6, r2
		prvLockQueue( pxQueue );
  401694:	4b12      	ldr	r3, [pc, #72]	; (4016e0 <vQueueWaitForMessageRestricted+0x54>)
  401696:	4798      	blx	r3
  401698:	f894 3044 	ldrb.w	r3, [r4, #68]	; 0x44
  40169c:	b25b      	sxtb	r3, r3
  40169e:	f1b3 3fff 	cmp.w	r3, #4294967295
  4016a2:	d00d      	beq.n	4016c0 <vQueueWaitForMessageRestricted+0x34>
  4016a4:	f894 3045 	ldrb.w	r3, [r4, #69]	; 0x45
  4016a8:	b25b      	sxtb	r3, r3
  4016aa:	f1b3 3fff 	cmp.w	r3, #4294967295
  4016ae:	d00b      	beq.n	4016c8 <vQueueWaitForMessageRestricted+0x3c>
  4016b0:	4b0c      	ldr	r3, [pc, #48]	; (4016e4 <vQueueWaitForMessageRestricted+0x58>)
  4016b2:	4798      	blx	r3
		if( pxQueue->uxMessagesWaiting == ( UBaseType_t ) 0U )
  4016b4:	6ba3      	ldr	r3, [r4, #56]	; 0x38
  4016b6:	b15b      	cbz	r3, 4016d0 <vQueueWaitForMessageRestricted+0x44>
		prvUnlockQueue( pxQueue );
  4016b8:	4620      	mov	r0, r4
  4016ba:	4b0b      	ldr	r3, [pc, #44]	; (4016e8 <vQueueWaitForMessageRestricted+0x5c>)
  4016bc:	4798      	blx	r3
  4016be:	bd70      	pop	{r4, r5, r6, pc}
		prvLockQueue( pxQueue );
  4016c0:	2300      	movs	r3, #0
  4016c2:	f884 3044 	strb.w	r3, [r4, #68]	; 0x44
  4016c6:	e7ed      	b.n	4016a4 <vQueueWaitForMessageRestricted+0x18>
  4016c8:	2300      	movs	r3, #0
  4016ca:	f884 3045 	strb.w	r3, [r4, #69]	; 0x45
  4016ce:	e7ef      	b.n	4016b0 <vQueueWaitForMessageRestricted+0x24>
			vTaskPlaceOnEventListRestricted( &( pxQueue->xTasksWaitingToReceive ), xTicksToWait, xWaitIndefinitely );
  4016d0:	4632      	mov	r2, r6
  4016d2:	4629      	mov	r1, r5
  4016d4:	f104 0024 	add.w	r0, r4, #36	; 0x24
  4016d8:	4b04      	ldr	r3, [pc, #16]	; (4016ec <vQueueWaitForMessageRestricted+0x60>)
  4016da:	4798      	blx	r3
  4016dc:	e7ec      	b.n	4016b8 <vQueueWaitForMessageRestricted+0x2c>
  4016de:	bf00      	nop
  4016e0:	00400bf5 	.word	0x00400bf5
  4016e4:	00400c41 	.word	0x00400c41
  4016e8:	00401025 	.word	0x00401025
  4016ec:	00401f49 	.word	0x00401f49

004016f0 <prvResetNextTaskUnblockTime>:

static void prvResetNextTaskUnblockTime( void )
{
TCB_t *pxTCB;

	if( listLIST_IS_EMPTY( pxDelayedTaskList ) != pdFALSE )
  4016f0:	4b08      	ldr	r3, [pc, #32]	; (401714 <prvResetNextTaskUnblockTime+0x24>)
  4016f2:	681b      	ldr	r3, [r3, #0]
  4016f4:	681b      	ldr	r3, [r3, #0]
  4016f6:	b13b      	cbz	r3, 401708 <prvResetNextTaskUnblockTime+0x18>
	{
		/* The new current delayed list is not empty, get the value of
		the item at the head of the delayed list.  This is the time at
		which the task at the head of the delayed list should be removed
		from the Blocked state. */
		( pxTCB ) = ( TCB_t * ) listGET_OWNER_OF_HEAD_ENTRY( pxDelayedTaskList );
  4016f8:	4b06      	ldr	r3, [pc, #24]	; (401714 <prvResetNextTaskUnblockTime+0x24>)
  4016fa:	681b      	ldr	r3, [r3, #0]
  4016fc:	68db      	ldr	r3, [r3, #12]
		xNextTaskUnblockTime = listGET_LIST_ITEM_VALUE( &( ( pxTCB )->xStateListItem ) );
  4016fe:	68db      	ldr	r3, [r3, #12]
  401700:	685a      	ldr	r2, [r3, #4]
  401702:	4b05      	ldr	r3, [pc, #20]	; (401718 <prvResetNextTaskUnblockTime+0x28>)
  401704:	601a      	str	r2, [r3, #0]
  401706:	4770      	bx	lr
		xNextTaskUnblockTime = portMAX_DELAY;
  401708:	f04f 32ff 	mov.w	r2, #4294967295
  40170c:	4b02      	ldr	r3, [pc, #8]	; (401718 <prvResetNextTaskUnblockTime+0x28>)
  40170e:	601a      	str	r2, [r3, #0]
  401710:	4770      	bx	lr
  401712:	bf00      	nop
  401714:	20400a58 	.word	0x20400a58
  401718:	20400b08 	.word	0x20400b08

0040171c <prvAddCurrentTaskToDelayedList>:
#endif /* configUSE_TASK_NOTIFICATIONS */
/*-----------------------------------------------------------*/


static void prvAddCurrentTaskToDelayedList( TickType_t xTicksToWait, const BaseType_t xCanBlockIndefinitely )
{
  40171c:	b570      	push	{r4, r5, r6, lr}
  40171e:	4604      	mov	r4, r0
  401720:	460e      	mov	r6, r1
TickType_t xTimeToWake;
const TickType_t xConstTickCount = xTickCount;
  401722:	4b1c      	ldr	r3, [pc, #112]	; (401794 <prvAddCurrentTaskToDelayedList+0x78>)
  401724:	681d      	ldr	r5, [r3, #0]
	}
	#endif

	/* Remove the task from the ready list before adding it to the blocked list
	as the same list item is used for both lists. */
	if( uxListRemove( &( pxCurrentTCB->xStateListItem ) ) == ( UBaseType_t ) 0 )
  401726:	4b1c      	ldr	r3, [pc, #112]	; (401798 <prvAddCurrentTaskToDelayedList+0x7c>)
  401728:	6818      	ldr	r0, [r3, #0]
  40172a:	3004      	adds	r0, #4
  40172c:	4b1b      	ldr	r3, [pc, #108]	; (40179c <prvAddCurrentTaskToDelayedList+0x80>)
  40172e:	4798      	blx	r3
  401730:	b948      	cbnz	r0, 401746 <prvAddCurrentTaskToDelayedList+0x2a>
	{
		/* The current task must be in a ready list, so there is no need to
		check, and the port reset macro can be called directly. */
		portRESET_READY_PRIORITY( pxCurrentTCB->uxPriority, uxTopReadyPriority );
  401732:	4b19      	ldr	r3, [pc, #100]	; (401798 <prvAddCurrentTaskToDelayedList+0x7c>)
  401734:	681a      	ldr	r2, [r3, #0]
  401736:	491a      	ldr	r1, [pc, #104]	; (4017a0 <prvAddCurrentTaskToDelayedList+0x84>)
  401738:	680b      	ldr	r3, [r1, #0]
  40173a:	6ad0      	ldr	r0, [r2, #44]	; 0x2c
  40173c:	2201      	movs	r2, #1
  40173e:	4082      	lsls	r2, r0
  401740:	ea23 0302 	bic.w	r3, r3, r2
  401744:	600b      	str	r3, [r1, #0]
		mtCOVERAGE_TEST_MARKER();
	}

	#if ( INCLUDE_vTaskSuspend == 1 )
	{
		if( ( xTicksToWait == portMAX_DELAY ) && ( xCanBlockIndefinitely != pdFALSE ) )
  401746:	f1b4 3fff 	cmp.w	r4, #4294967295
  40174a:	d100      	bne.n	40174e <prvAddCurrentTaskToDelayedList+0x32>
  40174c:	b99e      	cbnz	r6, 401776 <prvAddCurrentTaskToDelayedList+0x5a>
		else
		{
			/* Calculate the time at which the task should be woken if the event
			does not occur.  This may overflow but this doesn't matter, the
			kernel will manage it correctly. */
			xTimeToWake = xConstTickCount + xTicksToWait;
  40174e:	442c      	add	r4, r5

			/* The list item will be inserted in wake time order. */
			listSET_LIST_ITEM_VALUE( &( pxCurrentTCB->xStateListItem ), xTimeToWake );
  401750:	4b11      	ldr	r3, [pc, #68]	; (401798 <prvAddCurrentTaskToDelayedList+0x7c>)
  401752:	681b      	ldr	r3, [r3, #0]
  401754:	605c      	str	r4, [r3, #4]

			if( xTimeToWake < xConstTickCount )
  401756:	42a5      	cmp	r5, r4
  401758:	d814      	bhi.n	401784 <prvAddCurrentTaskToDelayedList+0x68>
			}
			else
			{
				/* The wake time has not overflowed, so the current block list
				is used. */
				vListInsert( pxDelayedTaskList, &( pxCurrentTCB->xStateListItem ) );
  40175a:	4b12      	ldr	r3, [pc, #72]	; (4017a4 <prvAddCurrentTaskToDelayedList+0x88>)
  40175c:	6818      	ldr	r0, [r3, #0]
  40175e:	4b0e      	ldr	r3, [pc, #56]	; (401798 <prvAddCurrentTaskToDelayedList+0x7c>)
  401760:	6819      	ldr	r1, [r3, #0]
  401762:	3104      	adds	r1, #4
  401764:	4b10      	ldr	r3, [pc, #64]	; (4017a8 <prvAddCurrentTaskToDelayedList+0x8c>)
  401766:	4798      	blx	r3

				/* If the task entering the blocked state was placed at the
				head of the list of blocked tasks then xNextTaskUnblockTime
				needs to be updated too. */
				if( xTimeToWake < xNextTaskUnblockTime )
  401768:	4b10      	ldr	r3, [pc, #64]	; (4017ac <prvAddCurrentTaskToDelayedList+0x90>)
  40176a:	681b      	ldr	r3, [r3, #0]
  40176c:	429c      	cmp	r4, r3
  40176e:	d201      	bcs.n	401774 <prvAddCurrentTaskToDelayedList+0x58>
				{
					xNextTaskUnblockTime = xTimeToWake;
  401770:	4b0e      	ldr	r3, [pc, #56]	; (4017ac <prvAddCurrentTaskToDelayedList+0x90>)
  401772:	601c      	str	r4, [r3, #0]
  401774:	bd70      	pop	{r4, r5, r6, pc}
			vListInsertEnd( &xSuspendedTaskList, &( pxCurrentTCB->xStateListItem ) );
  401776:	4b08      	ldr	r3, [pc, #32]	; (401798 <prvAddCurrentTaskToDelayedList+0x7c>)
  401778:	6819      	ldr	r1, [r3, #0]
  40177a:	3104      	adds	r1, #4
  40177c:	480c      	ldr	r0, [pc, #48]	; (4017b0 <prvAddCurrentTaskToDelayedList+0x94>)
  40177e:	4b0d      	ldr	r3, [pc, #52]	; (4017b4 <prvAddCurrentTaskToDelayedList+0x98>)
  401780:	4798      	blx	r3
  401782:	bd70      	pop	{r4, r5, r6, pc}
				vListInsert( pxOverflowDelayedTaskList, &( pxCurrentTCB->xStateListItem ) );
  401784:	4b0c      	ldr	r3, [pc, #48]	; (4017b8 <prvAddCurrentTaskToDelayedList+0x9c>)
  401786:	6818      	ldr	r0, [r3, #0]
  401788:	4b03      	ldr	r3, [pc, #12]	; (401798 <prvAddCurrentTaskToDelayedList+0x7c>)
  40178a:	6819      	ldr	r1, [r3, #0]
  40178c:	3104      	adds	r1, #4
  40178e:	4b06      	ldr	r3, [pc, #24]	; (4017a8 <prvAddCurrentTaskToDelayedList+0x8c>)
  401790:	4798      	blx	r3
  401792:	bd70      	pop	{r4, r5, r6, pc}
  401794:	20400b50 	.word	0x20400b50
  401798:	20400a54 	.word	0x20400a54
  40179c:	00400aed 	.word	0x00400aed
  4017a0:	20400ad8 	.word	0x20400ad8
  4017a4:	20400a58 	.word	0x20400a58
  4017a8:	00400ab9 	.word	0x00400ab9
  4017ac:	20400b08 	.word	0x20400b08
  4017b0:	20400b28 	.word	0x20400b28
  4017b4:	00400aa1 	.word	0x00400aa1
  4017b8:	20400a5c 	.word	0x20400a5c

004017bc <prvIdleTask>:
{
  4017bc:	b580      	push	{r7, lr}
		while( uxDeletedTasksWaitingCleanUp > ( UBaseType_t ) 0U )
  4017be:	4d18      	ldr	r5, [pc, #96]	; (401820 <prvIdleTask+0x64>)
			taskENTER_CRITICAL();
  4017c0:	f8df 8078 	ldr.w	r8, [pc, #120]	; 40183c <prvIdleTask+0x80>
				taskYIELD();
  4017c4:	f8df 9078 	ldr.w	r9, [pc, #120]	; 401840 <prvIdleTask+0x84>
  4017c8:	e001      	b.n	4017ce <prvIdleTask+0x12>
			vApplicationIdleHook();
  4017ca:	4b16      	ldr	r3, [pc, #88]	; (401824 <prvIdleTask+0x68>)
  4017cc:	4798      	blx	r3
		while( uxDeletedTasksWaitingCleanUp > ( UBaseType_t ) 0U )
  4017ce:	682b      	ldr	r3, [r5, #0]
  4017d0:	b1c3      	cbz	r3, 401804 <prvIdleTask+0x48>
				pxTCB = ( TCB_t * ) listGET_OWNER_OF_HEAD_ENTRY( ( &xTasksWaitingTermination ) );
  4017d2:	4f15      	ldr	r7, [pc, #84]	; (401828 <prvIdleTask+0x6c>)
				( void ) uxListRemove( &( pxTCB->xStateListItem ) );
  4017d4:	4e15      	ldr	r6, [pc, #84]	; (40182c <prvIdleTask+0x70>)
			taskENTER_CRITICAL();
  4017d6:	47c0      	blx	r8
				pxTCB = ( TCB_t * ) listGET_OWNER_OF_HEAD_ENTRY( ( &xTasksWaitingTermination ) );
  4017d8:	68fb      	ldr	r3, [r7, #12]
  4017da:	68dc      	ldr	r4, [r3, #12]
				( void ) uxListRemove( &( pxTCB->xStateListItem ) );
  4017dc:	1d20      	adds	r0, r4, #4
  4017de:	47b0      	blx	r6
				--uxCurrentNumberOfTasks;
  4017e0:	4a13      	ldr	r2, [pc, #76]	; (401830 <prvIdleTask+0x74>)
  4017e2:	6813      	ldr	r3, [r2, #0]
  4017e4:	3b01      	subs	r3, #1
  4017e6:	6013      	str	r3, [r2, #0]
				--uxDeletedTasksWaitingCleanUp;
  4017e8:	682b      	ldr	r3, [r5, #0]
  4017ea:	3b01      	subs	r3, #1
  4017ec:	602b      	str	r3, [r5, #0]
			taskEXIT_CRITICAL();
  4017ee:	4b11      	ldr	r3, [pc, #68]	; (401834 <prvIdleTask+0x78>)
  4017f0:	4798      	blx	r3
			vPortFree( pxTCB->pxStack );
  4017f2:	6b20      	ldr	r0, [r4, #48]	; 0x30
  4017f4:	f8df a04c 	ldr.w	sl, [pc, #76]	; 401844 <prvIdleTask+0x88>
  4017f8:	47d0      	blx	sl
			vPortFree( pxTCB );
  4017fa:	4620      	mov	r0, r4
  4017fc:	47d0      	blx	sl
		while( uxDeletedTasksWaitingCleanUp > ( UBaseType_t ) 0U )
  4017fe:	682b      	ldr	r3, [r5, #0]
  401800:	2b00      	cmp	r3, #0
  401802:	d1e8      	bne.n	4017d6 <prvIdleTask+0x1a>
			if( listCURRENT_LIST_LENGTH( &( pxReadyTasksLists[ tskIDLE_PRIORITY ] ) ) > ( UBaseType_t ) 1 )
  401804:	4b0c      	ldr	r3, [pc, #48]	; (401838 <prvIdleTask+0x7c>)
  401806:	681b      	ldr	r3, [r3, #0]
  401808:	2b01      	cmp	r3, #1
  40180a:	d9de      	bls.n	4017ca <prvIdleTask+0xe>
				taskYIELD();
  40180c:	f04f 5380 	mov.w	r3, #268435456	; 0x10000000
  401810:	f8c9 3000 	str.w	r3, [r9]
  401814:	f3bf 8f4f 	dsb	sy
  401818:	f3bf 8f6f 	isb	sy
  40181c:	e7d5      	b.n	4017ca <prvIdleTask+0xe>
  40181e:	bf00      	nop
  401820:	20400ac8 	.word	0x20400ac8
  401824:	00402afd 	.word	0x00402afd
  401828:	20400b3c 	.word	0x20400b3c
  40182c:	00400aed 	.word	0x00400aed
  401830:	20400ac4 	.word	0x20400ac4
  401834:	00400c41 	.word	0x00400c41
  401838:	20400a60 	.word	0x20400a60
  40183c:	00400bf5 	.word	0x00400bf5
  401840:	e000ed04 	.word	0xe000ed04
  401844:	00400eb1 	.word	0x00400eb1

00401848 <xTaskCreate>:
	{
  401848:	e92d 4ff0 	stmdb	sp!, {r4, r5, r6, r7, r8, r9, sl, fp, lr}
  40184c:	b083      	sub	sp, #12
  40184e:	4683      	mov	fp, r0
  401850:	460d      	mov	r5, r1
  401852:	9301      	str	r3, [sp, #4]
  401854:	f8dd a034 	ldr.w	sl, [sp, #52]	; 0x34
			pxStack = ( StackType_t * ) pvPortMalloc( ( ( ( size_t ) usStackDepth ) * sizeof( StackType_t ) ) ); /*lint !e961 MISRA exception as the casts are only redundant for some ports. */
  401858:	0096      	lsls	r6, r2, #2
  40185a:	4630      	mov	r0, r6
  40185c:	4b60      	ldr	r3, [pc, #384]	; (4019e0 <xTaskCreate+0x198>)
  40185e:	4798      	blx	r3
			if( pxStack != NULL )
  401860:	2800      	cmp	r0, #0
  401862:	f000 808d 	beq.w	401980 <xTaskCreate+0x138>
  401866:	4607      	mov	r7, r0
				pxNewTCB = ( TCB_t * ) pvPortMalloc( sizeof( TCB_t ) ); /*lint !e961 MISRA exception as the casts are only redundant for some paths. */
  401868:	2058      	movs	r0, #88	; 0x58
  40186a:	4b5d      	ldr	r3, [pc, #372]	; (4019e0 <xTaskCreate+0x198>)
  40186c:	4798      	blx	r3
				if( pxNewTCB != NULL )
  40186e:	4604      	mov	r4, r0
  401870:	2800      	cmp	r0, #0
  401872:	f000 8082 	beq.w	40197a <xTaskCreate+0x132>
					pxNewTCB->pxStack = pxStack;
  401876:	6307      	str	r7, [r0, #48]	; 0x30
		( void ) memset( pxNewTCB->pxStack, ( int ) tskSTACK_FILL_BYTE, ( size_t ) ulStackDepth * sizeof( StackType_t ) );
  401878:	4632      	mov	r2, r6
  40187a:	21a5      	movs	r1, #165	; 0xa5
  40187c:	4638      	mov	r0, r7
  40187e:	4b59      	ldr	r3, [pc, #356]	; (4019e4 <xTaskCreate+0x19c>)
  401880:	4798      	blx	r3
		pxTopOfStack = pxNewTCB->pxStack + ( ulStackDepth - ( uint32_t ) 1 );
  401882:	3e04      	subs	r6, #4
  401884:	6b23      	ldr	r3, [r4, #48]	; 0x30
  401886:	441e      	add	r6, r3
		pxTopOfStack = ( StackType_t * ) ( ( ( portPOINTER_SIZE_TYPE ) pxTopOfStack ) & ( ~( ( portPOINTER_SIZE_TYPE ) portBYTE_ALIGNMENT_MASK ) ) ); /*lint !e923 MISRA exception.  Avoiding casts between pointers and integers is not practical.  Size differences accounted for using portPOINTER_SIZE_TYPE type. */
  401888:	f026 0607 	bic.w	r6, r6, #7
		pxNewTCB->pcTaskName[ x ] = pcName[ x ];
  40188c:	782b      	ldrb	r3, [r5, #0]
  40188e:	f884 3034 	strb.w	r3, [r4, #52]	; 0x34
		if( pcName[ x ] == 0x00 )
  401892:	782b      	ldrb	r3, [r5, #0]
  401894:	b163      	cbz	r3, 4018b0 <xTaskCreate+0x68>
  401896:	462b      	mov	r3, r5
  401898:	f104 0234 	add.w	r2, r4, #52	; 0x34
  40189c:	f105 0109 	add.w	r1, r5, #9
		pxNewTCB->pcTaskName[ x ] = pcName[ x ];
  4018a0:	7858      	ldrb	r0, [r3, #1]
  4018a2:	f802 0f01 	strb.w	r0, [r2, #1]!
		if( pcName[ x ] == 0x00 )
  4018a6:	f813 0f01 	ldrb.w	r0, [r3, #1]!
  4018aa:	b108      	cbz	r0, 4018b0 <xTaskCreate+0x68>
	for( x = ( UBaseType_t ) 0; x < ( UBaseType_t ) configMAX_TASK_NAME_LEN; x++ )
  4018ac:	428b      	cmp	r3, r1
  4018ae:	d1f7      	bne.n	4018a0 <xTaskCreate+0x58>
	pxNewTCB->pcTaskName[ configMAX_TASK_NAME_LEN - 1 ] = '\0';
  4018b0:	2700      	movs	r7, #0
  4018b2:	f884 703d 	strb.w	r7, [r4, #61]	; 0x3d
  4018b6:	9d0c      	ldr	r5, [sp, #48]	; 0x30
  4018b8:	2d04      	cmp	r5, #4
  4018ba:	bf28      	it	cs
  4018bc:	2504      	movcs	r5, #4
	pxNewTCB->uxPriority = uxPriority;
  4018be:	62e5      	str	r5, [r4, #44]	; 0x2c
		pxNewTCB->uxBasePriority = uxPriority;
  4018c0:	64a5      	str	r5, [r4, #72]	; 0x48
		pxNewTCB->uxMutexesHeld = 0;
  4018c2:	64e7      	str	r7, [r4, #76]	; 0x4c
	vListInitialiseItem( &( pxNewTCB->xStateListItem ) );
  4018c4:	f104 0804 	add.w	r8, r4, #4
  4018c8:	4640      	mov	r0, r8
  4018ca:	f8df 916c 	ldr.w	r9, [pc, #364]	; 401a38 <xTaskCreate+0x1f0>
  4018ce:	47c8      	blx	r9
	vListInitialiseItem( &( pxNewTCB->xEventListItem ) );
  4018d0:	f104 0018 	add.w	r0, r4, #24
  4018d4:	47c8      	blx	r9
	listSET_LIST_ITEM_OWNER( &( pxNewTCB->xStateListItem ), pxNewTCB );
  4018d6:	6124      	str	r4, [r4, #16]
	listSET_LIST_ITEM_VALUE( &( pxNewTCB->xEventListItem ), ( TickType_t ) configMAX_PRIORITIES - ( TickType_t ) uxPriority ); /*lint !e961 MISRA exception as the casts are only redundant for some ports. */
  4018d8:	f1c5 0505 	rsb	r5, r5, #5
  4018dc:	61a5      	str	r5, [r4, #24]
	listSET_LIST_ITEM_OWNER( &( pxNewTCB->xEventListItem ), pxNewTCB );
  4018de:	6264      	str	r4, [r4, #36]	; 0x24
		pxNewTCB->ulNotifiedValue = 0;
  4018e0:	6527      	str	r7, [r4, #80]	; 0x50
		pxNewTCB->ucNotifyState = taskNOT_WAITING_NOTIFICATION;
  4018e2:	f884 7054 	strb.w	r7, [r4, #84]	; 0x54
		pxNewTCB->pxTopOfStack = pxPortInitialiseStack( pxTopOfStack, pxTaskCode, pvParameters );
  4018e6:	9a01      	ldr	r2, [sp, #4]
  4018e8:	4659      	mov	r1, fp
  4018ea:	4630      	mov	r0, r6
  4018ec:	4b3e      	ldr	r3, [pc, #248]	; (4019e8 <xTaskCreate+0x1a0>)
  4018ee:	4798      	blx	r3
  4018f0:	6020      	str	r0, [r4, #0]
	if( ( void * ) pxCreatedTask != NULL )
  4018f2:	f1ba 0f00 	cmp.w	sl, #0
  4018f6:	d001      	beq.n	4018fc <xTaskCreate+0xb4>
		*pxCreatedTask = ( TaskHandle_t ) pxNewTCB;
  4018f8:	f8ca 4000 	str.w	r4, [sl]
	taskENTER_CRITICAL();
  4018fc:	4b3b      	ldr	r3, [pc, #236]	; (4019ec <xTaskCreate+0x1a4>)
  4018fe:	4798      	blx	r3
		uxCurrentNumberOfTasks++;
  401900:	4a3b      	ldr	r2, [pc, #236]	; (4019f0 <xTaskCreate+0x1a8>)
  401902:	6813      	ldr	r3, [r2, #0]
  401904:	3301      	adds	r3, #1
  401906:	6013      	str	r3, [r2, #0]
		if( pxCurrentTCB == NULL )
  401908:	4b3a      	ldr	r3, [pc, #232]	; (4019f4 <xTaskCreate+0x1ac>)
  40190a:	681b      	ldr	r3, [r3, #0]
  40190c:	2b00      	cmp	r3, #0
  40190e:	d03a      	beq.n	401986 <xTaskCreate+0x13e>
			if( xSchedulerRunning == pdFALSE )
  401910:	4b39      	ldr	r3, [pc, #228]	; (4019f8 <xTaskCreate+0x1b0>)
  401912:	681b      	ldr	r3, [r3, #0]
  401914:	b93b      	cbnz	r3, 401926 <xTaskCreate+0xde>
				if( pxCurrentTCB->uxPriority <= pxNewTCB->uxPriority )
  401916:	4b37      	ldr	r3, [pc, #220]	; (4019f4 <xTaskCreate+0x1ac>)
  401918:	681b      	ldr	r3, [r3, #0]
  40191a:	6ada      	ldr	r2, [r3, #44]	; 0x2c
  40191c:	6ae3      	ldr	r3, [r4, #44]	; 0x2c
  40191e:	429a      	cmp	r2, r3
  401920:	d801      	bhi.n	401926 <xTaskCreate+0xde>
					pxCurrentTCB = pxNewTCB;
  401922:	4b34      	ldr	r3, [pc, #208]	; (4019f4 <xTaskCreate+0x1ac>)
  401924:	601c      	str	r4, [r3, #0]
		uxTaskNumber++;
  401926:	4a35      	ldr	r2, [pc, #212]	; (4019fc <xTaskCreate+0x1b4>)
  401928:	6813      	ldr	r3, [r2, #0]
  40192a:	3301      	adds	r3, #1
  40192c:	6013      	str	r3, [r2, #0]
			pxNewTCB->uxTCBNumber = uxTaskNumber;
  40192e:	6423      	str	r3, [r4, #64]	; 0x40
		prvAddTaskToReadyList( pxNewTCB );
  401930:	6ae0      	ldr	r0, [r4, #44]	; 0x2c
  401932:	4a33      	ldr	r2, [pc, #204]	; (401a00 <xTaskCreate+0x1b8>)
  401934:	6811      	ldr	r1, [r2, #0]
  401936:	2301      	movs	r3, #1
  401938:	4083      	lsls	r3, r0
  40193a:	430b      	orrs	r3, r1
  40193c:	6013      	str	r3, [r2, #0]
  40193e:	eb00 0080 	add.w	r0, r0, r0, lsl #2
  401942:	4641      	mov	r1, r8
  401944:	4b2f      	ldr	r3, [pc, #188]	; (401a04 <xTaskCreate+0x1bc>)
  401946:	eb03 0080 	add.w	r0, r3, r0, lsl #2
  40194a:	4b2f      	ldr	r3, [pc, #188]	; (401a08 <xTaskCreate+0x1c0>)
  40194c:	4798      	blx	r3
	taskEXIT_CRITICAL();
  40194e:	4b2f      	ldr	r3, [pc, #188]	; (401a0c <xTaskCreate+0x1c4>)
  401950:	4798      	blx	r3
	if( xSchedulerRunning != pdFALSE )
  401952:	4b29      	ldr	r3, [pc, #164]	; (4019f8 <xTaskCreate+0x1b0>)
  401954:	681b      	ldr	r3, [r3, #0]
  401956:	2b00      	cmp	r3, #0
  401958:	d03b      	beq.n	4019d2 <xTaskCreate+0x18a>
		if( pxCurrentTCB->uxPriority < pxNewTCB->uxPriority )
  40195a:	4b26      	ldr	r3, [pc, #152]	; (4019f4 <xTaskCreate+0x1ac>)
  40195c:	681b      	ldr	r3, [r3, #0]
  40195e:	6ada      	ldr	r2, [r3, #44]	; 0x2c
  401960:	6ae3      	ldr	r3, [r4, #44]	; 0x2c
  401962:	429a      	cmp	r2, r3
  401964:	d239      	bcs.n	4019da <xTaskCreate+0x192>
			taskYIELD_IF_USING_PREEMPTION();
  401966:	f04f 5280 	mov.w	r2, #268435456	; 0x10000000
  40196a:	4b29      	ldr	r3, [pc, #164]	; (401a10 <xTaskCreate+0x1c8>)
  40196c:	601a      	str	r2, [r3, #0]
  40196e:	f3bf 8f4f 	dsb	sy
  401972:	f3bf 8f6f 	isb	sy
			xReturn = pdPASS;
  401976:	2001      	movs	r0, #1
  401978:	e02c      	b.n	4019d4 <xTaskCreate+0x18c>
					vPortFree( pxStack );
  40197a:	4638      	mov	r0, r7
  40197c:	4b25      	ldr	r3, [pc, #148]	; (401a14 <xTaskCreate+0x1cc>)
  40197e:	4798      	blx	r3
			xReturn = errCOULD_NOT_ALLOCATE_REQUIRED_MEMORY;
  401980:	f04f 30ff 	mov.w	r0, #4294967295
  401984:	e026      	b.n	4019d4 <xTaskCreate+0x18c>
			pxCurrentTCB = pxNewTCB;
  401986:	4b1b      	ldr	r3, [pc, #108]	; (4019f4 <xTaskCreate+0x1ac>)
  401988:	601c      	str	r4, [r3, #0]
			if( uxCurrentNumberOfTasks == ( UBaseType_t ) 1 )
  40198a:	6813      	ldr	r3, [r2, #0]
  40198c:	2b01      	cmp	r3, #1
  40198e:	d1ca      	bne.n	401926 <xTaskCreate+0xde>
		vListInitialise( &( pxReadyTasksLists[ uxPriority ] ) );
  401990:	4e1c      	ldr	r6, [pc, #112]	; (401a04 <xTaskCreate+0x1bc>)
  401992:	4630      	mov	r0, r6
  401994:	4d20      	ldr	r5, [pc, #128]	; (401a18 <xTaskCreate+0x1d0>)
  401996:	47a8      	blx	r5
  401998:	f106 0014 	add.w	r0, r6, #20
  40199c:	47a8      	blx	r5
  40199e:	f106 0028 	add.w	r0, r6, #40	; 0x28
  4019a2:	47a8      	blx	r5
  4019a4:	f106 003c 	add.w	r0, r6, #60	; 0x3c
  4019a8:	47a8      	blx	r5
  4019aa:	f106 0050 	add.w	r0, r6, #80	; 0x50
  4019ae:	47a8      	blx	r5
	vListInitialise( &xDelayedTaskList1 );
  4019b0:	4f1a      	ldr	r7, [pc, #104]	; (401a1c <xTaskCreate+0x1d4>)
  4019b2:	4638      	mov	r0, r7
  4019b4:	47a8      	blx	r5
	vListInitialise( &xDelayedTaskList2 );
  4019b6:	4e1a      	ldr	r6, [pc, #104]	; (401a20 <xTaskCreate+0x1d8>)
  4019b8:	4630      	mov	r0, r6
  4019ba:	47a8      	blx	r5
	vListInitialise( &xPendingReadyList );
  4019bc:	4819      	ldr	r0, [pc, #100]	; (401a24 <xTaskCreate+0x1dc>)
  4019be:	47a8      	blx	r5
		vListInitialise( &xTasksWaitingTermination );
  4019c0:	4819      	ldr	r0, [pc, #100]	; (401a28 <xTaskCreate+0x1e0>)
  4019c2:	47a8      	blx	r5
		vListInitialise( &xSuspendedTaskList );
  4019c4:	4819      	ldr	r0, [pc, #100]	; (401a2c <xTaskCreate+0x1e4>)
  4019c6:	47a8      	blx	r5
	pxDelayedTaskList = &xDelayedTaskList1;
  4019c8:	4b19      	ldr	r3, [pc, #100]	; (401a30 <xTaskCreate+0x1e8>)
  4019ca:	601f      	str	r7, [r3, #0]
	pxOverflowDelayedTaskList = &xDelayedTaskList2;
  4019cc:	4b19      	ldr	r3, [pc, #100]	; (401a34 <xTaskCreate+0x1ec>)
  4019ce:	601e      	str	r6, [r3, #0]
  4019d0:	e7a9      	b.n	401926 <xTaskCreate+0xde>
			xReturn = pdPASS;
  4019d2:	2001      	movs	r0, #1
	}
  4019d4:	b003      	add	sp, #12
  4019d6:	e8bd 8ff0 	ldmia.w	sp!, {r4, r5, r6, r7, r8, r9, sl, fp, pc}
			xReturn = pdPASS;
  4019da:	2001      	movs	r0, #1
		return xReturn;
  4019dc:	e7fa      	b.n	4019d4 <xTaskCreate+0x18c>
  4019de:	bf00      	nop
  4019e0:	00400e81 	.word	0x00400e81
  4019e4:	004034a9 	.word	0x004034a9
  4019e8:	00400b99 	.word	0x00400b99
  4019ec:	00400bf5 	.word	0x00400bf5
  4019f0:	20400ac4 	.word	0x20400ac4
  4019f4:	20400a54 	.word	0x20400a54
  4019f8:	20400b24 	.word	0x20400b24
  4019fc:	20400ad4 	.word	0x20400ad4
  401a00:	20400ad8 	.word	0x20400ad8
  401a04:	20400a60 	.word	0x20400a60
  401a08:	00400aa1 	.word	0x00400aa1
  401a0c:	00400c41 	.word	0x00400c41
  401a10:	e000ed04 	.word	0xe000ed04
  401a14:	00400eb1 	.word	0x00400eb1
  401a18:	00400a85 	.word	0x00400a85
  401a1c:	20400adc 	.word	0x20400adc
  401a20:	20400af0 	.word	0x20400af0
  401a24:	20400b10 	.word	0x20400b10
  401a28:	20400b3c 	.word	0x20400b3c
  401a2c:	20400b28 	.word	0x20400b28
  401a30:	20400a58 	.word	0x20400a58
  401a34:	20400a5c 	.word	0x20400a5c
  401a38:	00400a9b 	.word	0x00400a9b

00401a3c <eTaskGetState>:
	{
  401a3c:	b538      	push	{r3, r4, r5, lr}
		configASSERT( pxTCB );
  401a3e:	b1d0      	cbz	r0, 401a76 <eTaskGetState+0x3a>
  401a40:	4605      	mov	r5, r0
		if( pxTCB == pxCurrentTCB )
  401a42:	4b19      	ldr	r3, [pc, #100]	; (401aa8 <eTaskGetState+0x6c>)
  401a44:	681b      	ldr	r3, [r3, #0]
  401a46:	4298      	cmp	r0, r3
  401a48:	d026      	beq.n	401a98 <eTaskGetState+0x5c>
			taskENTER_CRITICAL();
  401a4a:	4b18      	ldr	r3, [pc, #96]	; (401aac <eTaskGetState+0x70>)
  401a4c:	4798      	blx	r3
				pxStateList = ( List_t * ) listLIST_ITEM_CONTAINER( &( pxTCB->xStateListItem ) );
  401a4e:	696c      	ldr	r4, [r5, #20]
			taskEXIT_CRITICAL();
  401a50:	4b17      	ldr	r3, [pc, #92]	; (401ab0 <eTaskGetState+0x74>)
  401a52:	4798      	blx	r3
			if( ( pxStateList == pxDelayedTaskList ) || ( pxStateList == pxOverflowDelayedTaskList ) )
  401a54:	4b17      	ldr	r3, [pc, #92]	; (401ab4 <eTaskGetState+0x78>)
  401a56:	681b      	ldr	r3, [r3, #0]
  401a58:	429c      	cmp	r4, r3
  401a5a:	d01f      	beq.n	401a9c <eTaskGetState+0x60>
  401a5c:	4b16      	ldr	r3, [pc, #88]	; (401ab8 <eTaskGetState+0x7c>)
  401a5e:	681b      	ldr	r3, [r3, #0]
  401a60:	429c      	cmp	r4, r3
  401a62:	d01d      	beq.n	401aa0 <eTaskGetState+0x64>
				else if( pxStateList == &xSuspendedTaskList )
  401a64:	4b15      	ldr	r3, [pc, #84]	; (401abc <eTaskGetState+0x80>)
  401a66:	429c      	cmp	r4, r3
  401a68:	d010      	beq.n	401a8c <eTaskGetState+0x50>
				else if( ( pxStateList == &xTasksWaitingTermination ) || ( pxStateList == NULL ) )
  401a6a:	b1dc      	cbz	r4, 401aa4 <eTaskGetState+0x68>
  401a6c:	4b14      	ldr	r3, [pc, #80]	; (401ac0 <eTaskGetState+0x84>)
  401a6e:	429c      	cmp	r4, r3
  401a70:	d018      	beq.n	401aa4 <eTaskGetState+0x68>
				eReturn = eReady;
  401a72:	2001      	movs	r0, #1
  401a74:	bd38      	pop	{r3, r4, r5, pc}
  401a76:	f04f 0380 	mov.w	r3, #128	; 0x80
  401a7a:	b672      	cpsid	i
  401a7c:	f383 8811 	msr	BASEPRI, r3
  401a80:	f3bf 8f6f 	isb	sy
  401a84:	f3bf 8f4f 	dsb	sy
  401a88:	b662      	cpsie	i
  401a8a:	e7fe      	b.n	401a8a <eTaskGetState+0x4e>
					if( listLIST_ITEM_CONTAINER( &( pxTCB->xEventListItem ) ) == NULL )
  401a8c:	6aab      	ldr	r3, [r5, #40]	; 0x28
						eReturn = eBlocked;
  401a8e:	2b00      	cmp	r3, #0
  401a90:	bf0c      	ite	eq
  401a92:	2003      	moveq	r0, #3
  401a94:	2002      	movne	r0, #2
  401a96:	bd38      	pop	{r3, r4, r5, pc}
			eReturn = eRunning;
  401a98:	2000      	movs	r0, #0
  401a9a:	bd38      	pop	{r3, r4, r5, pc}
				eReturn = eBlocked;
  401a9c:	2002      	movs	r0, #2
  401a9e:	bd38      	pop	{r3, r4, r5, pc}
  401aa0:	2002      	movs	r0, #2
  401aa2:	bd38      	pop	{r3, r4, r5, pc}
					eReturn = eDeleted;
  401aa4:	2004      	movs	r0, #4
	} /*lint !e818 xTask cannot be a pointer to const because it is a typedef. */
  401aa6:	bd38      	pop	{r3, r4, r5, pc}
  401aa8:	20400a54 	.word	0x20400a54
  401aac:	00400bf5 	.word	0x00400bf5
  401ab0:	00400c41 	.word	0x00400c41
  401ab4:	20400a58 	.word	0x20400a58
  401ab8:	20400a5c 	.word	0x20400a5c
  401abc:	20400b28 	.word	0x20400b28
  401ac0:	20400b3c 	.word	0x20400b3c

00401ac4 <vTaskStartScheduler>:
{
  401ac4:	b510      	push	{r4, lr}
  401ac6:	b082      	sub	sp, #8
		xReturn = xTaskCreate(	prvIdleTask,
  401ac8:	4b1a      	ldr	r3, [pc, #104]	; (401b34 <vTaskStartScheduler+0x70>)
  401aca:	9301      	str	r3, [sp, #4]
  401acc:	2300      	movs	r3, #0
  401ace:	9300      	str	r3, [sp, #0]
  401ad0:	2282      	movs	r2, #130	; 0x82
  401ad2:	4919      	ldr	r1, [pc, #100]	; (401b38 <vTaskStartScheduler+0x74>)
  401ad4:	4819      	ldr	r0, [pc, #100]	; (401b3c <vTaskStartScheduler+0x78>)
  401ad6:	4c1a      	ldr	r4, [pc, #104]	; (401b40 <vTaskStartScheduler+0x7c>)
  401ad8:	47a0      	blx	r4
		if( xReturn == pdPASS )
  401ada:	2801      	cmp	r0, #1
  401adc:	d004      	beq.n	401ae8 <vTaskStartScheduler+0x24>
		configASSERT( xReturn != errCOULD_NOT_ALLOCATE_REQUIRED_MEMORY );
  401ade:	f1b0 3fff 	cmp.w	r0, #4294967295
  401ae2:	d01c      	beq.n	401b1e <vTaskStartScheduler+0x5a>
}
  401ae4:	b002      	add	sp, #8
  401ae6:	bd10      	pop	{r4, pc}
			xReturn = xTimerCreateTimerTask();
  401ae8:	4b16      	ldr	r3, [pc, #88]	; (401b44 <vTaskStartScheduler+0x80>)
  401aea:	4798      	blx	r3
	if( xReturn == pdPASS )
  401aec:	2801      	cmp	r0, #1
  401aee:	d1f6      	bne.n	401ade <vTaskStartScheduler+0x1a>
  401af0:	f04f 0380 	mov.w	r3, #128	; 0x80
  401af4:	b672      	cpsid	i
  401af6:	f383 8811 	msr	BASEPRI, r3
  401afa:	f3bf 8f6f 	isb	sy
  401afe:	f3bf 8f4f 	dsb	sy
  401b02:	b662      	cpsie	i
		xNextTaskUnblockTime = portMAX_DELAY;
  401b04:	f04f 32ff 	mov.w	r2, #4294967295
  401b08:	4b0f      	ldr	r3, [pc, #60]	; (401b48 <vTaskStartScheduler+0x84>)
  401b0a:	601a      	str	r2, [r3, #0]
		xSchedulerRunning = pdTRUE;
  401b0c:	2201      	movs	r2, #1
  401b0e:	4b0f      	ldr	r3, [pc, #60]	; (401b4c <vTaskStartScheduler+0x88>)
  401b10:	601a      	str	r2, [r3, #0]
		xTickCount = ( TickType_t ) 0U;
  401b12:	2200      	movs	r2, #0
  401b14:	4b0e      	ldr	r3, [pc, #56]	; (401b50 <vTaskStartScheduler+0x8c>)
  401b16:	601a      	str	r2, [r3, #0]
		if( xPortStartScheduler() != pdFALSE )
  401b18:	4b0e      	ldr	r3, [pc, #56]	; (401b54 <vTaskStartScheduler+0x90>)
  401b1a:	4798      	blx	r3
  401b1c:	e7e2      	b.n	401ae4 <vTaskStartScheduler+0x20>
  401b1e:	f04f 0380 	mov.w	r3, #128	; 0x80
  401b22:	b672      	cpsid	i
  401b24:	f383 8811 	msr	BASEPRI, r3
  401b28:	f3bf 8f6f 	isb	sy
  401b2c:	f3bf 8f4f 	dsb	sy
  401b30:	b662      	cpsie	i
  401b32:	e7fe      	b.n	401b32 <vTaskStartScheduler+0x6e>
  401b34:	20400b04 	.word	0x20400b04
  401b38:	00409298 	.word	0x00409298
  401b3c:	004017bd 	.word	0x004017bd
  401b40:	00401849 	.word	0x00401849
  401b44:	00402565 	.word	0x00402565
  401b48:	20400b08 	.word	0x20400b08
  401b4c:	20400b24 	.word	0x20400b24
  401b50:	20400b50 	.word	0x20400b50
  401b54:	00400d31 	.word	0x00400d31

00401b58 <vTaskSuspendAll>:
	++uxSchedulerSuspended;
  401b58:	4a02      	ldr	r2, [pc, #8]	; (401b64 <vTaskSuspendAll+0xc>)
  401b5a:	6813      	ldr	r3, [r2, #0]
  401b5c:	3301      	adds	r3, #1
  401b5e:	6013      	str	r3, [r2, #0]
  401b60:	4770      	bx	lr
  401b62:	bf00      	nop
  401b64:	20400ad0 	.word	0x20400ad0

00401b68 <xTaskGetTickCount>:
		xTicks = xTickCount;
  401b68:	4b01      	ldr	r3, [pc, #4]	; (401b70 <xTaskGetTickCount+0x8>)
  401b6a:	6818      	ldr	r0, [r3, #0]
}
  401b6c:	4770      	bx	lr
  401b6e:	bf00      	nop
  401b70:	20400b50 	.word	0x20400b50

00401b74 <uxTaskGetNumberOfTasks>:
	return uxCurrentNumberOfTasks;
  401b74:	4b01      	ldr	r3, [pc, #4]	; (401b7c <uxTaskGetNumberOfTasks+0x8>)
  401b76:	6818      	ldr	r0, [r3, #0]
}
  401b78:	4770      	bx	lr
  401b7a:	bf00      	nop
  401b7c:	20400ac4 	.word	0x20400ac4

00401b80 <xTaskIncrementTick>:
{
  401b80:	e92d 47f0 	stmdb	sp!, {r4, r5, r6, r7, r8, r9, sl, lr}
	if( uxSchedulerSuspended == ( UBaseType_t ) pdFALSE )
  401b84:	4b41      	ldr	r3, [pc, #260]	; (401c8c <xTaskIncrementTick+0x10c>)
  401b86:	681b      	ldr	r3, [r3, #0]
  401b88:	2b00      	cmp	r3, #0
  401b8a:	d177      	bne.n	401c7c <xTaskIncrementTick+0xfc>
		const TickType_t xConstTickCount = xTickCount + ( TickType_t ) 1;
  401b8c:	4b40      	ldr	r3, [pc, #256]	; (401c90 <xTaskIncrementTick+0x110>)
  401b8e:	681d      	ldr	r5, [r3, #0]
  401b90:	3501      	adds	r5, #1
		xTickCount = xConstTickCount;
  401b92:	601d      	str	r5, [r3, #0]
		if( xConstTickCount == ( TickType_t ) 0U ) /*lint !e774 'if' does not always evaluate to false as it is looking for an overflow. */
  401b94:	b9d5      	cbnz	r5, 401bcc <xTaskIncrementTick+0x4c>
			taskSWITCH_DELAYED_LISTS();
  401b96:	4b3f      	ldr	r3, [pc, #252]	; (401c94 <xTaskIncrementTick+0x114>)
  401b98:	681b      	ldr	r3, [r3, #0]
  401b9a:	681b      	ldr	r3, [r3, #0]
  401b9c:	b153      	cbz	r3, 401bb4 <xTaskIncrementTick+0x34>
  401b9e:	f04f 0380 	mov.w	r3, #128	; 0x80
  401ba2:	b672      	cpsid	i
  401ba4:	f383 8811 	msr	BASEPRI, r3
  401ba8:	f3bf 8f6f 	isb	sy
  401bac:	f3bf 8f4f 	dsb	sy
  401bb0:	b662      	cpsie	i
  401bb2:	e7fe      	b.n	401bb2 <xTaskIncrementTick+0x32>
  401bb4:	4a37      	ldr	r2, [pc, #220]	; (401c94 <xTaskIncrementTick+0x114>)
  401bb6:	6811      	ldr	r1, [r2, #0]
  401bb8:	4b37      	ldr	r3, [pc, #220]	; (401c98 <xTaskIncrementTick+0x118>)
  401bba:	6818      	ldr	r0, [r3, #0]
  401bbc:	6010      	str	r0, [r2, #0]
  401bbe:	6019      	str	r1, [r3, #0]
  401bc0:	4a36      	ldr	r2, [pc, #216]	; (401c9c <xTaskIncrementTick+0x11c>)
  401bc2:	6813      	ldr	r3, [r2, #0]
  401bc4:	3301      	adds	r3, #1
  401bc6:	6013      	str	r3, [r2, #0]
  401bc8:	4b35      	ldr	r3, [pc, #212]	; (401ca0 <xTaskIncrementTick+0x120>)
  401bca:	4798      	blx	r3
		if( xConstTickCount >= xNextTaskUnblockTime )
  401bcc:	4b35      	ldr	r3, [pc, #212]	; (401ca4 <xTaskIncrementTick+0x124>)
  401bce:	681b      	ldr	r3, [r3, #0]
  401bd0:	429d      	cmp	r5, r3
  401bd2:	d218      	bcs.n	401c06 <xTaskIncrementTick+0x86>
BaseType_t xSwitchRequired = pdFALSE;
  401bd4:	2400      	movs	r4, #0
			if( listCURRENT_LIST_LENGTH( &( pxReadyTasksLists[ pxCurrentTCB->uxPriority ] ) ) > ( UBaseType_t ) 1 )
  401bd6:	4b34      	ldr	r3, [pc, #208]	; (401ca8 <xTaskIncrementTick+0x128>)
  401bd8:	681b      	ldr	r3, [r3, #0]
  401bda:	6adb      	ldr	r3, [r3, #44]	; 0x2c
  401bdc:	eb03 0383 	add.w	r3, r3, r3, lsl #2
  401be0:	009b      	lsls	r3, r3, #2
  401be2:	4a32      	ldr	r2, [pc, #200]	; (401cac <xTaskIncrementTick+0x12c>)
  401be4:	58d3      	ldr	r3, [r2, r3]
				xSwitchRequired = pdTRUE;
  401be6:	2b02      	cmp	r3, #2
  401be8:	bf28      	it	cs
  401bea:	2401      	movcs	r4, #1
			if( uxPendedTicks == ( UBaseType_t ) 0U )
  401bec:	4b30      	ldr	r3, [pc, #192]	; (401cb0 <xTaskIncrementTick+0x130>)
  401bee:	681b      	ldr	r3, [r3, #0]
  401bf0:	b90b      	cbnz	r3, 401bf6 <xTaskIncrementTick+0x76>
				vApplicationTickHook();
  401bf2:	4b30      	ldr	r3, [pc, #192]	; (401cb4 <xTaskIncrementTick+0x134>)
  401bf4:	4798      	blx	r3
		if( xYieldPending != pdFALSE )
  401bf6:	4b30      	ldr	r3, [pc, #192]	; (401cb8 <xTaskIncrementTick+0x138>)
  401bf8:	681b      	ldr	r3, [r3, #0]
			xSwitchRequired = pdTRUE;
  401bfa:	2b00      	cmp	r3, #0
}
  401bfc:	bf0c      	ite	eq
  401bfe:	4620      	moveq	r0, r4
  401c00:	2001      	movne	r0, #1
  401c02:	e8bd 87f0 	ldmia.w	sp!, {r4, r5, r6, r7, r8, r9, sl, pc}
  401c06:	2400      	movs	r4, #0
				if( listLIST_IS_EMPTY( pxDelayedTaskList ) != pdFALSE )
  401c08:	f8df 9088 	ldr.w	r9, [pc, #136]	; 401c94 <xTaskIncrementTick+0x114>
					( void ) uxListRemove( &( pxTCB->xStateListItem ) );
  401c0c:	f8df 80b4 	ldr.w	r8, [pc, #180]	; 401cc4 <xTaskIncrementTick+0x144>
					prvAddTaskToReadyList( pxTCB );
  401c10:	4f2a      	ldr	r7, [pc, #168]	; (401cbc <xTaskIncrementTick+0x13c>)
  401c12:	e01f      	b.n	401c54 <xTaskIncrementTick+0xd4>
					xNextTaskUnblockTime = portMAX_DELAY; /*lint !e961 MISRA exception as the casts are only redundant for some ports. */
  401c14:	f04f 32ff 	mov.w	r2, #4294967295
  401c18:	4b22      	ldr	r3, [pc, #136]	; (401ca4 <xTaskIncrementTick+0x124>)
  401c1a:	601a      	str	r2, [r3, #0]
					break;
  401c1c:	e7db      	b.n	401bd6 <xTaskIncrementTick+0x56>
						xNextTaskUnblockTime = xItemValue;
  401c1e:	4a21      	ldr	r2, [pc, #132]	; (401ca4 <xTaskIncrementTick+0x124>)
  401c20:	6013      	str	r3, [r2, #0]
						break;
  401c22:	e7d8      	b.n	401bd6 <xTaskIncrementTick+0x56>
						( void ) uxListRemove( &( pxTCB->xEventListItem ) );
  401c24:	f106 0018 	add.w	r0, r6, #24
  401c28:	47c0      	blx	r8
					prvAddTaskToReadyList( pxTCB );
  401c2a:	6af0      	ldr	r0, [r6, #44]	; 0x2c
  401c2c:	683a      	ldr	r2, [r7, #0]
  401c2e:	2301      	movs	r3, #1
  401c30:	4083      	lsls	r3, r0
  401c32:	4313      	orrs	r3, r2
  401c34:	603b      	str	r3, [r7, #0]
  401c36:	eb00 0080 	add.w	r0, r0, r0, lsl #2
  401c3a:	4651      	mov	r1, sl
  401c3c:	4b1b      	ldr	r3, [pc, #108]	; (401cac <xTaskIncrementTick+0x12c>)
  401c3e:	eb03 0080 	add.w	r0, r3, r0, lsl #2
  401c42:	4b1f      	ldr	r3, [pc, #124]	; (401cc0 <xTaskIncrementTick+0x140>)
  401c44:	4798      	blx	r3
						if( pxTCB->uxPriority >= pxCurrentTCB->uxPriority )
  401c46:	4b18      	ldr	r3, [pc, #96]	; (401ca8 <xTaskIncrementTick+0x128>)
  401c48:	681b      	ldr	r3, [r3, #0]
  401c4a:	6af2      	ldr	r2, [r6, #44]	; 0x2c
  401c4c:	6adb      	ldr	r3, [r3, #44]	; 0x2c
							xSwitchRequired = pdTRUE;
  401c4e:	429a      	cmp	r2, r3
  401c50:	bf28      	it	cs
  401c52:	2401      	movcs	r4, #1
				if( listLIST_IS_EMPTY( pxDelayedTaskList ) != pdFALSE )
  401c54:	f8d9 3000 	ldr.w	r3, [r9]
  401c58:	681b      	ldr	r3, [r3, #0]
  401c5a:	2b00      	cmp	r3, #0
  401c5c:	d0da      	beq.n	401c14 <xTaskIncrementTick+0x94>
					pxTCB = ( TCB_t * ) listGET_OWNER_OF_HEAD_ENTRY( pxDelayedTaskList );
  401c5e:	f8d9 3000 	ldr.w	r3, [r9]
  401c62:	68db      	ldr	r3, [r3, #12]
  401c64:	68de      	ldr	r6, [r3, #12]
					xItemValue = listGET_LIST_ITEM_VALUE( &( pxTCB->xStateListItem ) );
  401c66:	6873      	ldr	r3, [r6, #4]
					if( xConstTickCount < xItemValue )
  401c68:	429d      	cmp	r5, r3
  401c6a:	d3d8      	bcc.n	401c1e <xTaskIncrementTick+0x9e>
					( void ) uxListRemove( &( pxTCB->xStateListItem ) );
  401c6c:	f106 0a04 	add.w	sl, r6, #4
  401c70:	4650      	mov	r0, sl
  401c72:	47c0      	blx	r8
					if( listLIST_ITEM_CONTAINER( &( pxTCB->xEventListItem ) ) != NULL )
  401c74:	6ab3      	ldr	r3, [r6, #40]	; 0x28
  401c76:	2b00      	cmp	r3, #0
  401c78:	d1d4      	bne.n	401c24 <xTaskIncrementTick+0xa4>
  401c7a:	e7d6      	b.n	401c2a <xTaskIncrementTick+0xaa>
		++uxPendedTicks;
  401c7c:	4a0c      	ldr	r2, [pc, #48]	; (401cb0 <xTaskIncrementTick+0x130>)
  401c7e:	6813      	ldr	r3, [r2, #0]
  401c80:	3301      	adds	r3, #1
  401c82:	6013      	str	r3, [r2, #0]
			vApplicationTickHook();
  401c84:	4b0b      	ldr	r3, [pc, #44]	; (401cb4 <xTaskIncrementTick+0x134>)
  401c86:	4798      	blx	r3
BaseType_t xSwitchRequired = pdFALSE;
  401c88:	2400      	movs	r4, #0
  401c8a:	e7b4      	b.n	401bf6 <xTaskIncrementTick+0x76>
  401c8c:	20400ad0 	.word	0x20400ad0
  401c90:	20400b50 	.word	0x20400b50
  401c94:	20400a58 	.word	0x20400a58
  401c98:	20400a5c 	.word	0x20400a5c
  401c9c:	20400b0c 	.word	0x20400b0c
  401ca0:	004016f1 	.word	0x004016f1
  401ca4:	20400b08 	.word	0x20400b08
  401ca8:	20400a54 	.word	0x20400a54
  401cac:	20400a60 	.word	0x20400a60
  401cb0:	20400acc 	.word	0x20400acc
  401cb4:	00402aff 	.word	0x00402aff
  401cb8:	20400b54 	.word	0x20400b54
  401cbc:	20400ad8 	.word	0x20400ad8
  401cc0:	00400aa1 	.word	0x00400aa1
  401cc4:	00400aed 	.word	0x00400aed

00401cc8 <xTaskResumeAll>:
	configASSERT( uxSchedulerSuspended );
  401cc8:	4b36      	ldr	r3, [pc, #216]	; (401da4 <xTaskResumeAll+0xdc>)
  401cca:	681b      	ldr	r3, [r3, #0]
  401ccc:	b953      	cbnz	r3, 401ce4 <xTaskResumeAll+0x1c>
  401cce:	f04f 0380 	mov.w	r3, #128	; 0x80
  401cd2:	b672      	cpsid	i
  401cd4:	f383 8811 	msr	BASEPRI, r3
  401cd8:	f3bf 8f6f 	isb	sy
  401cdc:	f3bf 8f4f 	dsb	sy
  401ce0:	b662      	cpsie	i
  401ce2:	e7fe      	b.n	401ce2 <xTaskResumeAll+0x1a>
{
  401ce4:	e92d 41f0 	stmdb	sp!, {r4, r5, r6, r7, r8, lr}
	taskENTER_CRITICAL();
  401ce8:	4b2f      	ldr	r3, [pc, #188]	; (401da8 <xTaskResumeAll+0xe0>)
  401cea:	4798      	blx	r3
		--uxSchedulerSuspended;
  401cec:	4b2d      	ldr	r3, [pc, #180]	; (401da4 <xTaskResumeAll+0xdc>)
  401cee:	681a      	ldr	r2, [r3, #0]
  401cf0:	3a01      	subs	r2, #1
  401cf2:	601a      	str	r2, [r3, #0]
		if( uxSchedulerSuspended == ( UBaseType_t ) pdFALSE )
  401cf4:	681b      	ldr	r3, [r3, #0]
  401cf6:	2b00      	cmp	r3, #0
  401cf8:	d150      	bne.n	401d9c <xTaskResumeAll+0xd4>
			if( uxCurrentNumberOfTasks > ( UBaseType_t ) 0U )
  401cfa:	4b2c      	ldr	r3, [pc, #176]	; (401dac <xTaskResumeAll+0xe4>)
  401cfc:	681b      	ldr	r3, [r3, #0]
  401cfe:	b92b      	cbnz	r3, 401d0c <xTaskResumeAll+0x44>
BaseType_t xAlreadyYielded = pdFALSE;
  401d00:	2400      	movs	r4, #0
	taskEXIT_CRITICAL();
  401d02:	4b2b      	ldr	r3, [pc, #172]	; (401db0 <xTaskResumeAll+0xe8>)
  401d04:	4798      	blx	r3
}
  401d06:	4620      	mov	r0, r4
  401d08:	e8bd 81f0 	ldmia.w	sp!, {r4, r5, r6, r7, r8, pc}
  401d0c:	2400      	movs	r4, #0
				while( listLIST_IS_EMPTY( &xPendingReadyList ) == pdFALSE )
  401d0e:	4f29      	ldr	r7, [pc, #164]	; (401db4 <xTaskResumeAll+0xec>)
					( void ) uxListRemove( &( pxTCB->xEventListItem ) );
  401d10:	4e29      	ldr	r6, [pc, #164]	; (401db8 <xTaskResumeAll+0xf0>)
					prvAddTaskToReadyList( pxTCB );
  401d12:	4d2a      	ldr	r5, [pc, #168]	; (401dbc <xTaskResumeAll+0xf4>)
				while( listLIST_IS_EMPTY( &xPendingReadyList ) == pdFALSE )
  401d14:	683b      	ldr	r3, [r7, #0]
  401d16:	b303      	cbz	r3, 401d5a <xTaskResumeAll+0x92>
					pxTCB = ( TCB_t * ) listGET_OWNER_OF_HEAD_ENTRY( ( &xPendingReadyList ) );
  401d18:	68fb      	ldr	r3, [r7, #12]
  401d1a:	68dc      	ldr	r4, [r3, #12]
					( void ) uxListRemove( &( pxTCB->xEventListItem ) );
  401d1c:	f104 0018 	add.w	r0, r4, #24
  401d20:	47b0      	blx	r6
					( void ) uxListRemove( &( pxTCB->xStateListItem ) );
  401d22:	f104 0804 	add.w	r8, r4, #4
  401d26:	4640      	mov	r0, r8
  401d28:	47b0      	blx	r6
					prvAddTaskToReadyList( pxTCB );
  401d2a:	6ae0      	ldr	r0, [r4, #44]	; 0x2c
  401d2c:	682a      	ldr	r2, [r5, #0]
  401d2e:	2301      	movs	r3, #1
  401d30:	4083      	lsls	r3, r0
  401d32:	4313      	orrs	r3, r2
  401d34:	602b      	str	r3, [r5, #0]
  401d36:	eb00 0080 	add.w	r0, r0, r0, lsl #2
  401d3a:	4641      	mov	r1, r8
  401d3c:	4b20      	ldr	r3, [pc, #128]	; (401dc0 <xTaskResumeAll+0xf8>)
  401d3e:	eb03 0080 	add.w	r0, r3, r0, lsl #2
  401d42:	4b20      	ldr	r3, [pc, #128]	; (401dc4 <xTaskResumeAll+0xfc>)
  401d44:	4798      	blx	r3
					if( pxTCB->uxPriority >= pxCurrentTCB->uxPriority )
  401d46:	4b20      	ldr	r3, [pc, #128]	; (401dc8 <xTaskResumeAll+0x100>)
  401d48:	681b      	ldr	r3, [r3, #0]
  401d4a:	6ae2      	ldr	r2, [r4, #44]	; 0x2c
  401d4c:	6adb      	ldr	r3, [r3, #44]	; 0x2c
  401d4e:	429a      	cmp	r2, r3
  401d50:	d3e0      	bcc.n	401d14 <xTaskResumeAll+0x4c>
						xYieldPending = pdTRUE;
  401d52:	2201      	movs	r2, #1
  401d54:	4b1d      	ldr	r3, [pc, #116]	; (401dcc <xTaskResumeAll+0x104>)
  401d56:	601a      	str	r2, [r3, #0]
  401d58:	e7dc      	b.n	401d14 <xTaskResumeAll+0x4c>
				if( pxTCB != NULL )
  401d5a:	b10c      	cbz	r4, 401d60 <xTaskResumeAll+0x98>
					prvResetNextTaskUnblockTime();
  401d5c:	4b1c      	ldr	r3, [pc, #112]	; (401dd0 <xTaskResumeAll+0x108>)
  401d5e:	4798      	blx	r3
					UBaseType_t uxPendedCounts = uxPendedTicks; /* Non-volatile copy. */
  401d60:	4b1c      	ldr	r3, [pc, #112]	; (401dd4 <xTaskResumeAll+0x10c>)
  401d62:	681c      	ldr	r4, [r3, #0]
					if( uxPendedCounts > ( UBaseType_t ) 0U )
  401d64:	b16c      	cbz	r4, 401d82 <xTaskResumeAll+0xba>
							if( xTaskIncrementTick() != pdFALSE )
  401d66:	4f1c      	ldr	r7, [pc, #112]	; (401dd8 <xTaskResumeAll+0x110>)
								xYieldPending = pdTRUE;
  401d68:	4e18      	ldr	r6, [pc, #96]	; (401dcc <xTaskResumeAll+0x104>)
  401d6a:	2501      	movs	r5, #1
  401d6c:	e001      	b.n	401d72 <xTaskResumeAll+0xaa>
						} while( uxPendedCounts > ( UBaseType_t ) 0U );
  401d6e:	3c01      	subs	r4, #1
  401d70:	d004      	beq.n	401d7c <xTaskResumeAll+0xb4>
							if( xTaskIncrementTick() != pdFALSE )
  401d72:	47b8      	blx	r7
  401d74:	2800      	cmp	r0, #0
  401d76:	d0fa      	beq.n	401d6e <xTaskResumeAll+0xa6>
								xYieldPending = pdTRUE;
  401d78:	6035      	str	r5, [r6, #0]
  401d7a:	e7f8      	b.n	401d6e <xTaskResumeAll+0xa6>
						uxPendedTicks = 0;
  401d7c:	2200      	movs	r2, #0
  401d7e:	4b15      	ldr	r3, [pc, #84]	; (401dd4 <xTaskResumeAll+0x10c>)
  401d80:	601a      	str	r2, [r3, #0]
				if( xYieldPending != pdFALSE )
  401d82:	4b12      	ldr	r3, [pc, #72]	; (401dcc <xTaskResumeAll+0x104>)
  401d84:	681b      	ldr	r3, [r3, #0]
  401d86:	b15b      	cbz	r3, 401da0 <xTaskResumeAll+0xd8>
					taskYIELD_IF_USING_PREEMPTION();
  401d88:	f04f 5280 	mov.w	r2, #268435456	; 0x10000000
  401d8c:	4b13      	ldr	r3, [pc, #76]	; (401ddc <xTaskResumeAll+0x114>)
  401d8e:	601a      	str	r2, [r3, #0]
  401d90:	f3bf 8f4f 	dsb	sy
  401d94:	f3bf 8f6f 	isb	sy
						xAlreadyYielded = pdTRUE;
  401d98:	2401      	movs	r4, #1
  401d9a:	e7b2      	b.n	401d02 <xTaskResumeAll+0x3a>
BaseType_t xAlreadyYielded = pdFALSE;
  401d9c:	2400      	movs	r4, #0
  401d9e:	e7b0      	b.n	401d02 <xTaskResumeAll+0x3a>
  401da0:	2400      	movs	r4, #0
  401da2:	e7ae      	b.n	401d02 <xTaskResumeAll+0x3a>
  401da4:	20400ad0 	.word	0x20400ad0
  401da8:	00400bf5 	.word	0x00400bf5
  401dac:	20400ac4 	.word	0x20400ac4
  401db0:	00400c41 	.word	0x00400c41
  401db4:	20400b10 	.word	0x20400b10
  401db8:	00400aed 	.word	0x00400aed
  401dbc:	20400ad8 	.word	0x20400ad8
  401dc0:	20400a60 	.word	0x20400a60
  401dc4:	00400aa1 	.word	0x00400aa1
  401dc8:	20400a54 	.word	0x20400a54
  401dcc:	20400b54 	.word	0x20400b54
  401dd0:	004016f1 	.word	0x004016f1
  401dd4:	20400acc 	.word	0x20400acc
  401dd8:	00401b81 	.word	0x00401b81
  401ddc:	e000ed04 	.word	0xe000ed04

00401de0 <vTaskDelay>:
	{
  401de0:	b510      	push	{r4, lr}
		if( xTicksToDelay > ( TickType_t ) 0U )
  401de2:	b1b8      	cbz	r0, 401e14 <vTaskDelay+0x34>
  401de4:	4604      	mov	r4, r0
			configASSERT( uxSchedulerSuspended == 0 );
  401de6:	4b10      	ldr	r3, [pc, #64]	; (401e28 <vTaskDelay+0x48>)
  401de8:	681b      	ldr	r3, [r3, #0]
  401dea:	b153      	cbz	r3, 401e02 <vTaskDelay+0x22>
  401dec:	f04f 0380 	mov.w	r3, #128	; 0x80
  401df0:	b672      	cpsid	i
  401df2:	f383 8811 	msr	BASEPRI, r3
  401df6:	f3bf 8f6f 	isb	sy
  401dfa:	f3bf 8f4f 	dsb	sy
  401dfe:	b662      	cpsie	i
  401e00:	e7fe      	b.n	401e00 <vTaskDelay+0x20>
			vTaskSuspendAll();
  401e02:	4b0a      	ldr	r3, [pc, #40]	; (401e2c <vTaskDelay+0x4c>)
  401e04:	4798      	blx	r3
				prvAddCurrentTaskToDelayedList( xTicksToDelay, pdFALSE );
  401e06:	2100      	movs	r1, #0
  401e08:	4620      	mov	r0, r4
  401e0a:	4b09      	ldr	r3, [pc, #36]	; (401e30 <vTaskDelay+0x50>)
  401e0c:	4798      	blx	r3
			xAlreadyYielded = xTaskResumeAll();
  401e0e:	4b09      	ldr	r3, [pc, #36]	; (401e34 <vTaskDelay+0x54>)
  401e10:	4798      	blx	r3
		if( xAlreadyYielded == pdFALSE )
  401e12:	b938      	cbnz	r0, 401e24 <vTaskDelay+0x44>
			portYIELD_WITHIN_API();
  401e14:	f04f 5280 	mov.w	r2, #268435456	; 0x10000000
  401e18:	4b07      	ldr	r3, [pc, #28]	; (401e38 <vTaskDelay+0x58>)
  401e1a:	601a      	str	r2, [r3, #0]
  401e1c:	f3bf 8f4f 	dsb	sy
  401e20:	f3bf 8f6f 	isb	sy
  401e24:	bd10      	pop	{r4, pc}
  401e26:	bf00      	nop
  401e28:	20400ad0 	.word	0x20400ad0
  401e2c:	00401b59 	.word	0x00401b59
  401e30:	0040171d 	.word	0x0040171d
  401e34:	00401cc9 	.word	0x00401cc9
  401e38:	e000ed04 	.word	0xe000ed04

00401e3c <vTaskSwitchContext>:
	if( uxSchedulerSuspended != ( UBaseType_t ) pdFALSE )
  401e3c:	4b2d      	ldr	r3, [pc, #180]	; (401ef4 <vTaskSwitchContext+0xb8>)
  401e3e:	681b      	ldr	r3, [r3, #0]
  401e40:	2b00      	cmp	r3, #0
  401e42:	d12c      	bne.n	401e9e <vTaskSwitchContext+0x62>
{
  401e44:	b510      	push	{r4, lr}
		xYieldPending = pdFALSE;
  401e46:	2200      	movs	r2, #0
  401e48:	4b2b      	ldr	r3, [pc, #172]	; (401ef8 <vTaskSwitchContext+0xbc>)
  401e4a:	601a      	str	r2, [r3, #0]
		taskCHECK_FOR_STACK_OVERFLOW();
  401e4c:	4b2b      	ldr	r3, [pc, #172]	; (401efc <vTaskSwitchContext+0xc0>)
  401e4e:	681b      	ldr	r3, [r3, #0]
  401e50:	6b1b      	ldr	r3, [r3, #48]	; 0x30
  401e52:	681a      	ldr	r2, [r3, #0]
  401e54:	f1b2 3fa5 	cmp.w	r2, #2779096485	; 0xa5a5a5a5
  401e58:	d103      	bne.n	401e62 <vTaskSwitchContext+0x26>
  401e5a:	685a      	ldr	r2, [r3, #4]
  401e5c:	f1b2 3fa5 	cmp.w	r2, #2779096485	; 0xa5a5a5a5
  401e60:	d021      	beq.n	401ea6 <vTaskSwitchContext+0x6a>
  401e62:	4b26      	ldr	r3, [pc, #152]	; (401efc <vTaskSwitchContext+0xc0>)
  401e64:	6818      	ldr	r0, [r3, #0]
  401e66:	6819      	ldr	r1, [r3, #0]
  401e68:	3134      	adds	r1, #52	; 0x34
  401e6a:	4b25      	ldr	r3, [pc, #148]	; (401f00 <vTaskSwitchContext+0xc4>)
  401e6c:	4798      	blx	r3
		taskSELECT_HIGHEST_PRIORITY_TASK();
  401e6e:	4b25      	ldr	r3, [pc, #148]	; (401f04 <vTaskSwitchContext+0xc8>)
  401e70:	681b      	ldr	r3, [r3, #0]
		__asm volatile ( "clz %0, %1" : "=r" ( ucReturn ) : "r" ( ulBitmap ) : "memory" );
  401e72:	fab3 f383 	clz	r3, r3
  401e76:	b2db      	uxtb	r3, r3
  401e78:	f1c3 031f 	rsb	r3, r3, #31
  401e7c:	eb03 0283 	add.w	r2, r3, r3, lsl #2
  401e80:	0092      	lsls	r2, r2, #2
  401e82:	4921      	ldr	r1, [pc, #132]	; (401f08 <vTaskSwitchContext+0xcc>)
  401e84:	588a      	ldr	r2, [r1, r2]
  401e86:	b9ba      	cbnz	r2, 401eb8 <vTaskSwitchContext+0x7c>
	__asm volatile
  401e88:	f04f 0380 	mov.w	r3, #128	; 0x80
  401e8c:	b672      	cpsid	i
  401e8e:	f383 8811 	msr	BASEPRI, r3
  401e92:	f3bf 8f6f 	isb	sy
  401e96:	f3bf 8f4f 	dsb	sy
  401e9a:	b662      	cpsie	i
  401e9c:	e7fe      	b.n	401e9c <vTaskSwitchContext+0x60>
		xYieldPending = pdTRUE;
  401e9e:	2201      	movs	r2, #1
  401ea0:	4b15      	ldr	r3, [pc, #84]	; (401ef8 <vTaskSwitchContext+0xbc>)
  401ea2:	601a      	str	r2, [r3, #0]
  401ea4:	4770      	bx	lr
		taskCHECK_FOR_STACK_OVERFLOW();
  401ea6:	689a      	ldr	r2, [r3, #8]
  401ea8:	f1b2 3fa5 	cmp.w	r2, #2779096485	; 0xa5a5a5a5
  401eac:	d1d9      	bne.n	401e62 <vTaskSwitchContext+0x26>
  401eae:	68db      	ldr	r3, [r3, #12]
  401eb0:	f1b3 3fa5 	cmp.w	r3, #2779096485	; 0xa5a5a5a5
  401eb4:	d1d5      	bne.n	401e62 <vTaskSwitchContext+0x26>
  401eb6:	e7da      	b.n	401e6e <vTaskSwitchContext+0x32>
		taskSELECT_HIGHEST_PRIORITY_TASK();
  401eb8:	4a13      	ldr	r2, [pc, #76]	; (401f08 <vTaskSwitchContext+0xcc>)
  401eba:	0099      	lsls	r1, r3, #2
  401ebc:	18c8      	adds	r0, r1, r3
  401ebe:	eb02 0080 	add.w	r0, r2, r0, lsl #2
  401ec2:	6844      	ldr	r4, [r0, #4]
  401ec4:	6864      	ldr	r4, [r4, #4]
  401ec6:	6044      	str	r4, [r0, #4]
  401ec8:	4419      	add	r1, r3
  401eca:	4602      	mov	r2, r0
  401ecc:	3208      	adds	r2, #8
  401ece:	4294      	cmp	r4, r2
  401ed0:	d009      	beq.n	401ee6 <vTaskSwitchContext+0xaa>
  401ed2:	eb03 0383 	add.w	r3, r3, r3, lsl #2
  401ed6:	4a0c      	ldr	r2, [pc, #48]	; (401f08 <vTaskSwitchContext+0xcc>)
  401ed8:	eb02 0383 	add.w	r3, r2, r3, lsl #2
  401edc:	685b      	ldr	r3, [r3, #4]
  401ede:	68da      	ldr	r2, [r3, #12]
  401ee0:	4b06      	ldr	r3, [pc, #24]	; (401efc <vTaskSwitchContext+0xc0>)
  401ee2:	601a      	str	r2, [r3, #0]
  401ee4:	bd10      	pop	{r4, pc}
  401ee6:	6860      	ldr	r0, [r4, #4]
  401ee8:	4a07      	ldr	r2, [pc, #28]	; (401f08 <vTaskSwitchContext+0xcc>)
  401eea:	eb02 0281 	add.w	r2, r2, r1, lsl #2
  401eee:	6050      	str	r0, [r2, #4]
  401ef0:	e7ef      	b.n	401ed2 <vTaskSwitchContext+0x96>
  401ef2:	bf00      	nop
  401ef4:	20400ad0 	.word	0x20400ad0
  401ef8:	20400b54 	.word	0x20400b54
  401efc:	20400a54 	.word	0x20400a54
  401f00:	00402ae5 	.word	0x00402ae5
  401f04:	20400ad8 	.word	0x20400ad8
  401f08:	20400a60 	.word	0x20400a60

00401f0c <vTaskPlaceOnEventList>:
	configASSERT( pxEventList );
  401f0c:	b950      	cbnz	r0, 401f24 <vTaskPlaceOnEventList+0x18>
  401f0e:	f04f 0380 	mov.w	r3, #128	; 0x80
  401f12:	b672      	cpsid	i
  401f14:	f383 8811 	msr	BASEPRI, r3
  401f18:	f3bf 8f6f 	isb	sy
  401f1c:	f3bf 8f4f 	dsb	sy
  401f20:	b662      	cpsie	i
  401f22:	e7fe      	b.n	401f22 <vTaskPlaceOnEventList+0x16>
{
  401f24:	b510      	push	{r4, lr}
  401f26:	460c      	mov	r4, r1
	vListInsert( pxEventList, &( pxCurrentTCB->xEventListItem ) );
  401f28:	4b04      	ldr	r3, [pc, #16]	; (401f3c <vTaskPlaceOnEventList+0x30>)
  401f2a:	6819      	ldr	r1, [r3, #0]
  401f2c:	3118      	adds	r1, #24
  401f2e:	4b04      	ldr	r3, [pc, #16]	; (401f40 <vTaskPlaceOnEventList+0x34>)
  401f30:	4798      	blx	r3
	prvAddCurrentTaskToDelayedList( xTicksToWait, pdTRUE );
  401f32:	2101      	movs	r1, #1
  401f34:	4620      	mov	r0, r4
  401f36:	4b03      	ldr	r3, [pc, #12]	; (401f44 <vTaskPlaceOnEventList+0x38>)
  401f38:	4798      	blx	r3
  401f3a:	bd10      	pop	{r4, pc}
  401f3c:	20400a54 	.word	0x20400a54
  401f40:	00400ab9 	.word	0x00400ab9
  401f44:	0040171d 	.word	0x0040171d

00401f48 <vTaskPlaceOnEventListRestricted>:
	{
  401f48:	b538      	push	{r3, r4, r5, lr}
		configASSERT( pxEventList );
  401f4a:	b178      	cbz	r0, 401f6c <vTaskPlaceOnEventListRestricted+0x24>
  401f4c:	4614      	mov	r4, r2
  401f4e:	460d      	mov	r5, r1
		vListInsertEnd( pxEventList, &( pxCurrentTCB->xEventListItem ) );
  401f50:	4b0c      	ldr	r3, [pc, #48]	; (401f84 <vTaskPlaceOnEventListRestricted+0x3c>)
  401f52:	6819      	ldr	r1, [r3, #0]
  401f54:	3118      	adds	r1, #24
  401f56:	4b0c      	ldr	r3, [pc, #48]	; (401f88 <vTaskPlaceOnEventListRestricted+0x40>)
  401f58:	4798      	blx	r3
			xTicksToWait = portMAX_DELAY;
  401f5a:	2c00      	cmp	r4, #0
		prvAddCurrentTaskToDelayedList( xTicksToWait, xWaitIndefinitely );
  401f5c:	4621      	mov	r1, r4
  401f5e:	bf0c      	ite	eq
  401f60:	4628      	moveq	r0, r5
  401f62:	f04f 30ff 	movne.w	r0, #4294967295
  401f66:	4b09      	ldr	r3, [pc, #36]	; (401f8c <vTaskPlaceOnEventListRestricted+0x44>)
  401f68:	4798      	blx	r3
  401f6a:	bd38      	pop	{r3, r4, r5, pc}
  401f6c:	f04f 0380 	mov.w	r3, #128	; 0x80
  401f70:	b672      	cpsid	i
  401f72:	f383 8811 	msr	BASEPRI, r3
  401f76:	f3bf 8f6f 	isb	sy
  401f7a:	f3bf 8f4f 	dsb	sy
  401f7e:	b662      	cpsie	i
  401f80:	e7fe      	b.n	401f80 <vTaskPlaceOnEventListRestricted+0x38>
  401f82:	bf00      	nop
  401f84:	20400a54 	.word	0x20400a54
  401f88:	00400aa1 	.word	0x00400aa1
  401f8c:	0040171d 	.word	0x0040171d

00401f90 <xTaskRemoveFromEventList>:
{
  401f90:	b538      	push	{r3, r4, r5, lr}
	pxUnblockedTCB = ( TCB_t * ) listGET_OWNER_OF_HEAD_ENTRY( pxEventList );
  401f92:	68c3      	ldr	r3, [r0, #12]
  401f94:	68dc      	ldr	r4, [r3, #12]
	configASSERT( pxUnblockedTCB );
  401f96:	b324      	cbz	r4, 401fe2 <xTaskRemoveFromEventList+0x52>
	( void ) uxListRemove( &( pxUnblockedTCB->xEventListItem ) );
  401f98:	f104 0518 	add.w	r5, r4, #24
  401f9c:	4628      	mov	r0, r5
  401f9e:	4b1a      	ldr	r3, [pc, #104]	; (402008 <xTaskRemoveFromEventList+0x78>)
  401fa0:	4798      	blx	r3
	if( uxSchedulerSuspended == ( UBaseType_t ) pdFALSE )
  401fa2:	4b1a      	ldr	r3, [pc, #104]	; (40200c <xTaskRemoveFromEventList+0x7c>)
  401fa4:	681b      	ldr	r3, [r3, #0]
  401fa6:	bb3b      	cbnz	r3, 401ff8 <xTaskRemoveFromEventList+0x68>
		( void ) uxListRemove( &( pxUnblockedTCB->xStateListItem ) );
  401fa8:	1d25      	adds	r5, r4, #4
  401faa:	4628      	mov	r0, r5
  401fac:	4b16      	ldr	r3, [pc, #88]	; (402008 <xTaskRemoveFromEventList+0x78>)
  401fae:	4798      	blx	r3
		prvAddTaskToReadyList( pxUnblockedTCB );
  401fb0:	6ae0      	ldr	r0, [r4, #44]	; 0x2c
  401fb2:	4a17      	ldr	r2, [pc, #92]	; (402010 <xTaskRemoveFromEventList+0x80>)
  401fb4:	6811      	ldr	r1, [r2, #0]
  401fb6:	2301      	movs	r3, #1
  401fb8:	4083      	lsls	r3, r0
  401fba:	430b      	orrs	r3, r1
  401fbc:	6013      	str	r3, [r2, #0]
  401fbe:	eb00 0080 	add.w	r0, r0, r0, lsl #2
  401fc2:	4629      	mov	r1, r5
  401fc4:	4b13      	ldr	r3, [pc, #76]	; (402014 <xTaskRemoveFromEventList+0x84>)
  401fc6:	eb03 0080 	add.w	r0, r3, r0, lsl #2
  401fca:	4b13      	ldr	r3, [pc, #76]	; (402018 <xTaskRemoveFromEventList+0x88>)
  401fcc:	4798      	blx	r3
	if( pxUnblockedTCB->uxPriority > pxCurrentTCB->uxPriority )
  401fce:	4b13      	ldr	r3, [pc, #76]	; (40201c <xTaskRemoveFromEventList+0x8c>)
  401fd0:	681b      	ldr	r3, [r3, #0]
  401fd2:	6ae2      	ldr	r2, [r4, #44]	; 0x2c
  401fd4:	6adb      	ldr	r3, [r3, #44]	; 0x2c
  401fd6:	429a      	cmp	r2, r3
  401fd8:	d913      	bls.n	402002 <xTaskRemoveFromEventList+0x72>
		xYieldPending = pdTRUE;
  401fda:	2001      	movs	r0, #1
  401fdc:	4b10      	ldr	r3, [pc, #64]	; (402020 <xTaskRemoveFromEventList+0x90>)
  401fde:	6018      	str	r0, [r3, #0]
  401fe0:	bd38      	pop	{r3, r4, r5, pc}
  401fe2:	f04f 0380 	mov.w	r3, #128	; 0x80
  401fe6:	b672      	cpsid	i
  401fe8:	f383 8811 	msr	BASEPRI, r3
  401fec:	f3bf 8f6f 	isb	sy
  401ff0:	f3bf 8f4f 	dsb	sy
  401ff4:	b662      	cpsie	i
  401ff6:	e7fe      	b.n	401ff6 <xTaskRemoveFromEventList+0x66>
		vListInsertEnd( &( xPendingReadyList ), &( pxUnblockedTCB->xEventListItem ) );
  401ff8:	4629      	mov	r1, r5
  401ffa:	480a      	ldr	r0, [pc, #40]	; (402024 <xTaskRemoveFromEventList+0x94>)
  401ffc:	4b06      	ldr	r3, [pc, #24]	; (402018 <xTaskRemoveFromEventList+0x88>)
  401ffe:	4798      	blx	r3
  402000:	e7e5      	b.n	401fce <xTaskRemoveFromEventList+0x3e>
		xReturn = pdFALSE;
  402002:	2000      	movs	r0, #0
}
  402004:	bd38      	pop	{r3, r4, r5, pc}
  402006:	bf00      	nop
  402008:	00400aed 	.word	0x00400aed
  40200c:	20400ad0 	.word	0x20400ad0
  402010:	20400ad8 	.word	0x20400ad8
  402014:	20400a60 	.word	0x20400a60
  402018:	00400aa1 	.word	0x00400aa1
  40201c:	20400a54 	.word	0x20400a54
  402020:	20400b54 	.word	0x20400b54
  402024:	20400b10 	.word	0x20400b10

00402028 <vTaskInternalSetTimeOutState>:
	pxTimeOut->xOverflowCount = xNumOfOverflows;
  402028:	4b03      	ldr	r3, [pc, #12]	; (402038 <vTaskInternalSetTimeOutState+0x10>)
  40202a:	681b      	ldr	r3, [r3, #0]
  40202c:	6003      	str	r3, [r0, #0]
	pxTimeOut->xTimeOnEntering = xTickCount;
  40202e:	4b03      	ldr	r3, [pc, #12]	; (40203c <vTaskInternalSetTimeOutState+0x14>)
  402030:	681b      	ldr	r3, [r3, #0]
  402032:	6043      	str	r3, [r0, #4]
  402034:	4770      	bx	lr
  402036:	bf00      	nop
  402038:	20400b0c 	.word	0x20400b0c
  40203c:	20400b50 	.word	0x20400b50

00402040 <xTaskCheckForTimeOut>:
	configASSERT( pxTimeOut );
  402040:	b1a8      	cbz	r0, 40206e <xTaskCheckForTimeOut+0x2e>
{
  402042:	b570      	push	{r4, r5, r6, lr}
  402044:	4605      	mov	r5, r0
	configASSERT( pxTicksToWait );
  402046:	b1e9      	cbz	r1, 402084 <xTaskCheckForTimeOut+0x44>
  402048:	460c      	mov	r4, r1
	taskENTER_CRITICAL();
  40204a:	4b1d      	ldr	r3, [pc, #116]	; (4020c0 <xTaskCheckForTimeOut+0x80>)
  40204c:	4798      	blx	r3
		const TickType_t xConstTickCount = xTickCount;
  40204e:	4b1d      	ldr	r3, [pc, #116]	; (4020c4 <xTaskCheckForTimeOut+0x84>)
  402050:	681a      	ldr	r2, [r3, #0]
		const TickType_t xElapsedTime = xConstTickCount - pxTimeOut->xTimeOnEntering;
  402052:	6869      	ldr	r1, [r5, #4]
			if( *pxTicksToWait == portMAX_DELAY )
  402054:	6823      	ldr	r3, [r4, #0]
  402056:	f1b3 3fff 	cmp.w	r3, #4294967295
  40205a:	d02f      	beq.n	4020bc <xTaskCheckForTimeOut+0x7c>
		if( ( xNumOfOverflows != pxTimeOut->xOverflowCount ) && ( xConstTickCount >= pxTimeOut->xTimeOnEntering ) ) /*lint !e525 Indentation preferred as is to make code within pre-processor directives clearer. */
  40205c:	481a      	ldr	r0, [pc, #104]	; (4020c8 <xTaskCheckForTimeOut+0x88>)
  40205e:	6800      	ldr	r0, [r0, #0]
  402060:	682e      	ldr	r6, [r5, #0]
  402062:	4286      	cmp	r6, r0
  402064:	d019      	beq.n	40209a <xTaskCheckForTimeOut+0x5a>
  402066:	428a      	cmp	r2, r1
  402068:	d317      	bcc.n	40209a <xTaskCheckForTimeOut+0x5a>
			xReturn = pdTRUE;
  40206a:	2401      	movs	r4, #1
  40206c:	e01b      	b.n	4020a6 <xTaskCheckForTimeOut+0x66>
  40206e:	f04f 0380 	mov.w	r3, #128	; 0x80
  402072:	b672      	cpsid	i
  402074:	f383 8811 	msr	BASEPRI, r3
  402078:	f3bf 8f6f 	isb	sy
  40207c:	f3bf 8f4f 	dsb	sy
  402080:	b662      	cpsie	i
  402082:	e7fe      	b.n	402082 <xTaskCheckForTimeOut+0x42>
  402084:	f04f 0380 	mov.w	r3, #128	; 0x80
  402088:	b672      	cpsid	i
  40208a:	f383 8811 	msr	BASEPRI, r3
  40208e:	f3bf 8f6f 	isb	sy
  402092:	f3bf 8f4f 	dsb	sy
  402096:	b662      	cpsie	i
  402098:	e7fe      	b.n	402098 <xTaskCheckForTimeOut+0x58>
		const TickType_t xElapsedTime = xConstTickCount - pxTimeOut->xTimeOnEntering;
  40209a:	1a52      	subs	r2, r2, r1
		else if( xElapsedTime < *pxTicksToWait ) /*lint !e961 Explicit casting is only redundant with some compilers, whereas others require it to prevent integer conversion errors. */
  40209c:	429a      	cmp	r2, r3
  40209e:	d306      	bcc.n	4020ae <xTaskCheckForTimeOut+0x6e>
			*pxTicksToWait = 0;
  4020a0:	2300      	movs	r3, #0
  4020a2:	6023      	str	r3, [r4, #0]
			xReturn = pdTRUE;
  4020a4:	2401      	movs	r4, #1
	taskEXIT_CRITICAL();
  4020a6:	4b09      	ldr	r3, [pc, #36]	; (4020cc <xTaskCheckForTimeOut+0x8c>)
  4020a8:	4798      	blx	r3
}
  4020aa:	4620      	mov	r0, r4
  4020ac:	bd70      	pop	{r4, r5, r6, pc}
			*pxTicksToWait -= xElapsedTime;
  4020ae:	1a9b      	subs	r3, r3, r2
  4020b0:	6023      	str	r3, [r4, #0]
			vTaskInternalSetTimeOutState( pxTimeOut );
  4020b2:	4628      	mov	r0, r5
  4020b4:	4b06      	ldr	r3, [pc, #24]	; (4020d0 <xTaskCheckForTimeOut+0x90>)
  4020b6:	4798      	blx	r3
			xReturn = pdFALSE;
  4020b8:	2400      	movs	r4, #0
  4020ba:	e7f4      	b.n	4020a6 <xTaskCheckForTimeOut+0x66>
				xReturn = pdFALSE;
  4020bc:	2400      	movs	r4, #0
  4020be:	e7f2      	b.n	4020a6 <xTaskCheckForTimeOut+0x66>
  4020c0:	00400bf5 	.word	0x00400bf5
  4020c4:	20400b50 	.word	0x20400b50
  4020c8:	20400b0c 	.word	0x20400b0c
  4020cc:	00400c41 	.word	0x00400c41
  4020d0:	00402029 	.word	0x00402029

004020d4 <vTaskMissedYield>:
	xYieldPending = pdTRUE;
  4020d4:	2201      	movs	r2, #1
  4020d6:	4b01      	ldr	r3, [pc, #4]	; (4020dc <vTaskMissedYield+0x8>)
  4020d8:	601a      	str	r2, [r3, #0]
  4020da:	4770      	bx	lr
  4020dc:	20400b54 	.word	0x20400b54

004020e0 <vTaskGetInfo>:
	{
  4020e0:	b570      	push	{r4, r5, r6, lr}
  4020e2:	460d      	mov	r5, r1
  4020e4:	4616      	mov	r6, r2
		pxTCB = prvGetTCBFromHandle( xTask );
  4020e6:	4604      	mov	r4, r0
  4020e8:	b1d0      	cbz	r0, 402120 <vTaskGetInfo+0x40>
		pxTaskStatus->xHandle = ( TaskHandle_t ) pxTCB;
  4020ea:	602c      	str	r4, [r5, #0]
		pxTaskStatus->pcTaskName = ( const char * ) &( pxTCB->pcTaskName [ 0 ] );
  4020ec:	f104 0234 	add.w	r2, r4, #52	; 0x34
  4020f0:	606a      	str	r2, [r5, #4]
		pxTaskStatus->uxCurrentPriority = pxTCB->uxPriority;
  4020f2:	6ae2      	ldr	r2, [r4, #44]	; 0x2c
  4020f4:	612a      	str	r2, [r5, #16]
		pxTaskStatus->pxStackBase = pxTCB->pxStack;
  4020f6:	6b22      	ldr	r2, [r4, #48]	; 0x30
  4020f8:	61ea      	str	r2, [r5, #28]
		pxTaskStatus->xTaskNumber = pxTCB->uxTCBNumber;
  4020fa:	6c22      	ldr	r2, [r4, #64]	; 0x40
  4020fc:	60aa      	str	r2, [r5, #8]
			pxTaskStatus->uxBasePriority = pxTCB->uxBasePriority;
  4020fe:	6ca2      	ldr	r2, [r4, #72]	; 0x48
  402100:	616a      	str	r2, [r5, #20]
			pxTaskStatus->ulRunTimeCounter = 0;
  402102:	2200      	movs	r2, #0
  402104:	61aa      	str	r2, [r5, #24]
		if( eState != eInvalid )
  402106:	2b05      	cmp	r3, #5
  402108:	d019      	beq.n	40213e <vTaskGetInfo+0x5e>
			if( pxTCB == pxCurrentTCB )
  40210a:	4a17      	ldr	r2, [pc, #92]	; (402168 <vTaskGetInfo+0x88>)
  40210c:	6812      	ldr	r2, [r2, #0]
  40210e:	4294      	cmp	r4, r2
  402110:	d009      	beq.n	402126 <vTaskGetInfo+0x46>
				pxTaskStatus->eCurrentState = eState;
  402112:	732b      	strb	r3, [r5, #12]
					if( eState == eSuspended )
  402114:	2b03      	cmp	r3, #3
  402116:	d009      	beq.n	40212c <vTaskGetInfo+0x4c>
		if( xGetFreeStackSpace != pdFALSE )
  402118:	b9b6      	cbnz	r6, 402148 <vTaskGetInfo+0x68>
			pxTaskStatus->usStackHighWaterMark = 0;
  40211a:	2300      	movs	r3, #0
  40211c:	842b      	strh	r3, [r5, #32]
  40211e:	bd70      	pop	{r4, r5, r6, pc}
		pxTCB = prvGetTCBFromHandle( xTask );
  402120:	4a11      	ldr	r2, [pc, #68]	; (402168 <vTaskGetInfo+0x88>)
  402122:	6814      	ldr	r4, [r2, #0]
  402124:	e7e1      	b.n	4020ea <vTaskGetInfo+0xa>
				pxTaskStatus->eCurrentState = eRunning;
  402126:	2300      	movs	r3, #0
  402128:	732b      	strb	r3, [r5, #12]
  40212a:	e7f5      	b.n	402118 <vTaskGetInfo+0x38>
						vTaskSuspendAll();
  40212c:	4b0f      	ldr	r3, [pc, #60]	; (40216c <vTaskGetInfo+0x8c>)
  40212e:	4798      	blx	r3
							if( listLIST_ITEM_CONTAINER( &( pxTCB->xEventListItem ) ) != NULL )
  402130:	6aa3      	ldr	r3, [r4, #40]	; 0x28
  402132:	b10b      	cbz	r3, 402138 <vTaskGetInfo+0x58>
								pxTaskStatus->eCurrentState = eBlocked;
  402134:	2302      	movs	r3, #2
  402136:	732b      	strb	r3, [r5, #12]
						( void ) xTaskResumeAll();
  402138:	4b0d      	ldr	r3, [pc, #52]	; (402170 <vTaskGetInfo+0x90>)
  40213a:	4798      	blx	r3
  40213c:	e7ec      	b.n	402118 <vTaskGetInfo+0x38>
			pxTaskStatus->eCurrentState = eTaskGetState( pxTCB );
  40213e:	4620      	mov	r0, r4
  402140:	4b0c      	ldr	r3, [pc, #48]	; (402174 <vTaskGetInfo+0x94>)
  402142:	4798      	blx	r3
  402144:	7328      	strb	r0, [r5, #12]
  402146:	e7e7      	b.n	402118 <vTaskGetInfo+0x38>
				pxTaskStatus->usStackHighWaterMark = prvTaskCheckFreeStackSpace( ( uint8_t * ) pxTCB->pxStack );
  402148:	6b20      	ldr	r0, [r4, #48]	; 0x30
		while( *pucStackByte == ( uint8_t ) tskSTACK_FILL_BYTE )
  40214a:	7803      	ldrb	r3, [r0, #0]
  40214c:	2ba5      	cmp	r3, #165	; 0xa5
  40214e:	d108      	bne.n	402162 <vTaskGetInfo+0x82>
  402150:	1c43      	adds	r3, r0, #1
  402152:	1a19      	subs	r1, r3, r0
  402154:	f813 2b01 	ldrb.w	r2, [r3], #1
  402158:	2aa5      	cmp	r2, #165	; 0xa5
  40215a:	d0fa      	beq.n	402152 <vTaskGetInfo+0x72>
		ulCount /= ( uint32_t ) sizeof( StackType_t ); /*lint !e961 Casting is not redundant on smaller architectures. */
  40215c:	0889      	lsrs	r1, r1, #2
		return ( uint16_t ) ulCount;
  40215e:	8429      	strh	r1, [r5, #32]
  402160:	bd70      	pop	{r4, r5, r6, pc}
	uint32_t ulCount = 0U;
  402162:	2100      	movs	r1, #0
  402164:	e7fa      	b.n	40215c <vTaskGetInfo+0x7c>
  402166:	bf00      	nop
  402168:	20400a54 	.word	0x20400a54
  40216c:	00401b59 	.word	0x00401b59
  402170:	00401cc9 	.word	0x00401cc9
  402174:	00401a3d 	.word	0x00401a3d

00402178 <prvListTasksWithinSingleList>:
	{
  402178:	e92d 4ff0 	stmdb	sp!, {r4, r5, r6, r7, r8, r9, sl, fp, lr}
  40217c:	b083      	sub	sp, #12
		if( listCURRENT_LIST_LENGTH( pxList ) > ( UBaseType_t ) 0 )
  40217e:	680b      	ldr	r3, [r1, #0]
  402180:	b343      	cbz	r3, 4021d4 <prvListTasksWithinSingleList+0x5c>
			listGET_OWNER_OF_NEXT_ENTRY( pxFirstTCB, pxList );
  402182:	684b      	ldr	r3, [r1, #4]
  402184:	685b      	ldr	r3, [r3, #4]
  402186:	604b      	str	r3, [r1, #4]
  402188:	f101 0808 	add.w	r8, r1, #8
  40218c:	4543      	cmp	r3, r8
  40218e:	d00b      	beq.n	4021a8 <prvListTasksWithinSingleList+0x30>
  402190:	9201      	str	r2, [sp, #4]
  402192:	460c      	mov	r4, r1
  402194:	684b      	ldr	r3, [r1, #4]
  402196:	f8d3 b00c 	ldr.w	fp, [r3, #12]
  40219a:	4605      	mov	r5, r0
	UBaseType_t uxTask = 0;
  40219c:	2700      	movs	r7, #0
				vTaskGetInfo( ( TaskHandle_t ) pxNextTCB, &( pxTaskStatusArray[ uxTask ] ), pdTRUE, eState );
  40219e:	f04f 0a01 	mov.w	sl, #1
  4021a2:	f8df 903c 	ldr.w	r9, [pc, #60]	; 4021e0 <prvListTasksWithinSingleList+0x68>
  4021a6:	e00d      	b.n	4021c4 <prvListTasksWithinSingleList+0x4c>
			listGET_OWNER_OF_NEXT_ENTRY( pxFirstTCB, pxList );
  4021a8:	68cb      	ldr	r3, [r1, #12]
  4021aa:	604b      	str	r3, [r1, #4]
  4021ac:	e7f0      	b.n	402190 <prvListTasksWithinSingleList+0x18>
				listGET_OWNER_OF_NEXT_ENTRY( pxNextTCB, pxList );
  4021ae:	6863      	ldr	r3, [r4, #4]
  4021b0:	68de      	ldr	r6, [r3, #12]
				vTaskGetInfo( ( TaskHandle_t ) pxNextTCB, &( pxTaskStatusArray[ uxTask ] ), pdTRUE, eState );
  4021b2:	9b01      	ldr	r3, [sp, #4]
  4021b4:	4652      	mov	r2, sl
  4021b6:	4629      	mov	r1, r5
  4021b8:	4630      	mov	r0, r6
  4021ba:	47c8      	blx	r9
				uxTask++;
  4021bc:	3701      	adds	r7, #1
  4021be:	3524      	adds	r5, #36	; 0x24
			} while( pxNextTCB != pxFirstTCB );
  4021c0:	45b3      	cmp	fp, r6
  4021c2:	d008      	beq.n	4021d6 <prvListTasksWithinSingleList+0x5e>
				listGET_OWNER_OF_NEXT_ENTRY( pxNextTCB, pxList );
  4021c4:	6863      	ldr	r3, [r4, #4]
  4021c6:	685b      	ldr	r3, [r3, #4]
  4021c8:	6063      	str	r3, [r4, #4]
  4021ca:	4598      	cmp	r8, r3
  4021cc:	d1ef      	bne.n	4021ae <prvListTasksWithinSingleList+0x36>
  4021ce:	68e3      	ldr	r3, [r4, #12]
  4021d0:	6063      	str	r3, [r4, #4]
  4021d2:	e7ec      	b.n	4021ae <prvListTasksWithinSingleList+0x36>
	UBaseType_t uxTask = 0;
  4021d4:	2700      	movs	r7, #0
	}
  4021d6:	4638      	mov	r0, r7
  4021d8:	b003      	add	sp, #12
  4021da:	e8bd 8ff0 	ldmia.w	sp!, {r4, r5, r6, r7, r8, r9, sl, fp, pc}
  4021de:	bf00      	nop
  4021e0:	004020e1 	.word	0x004020e1

004021e4 <uxTaskGetSystemState>:
	{
  4021e4:	e92d 47f0 	stmdb	sp!, {r4, r5, r6, r7, r8, r9, sl, lr}
  4021e8:	4606      	mov	r6, r0
  4021ea:	460c      	mov	r4, r1
  4021ec:	4617      	mov	r7, r2
		vTaskSuspendAll();
  4021ee:	4b24      	ldr	r3, [pc, #144]	; (402280 <uxTaskGetSystemState+0x9c>)
  4021f0:	4798      	blx	r3
			if( uxArraySize >= uxCurrentNumberOfTasks )
  4021f2:	4b24      	ldr	r3, [pc, #144]	; (402284 <uxTaskGetSystemState+0xa0>)
  4021f4:	681b      	ldr	r3, [r3, #0]
  4021f6:	42a3      	cmp	r3, r4
  4021f8:	d83f      	bhi.n	40227a <uxTaskGetSystemState+0x96>
  4021fa:	4b23      	ldr	r3, [pc, #140]	; (402288 <uxTaskGetSystemState+0xa4>)
  4021fc:	f103 0550 	add.w	r5, r3, #80	; 0x50
  402200:	f1a3 0814 	sub.w	r8, r3, #20
  402204:	2400      	movs	r4, #0
					uxTask += prvListTasksWithinSingleList( &( pxTaskStatusArray[ uxTask ] ), &( pxReadyTasksLists[ uxQueue ] ), eReady );
  402206:	f04f 0a01 	mov.w	sl, #1
  40220a:	f8df 9084 	ldr.w	r9, [pc, #132]	; 402290 <uxTaskGetSystemState+0xac>
  40220e:	eb04 00c4 	add.w	r0, r4, r4, lsl #3
  402212:	4652      	mov	r2, sl
  402214:	4629      	mov	r1, r5
  402216:	eb06 0080 	add.w	r0, r6, r0, lsl #2
  40221a:	47c8      	blx	r9
  40221c:	4404      	add	r4, r0
  40221e:	3d14      	subs	r5, #20
				} while( uxQueue > ( UBaseType_t ) tskIDLE_PRIORITY ); /*lint !e961 MISRA exception as the casts are only redundant for some ports. */
  402220:	4545      	cmp	r5, r8
  402222:	d1f4      	bne.n	40220e <uxTaskGetSystemState+0x2a>
				uxTask += prvListTasksWithinSingleList( &( pxTaskStatusArray[ uxTask ] ), ( List_t * ) pxDelayedTaskList, eBlocked );
  402224:	4b19      	ldr	r3, [pc, #100]	; (40228c <uxTaskGetSystemState+0xa8>)
  402226:	6819      	ldr	r1, [r3, #0]
  402228:	eb04 00c4 	add.w	r0, r4, r4, lsl #3
  40222c:	2202      	movs	r2, #2
  40222e:	eb06 0080 	add.w	r0, r6, r0, lsl #2
  402232:	4d17      	ldr	r5, [pc, #92]	; (402290 <uxTaskGetSystemState+0xac>)
  402234:	47a8      	blx	r5
  402236:	4404      	add	r4, r0
				uxTask += prvListTasksWithinSingleList( &( pxTaskStatusArray[ uxTask ] ), ( List_t * ) pxOverflowDelayedTaskList, eBlocked );
  402238:	4b16      	ldr	r3, [pc, #88]	; (402294 <uxTaskGetSystemState+0xb0>)
  40223a:	6819      	ldr	r1, [r3, #0]
  40223c:	eb04 00c4 	add.w	r0, r4, r4, lsl #3
  402240:	2202      	movs	r2, #2
  402242:	eb06 0080 	add.w	r0, r6, r0, lsl #2
  402246:	47a8      	blx	r5
  402248:	4404      	add	r4, r0
					uxTask += prvListTasksWithinSingleList( &( pxTaskStatusArray[ uxTask ] ), &xTasksWaitingTermination, eDeleted );
  40224a:	eb04 00c4 	add.w	r0, r4, r4, lsl #3
  40224e:	2204      	movs	r2, #4
  402250:	4911      	ldr	r1, [pc, #68]	; (402298 <uxTaskGetSystemState+0xb4>)
  402252:	eb06 0080 	add.w	r0, r6, r0, lsl #2
  402256:	47a8      	blx	r5
  402258:	4404      	add	r4, r0
					uxTask += prvListTasksWithinSingleList( &( pxTaskStatusArray[ uxTask ] ), &xSuspendedTaskList, eSuspended );
  40225a:	eb04 00c4 	add.w	r0, r4, r4, lsl #3
  40225e:	2203      	movs	r2, #3
  402260:	490e      	ldr	r1, [pc, #56]	; (40229c <uxTaskGetSystemState+0xb8>)
  402262:	eb06 0080 	add.w	r0, r6, r0, lsl #2
  402266:	47a8      	blx	r5
  402268:	4404      	add	r4, r0
					if( pulTotalRunTime != NULL )
  40226a:	b10f      	cbz	r7, 402270 <uxTaskGetSystemState+0x8c>
						*pulTotalRunTime = 0;
  40226c:	2300      	movs	r3, #0
  40226e:	603b      	str	r3, [r7, #0]
		( void ) xTaskResumeAll();
  402270:	4b0b      	ldr	r3, [pc, #44]	; (4022a0 <uxTaskGetSystemState+0xbc>)
  402272:	4798      	blx	r3
	}
  402274:	4620      	mov	r0, r4
  402276:	e8bd 87f0 	ldmia.w	sp!, {r4, r5, r6, r7, r8, r9, sl, pc}
	UBaseType_t uxTask = 0, uxQueue = configMAX_PRIORITIES;
  40227a:	2400      	movs	r4, #0
  40227c:	e7f8      	b.n	402270 <uxTaskGetSystemState+0x8c>
  40227e:	bf00      	nop
  402280:	00401b59 	.word	0x00401b59
  402284:	20400ac4 	.word	0x20400ac4
  402288:	20400a60 	.word	0x20400a60
  40228c:	20400a58 	.word	0x20400a58
  402290:	00402179 	.word	0x00402179
  402294:	20400a5c 	.word	0x20400a5c
  402298:	20400b3c 	.word	0x20400b3c
  40229c:	20400b28 	.word	0x20400b28
  4022a0:	00401cc9 	.word	0x00401cc9

004022a4 <xTaskGetSchedulerState>:
		if( xSchedulerRunning == pdFALSE )
  4022a4:	4b05      	ldr	r3, [pc, #20]	; (4022bc <xTaskGetSchedulerState+0x18>)
  4022a6:	681b      	ldr	r3, [r3, #0]
  4022a8:	b133      	cbz	r3, 4022b8 <xTaskGetSchedulerState+0x14>
			if( uxSchedulerSuspended == ( UBaseType_t ) pdFALSE )
  4022aa:	4b05      	ldr	r3, [pc, #20]	; (4022c0 <xTaskGetSchedulerState+0x1c>)
  4022ac:	681b      	ldr	r3, [r3, #0]
				xReturn = taskSCHEDULER_SUSPENDED;
  4022ae:	2b00      	cmp	r3, #0
  4022b0:	bf0c      	ite	eq
  4022b2:	2002      	moveq	r0, #2
  4022b4:	2000      	movne	r0, #0
  4022b6:	4770      	bx	lr
			xReturn = taskSCHEDULER_NOT_STARTED;
  4022b8:	2001      	movs	r0, #1
	}
  4022ba:	4770      	bx	lr
  4022bc:	20400b24 	.word	0x20400b24
  4022c0:	20400ad0 	.word	0x20400ad0

004022c4 <xTaskPriorityDisinherit>:
		if( pxMutexHolder != NULL )
  4022c4:	2800      	cmp	r0, #0
  4022c6:	d04d      	beq.n	402364 <xTaskPriorityDisinherit+0xa0>
	{
  4022c8:	b538      	push	{r3, r4, r5, lr}
  4022ca:	4604      	mov	r4, r0
			configASSERT( pxTCB == pxCurrentTCB );
  4022cc:	4a27      	ldr	r2, [pc, #156]	; (40236c <xTaskPriorityDisinherit+0xa8>)
  4022ce:	6812      	ldr	r2, [r2, #0]
  4022d0:	4290      	cmp	r0, r2
  4022d2:	d00a      	beq.n	4022ea <xTaskPriorityDisinherit+0x26>
  4022d4:	f04f 0380 	mov.w	r3, #128	; 0x80
  4022d8:	b672      	cpsid	i
  4022da:	f383 8811 	msr	BASEPRI, r3
  4022de:	f3bf 8f6f 	isb	sy
  4022e2:	f3bf 8f4f 	dsb	sy
  4022e6:	b662      	cpsie	i
  4022e8:	e7fe      	b.n	4022e8 <xTaskPriorityDisinherit+0x24>
			configASSERT( pxTCB->uxMutexesHeld );
  4022ea:	6cc2      	ldr	r2, [r0, #76]	; 0x4c
  4022ec:	b952      	cbnz	r2, 402304 <xTaskPriorityDisinherit+0x40>
  4022ee:	f04f 0380 	mov.w	r3, #128	; 0x80
  4022f2:	b672      	cpsid	i
  4022f4:	f383 8811 	msr	BASEPRI, r3
  4022f8:	f3bf 8f6f 	isb	sy
  4022fc:	f3bf 8f4f 	dsb	sy
  402300:	b662      	cpsie	i
  402302:	e7fe      	b.n	402302 <xTaskPriorityDisinherit+0x3e>
			( pxTCB->uxMutexesHeld )--;
  402304:	3a01      	subs	r2, #1
  402306:	64c2      	str	r2, [r0, #76]	; 0x4c
			if( pxTCB->uxPriority != pxTCB->uxBasePriority )
  402308:	6ac0      	ldr	r0, [r0, #44]	; 0x2c
  40230a:	6ca1      	ldr	r1, [r4, #72]	; 0x48
				if( pxTCB->uxMutexesHeld == ( UBaseType_t ) 0 )
  40230c:	4288      	cmp	r0, r1
  40230e:	d02b      	beq.n	402368 <xTaskPriorityDisinherit+0xa4>
  402310:	bb52      	cbnz	r2, 402368 <xTaskPriorityDisinherit+0xa4>
					if( uxListRemove( &( pxTCB->xStateListItem ) ) == ( UBaseType_t ) 0 )
  402312:	1d25      	adds	r5, r4, #4
  402314:	4628      	mov	r0, r5
  402316:	4b16      	ldr	r3, [pc, #88]	; (402370 <xTaskPriorityDisinherit+0xac>)
  402318:	4798      	blx	r3
  40231a:	b968      	cbnz	r0, 402338 <xTaskPriorityDisinherit+0x74>
						taskRESET_READY_PRIORITY( pxTCB->uxPriority );
  40231c:	6ae1      	ldr	r1, [r4, #44]	; 0x2c
  40231e:	eb01 0381 	add.w	r3, r1, r1, lsl #2
  402322:	009b      	lsls	r3, r3, #2
  402324:	4a13      	ldr	r2, [pc, #76]	; (402374 <xTaskPriorityDisinherit+0xb0>)
  402326:	58d3      	ldr	r3, [r2, r3]
  402328:	b933      	cbnz	r3, 402338 <xTaskPriorityDisinherit+0x74>
  40232a:	4813      	ldr	r0, [pc, #76]	; (402378 <xTaskPriorityDisinherit+0xb4>)
  40232c:	6803      	ldr	r3, [r0, #0]
  40232e:	2201      	movs	r2, #1
  402330:	408a      	lsls	r2, r1
  402332:	ea23 0302 	bic.w	r3, r3, r2
  402336:	6003      	str	r3, [r0, #0]
					pxTCB->uxPriority = pxTCB->uxBasePriority;
  402338:	6ca0      	ldr	r0, [r4, #72]	; 0x48
  40233a:	62e0      	str	r0, [r4, #44]	; 0x2c
					listSET_LIST_ITEM_VALUE( &( pxTCB->xEventListItem ), ( TickType_t ) configMAX_PRIORITIES - ( TickType_t ) pxTCB->uxPriority ); /*lint !e961 MISRA exception as the casts are only redundant for some ports. */
  40233c:	f1c0 0305 	rsb	r3, r0, #5
  402340:	61a3      	str	r3, [r4, #24]
					prvAddTaskToReadyList( pxTCB );
  402342:	4a0d      	ldr	r2, [pc, #52]	; (402378 <xTaskPriorityDisinherit+0xb4>)
  402344:	6811      	ldr	r1, [r2, #0]
  402346:	2401      	movs	r4, #1
  402348:	fa04 f300 	lsl.w	r3, r4, r0
  40234c:	430b      	orrs	r3, r1
  40234e:	6013      	str	r3, [r2, #0]
  402350:	eb00 0080 	add.w	r0, r0, r0, lsl #2
  402354:	4629      	mov	r1, r5
  402356:	4b07      	ldr	r3, [pc, #28]	; (402374 <xTaskPriorityDisinherit+0xb0>)
  402358:	eb03 0080 	add.w	r0, r3, r0, lsl #2
  40235c:	4b07      	ldr	r3, [pc, #28]	; (40237c <xTaskPriorityDisinherit+0xb8>)
  40235e:	4798      	blx	r3
					xReturn = pdTRUE;
  402360:	4620      	mov	r0, r4
  402362:	bd38      	pop	{r3, r4, r5, pc}
	BaseType_t xReturn = pdFALSE;
  402364:	2000      	movs	r0, #0
  402366:	4770      	bx	lr
  402368:	2000      	movs	r0, #0
	}
  40236a:	bd38      	pop	{r3, r4, r5, pc}
  40236c:	20400a54 	.word	0x20400a54
  402370:	00400aed 	.word	0x00400aed
  402374:	20400a60 	.word	0x20400a60
  402378:	20400ad8 	.word	0x20400ad8
  40237c:	00400aa1 	.word	0x00400aa1

00402380 <vTaskList>:
	{
  402380:	e92d 47f0 	stmdb	sp!, {r4, r5, r6, r7, r8, r9, sl, lr}
  402384:	b084      	sub	sp, #16
  402386:	4604      	mov	r4, r0
		*pcWriteBuffer = 0x00;
  402388:	2300      	movs	r3, #0
  40238a:	7003      	strb	r3, [r0, #0]
		uxArraySize = uxCurrentNumberOfTasks;
  40238c:	4b3e      	ldr	r3, [pc, #248]	; (402488 <vTaskList+0x108>)
  40238e:	681a      	ldr	r2, [r3, #0]
  402390:	9203      	str	r2, [sp, #12]
		pxTaskStatusArray = pvPortMalloc( uxCurrentNumberOfTasks * sizeof( TaskStatus_t ) );
  402392:	6818      	ldr	r0, [r3, #0]
  402394:	eb00 00c0 	add.w	r0, r0, r0, lsl #3
  402398:	0080      	lsls	r0, r0, #2
  40239a:	4b3c      	ldr	r3, [pc, #240]	; (40248c <vTaskList+0x10c>)
  40239c:	4798      	blx	r3
		if( pxTaskStatusArray != NULL )
  40239e:	2800      	cmp	r0, #0
  4023a0:	d06f      	beq.n	402482 <vTaskList+0x102>
  4023a2:	4605      	mov	r5, r0
			uxArraySize = uxTaskGetSystemState( pxTaskStatusArray, uxArraySize, NULL );
  4023a4:	9903      	ldr	r1, [sp, #12]
  4023a6:	2200      	movs	r2, #0
  4023a8:	4b39      	ldr	r3, [pc, #228]	; (402490 <vTaskList+0x110>)
  4023aa:	4798      	blx	r3
  4023ac:	9003      	str	r0, [sp, #12]
			for( x = 0; x < uxArraySize; x++ )
  4023ae:	2300      	movs	r3, #0
  4023b0:	9302      	str	r3, [sp, #8]
  4023b2:	9a02      	ldr	r2, [sp, #8]
  4023b4:	9b03      	ldr	r3, [sp, #12]
  4023b6:	429a      	cmp	r2, r3
  4023b8:	d260      	bcs.n	40247c <vTaskList+0xfc>
										cStatus = 0x00;
  4023ba:	f04f 0800 	mov.w	r8, #0
		strcpy( pcBuffer, pcTaskName );
  4023be:	f8df 90e4 	ldr.w	r9, [pc, #228]	; 4024a4 <vTaskList+0x124>
		for( x = strlen( pcBuffer ); x < ( size_t ) ( configMAX_TASK_NAME_LEN - 1 ); x++ )
  4023c2:	4e34      	ldr	r6, [pc, #208]	; (402494 <vTaskList+0x114>)
  4023c4:	e045      	b.n	402452 <vTaskList+0xd2>
					case eBlocked:		cStatus = tskBLOCKED_CHAR;
  4023c6:	2742      	movs	r7, #66	; 0x42
  4023c8:	e006      	b.n	4023d8 <vTaskList+0x58>
					case eSuspended:	cStatus = tskSUSPENDED_CHAR;
  4023ca:	2753      	movs	r7, #83	; 0x53
										break;
  4023cc:	e004      	b.n	4023d8 <vTaskList+0x58>
					case eDeleted:		cStatus = tskDELETED_CHAR;
  4023ce:	2744      	movs	r7, #68	; 0x44
										break;
  4023d0:	e002      	b.n	4023d8 <vTaskList+0x58>
										cStatus = 0x00;
  4023d2:	4647      	mov	r7, r8
										break;
  4023d4:	e000      	b.n	4023d8 <vTaskList+0x58>
					case eReady:		cStatus = tskREADY_CHAR;
  4023d6:	2752      	movs	r7, #82	; 0x52
				pcWriteBuffer = prvWriteNameToBuffer( pcWriteBuffer, pxTaskStatusArray[ x ].pcTaskName );
  4023d8:	9b02      	ldr	r3, [sp, #8]
  4023da:	eb03 03c3 	add.w	r3, r3, r3, lsl #3
  4023de:	eb05 0383 	add.w	r3, r5, r3, lsl #2
		strcpy( pcBuffer, pcTaskName );
  4023e2:	6859      	ldr	r1, [r3, #4]
  4023e4:	4620      	mov	r0, r4
  4023e6:	47c8      	blx	r9
		for( x = strlen( pcBuffer ); x < ( size_t ) ( configMAX_TASK_NAME_LEN - 1 ); x++ )
  4023e8:	4620      	mov	r0, r4
  4023ea:	47b0      	blx	r6
  4023ec:	2808      	cmp	r0, #8
  4023ee:	d808      	bhi.n	402402 <vTaskList+0x82>
  4023f0:	4420      	add	r0, r4
  4023f2:	f104 0209 	add.w	r2, r4, #9
			pcBuffer[ x ] = ' ';
  4023f6:	2320      	movs	r3, #32
  4023f8:	f800 3b01 	strb.w	r3, [r0], #1
		for( x = strlen( pcBuffer ); x < ( size_t ) ( configMAX_TASK_NAME_LEN - 1 ); x++ )
  4023fc:	4282      	cmp	r2, r0
  4023fe:	d1fb      	bne.n	4023f8 <vTaskList+0x78>
  402400:	2009      	movs	r0, #9
		pcBuffer[ x ] = 0x00;
  402402:	eb04 0a00 	add.w	sl, r4, r0
  402406:	f804 8000 	strb.w	r8, [r4, r0]
				sprintf( pcWriteBuffer, "\t%c\t%u\t%u\t%u\r\n", cStatus, ( unsigned int ) pxTaskStatusArray[ x ].uxCurrentPriority, ( unsigned int ) pxTaskStatusArray[ x ].usStackHighWaterMark, ( unsigned int ) pxTaskStatusArray[ x ].xTaskNumber );
  40240a:	9b02      	ldr	r3, [sp, #8]
  40240c:	9a02      	ldr	r2, [sp, #8]
  40240e:	9902      	ldr	r1, [sp, #8]
  402410:	eb03 03c3 	add.w	r3, r3, r3, lsl #3
  402414:	eb05 0383 	add.w	r3, r5, r3, lsl #2
  402418:	691b      	ldr	r3, [r3, #16]
  40241a:	eb01 01c1 	add.w	r1, r1, r1, lsl #3
  40241e:	eb05 0181 	add.w	r1, r5, r1, lsl #2
  402422:	6889      	ldr	r1, [r1, #8]
  402424:	9101      	str	r1, [sp, #4]
  402426:	eb02 02c2 	add.w	r2, r2, r2, lsl #3
  40242a:	eb05 0282 	add.w	r2, r5, r2, lsl #2
  40242e:	8c12      	ldrh	r2, [r2, #32]
  402430:	9200      	str	r2, [sp, #0]
  402432:	463a      	mov	r2, r7
  402434:	4918      	ldr	r1, [pc, #96]	; (402498 <vTaskList+0x118>)
  402436:	4650      	mov	r0, sl
  402438:	4c18      	ldr	r4, [pc, #96]	; (40249c <vTaskList+0x11c>)
  40243a:	47a0      	blx	r4
				pcWriteBuffer += strlen( pcWriteBuffer );
  40243c:	4650      	mov	r0, sl
  40243e:	47b0      	blx	r6
  402440:	eb0a 0400 	add.w	r4, sl, r0
			for( x = 0; x < uxArraySize; x++ )
  402444:	9b02      	ldr	r3, [sp, #8]
  402446:	3301      	adds	r3, #1
  402448:	9302      	str	r3, [sp, #8]
  40244a:	9a02      	ldr	r2, [sp, #8]
  40244c:	9b03      	ldr	r3, [sp, #12]
  40244e:	429a      	cmp	r2, r3
  402450:	d214      	bcs.n	40247c <vTaskList+0xfc>
				switch( pxTaskStatusArray[ x ].eCurrentState )
  402452:	9b02      	ldr	r3, [sp, #8]
  402454:	eb03 03c3 	add.w	r3, r3, r3, lsl #3
  402458:	eb05 0383 	add.w	r3, r5, r3, lsl #2
  40245c:	7b1b      	ldrb	r3, [r3, #12]
  40245e:	3b01      	subs	r3, #1
  402460:	2b03      	cmp	r3, #3
  402462:	d8b6      	bhi.n	4023d2 <vTaskList+0x52>
  402464:	a201      	add	r2, pc, #4	; (adr r2, 40246c <vTaskList+0xec>)
  402466:	f852 f023 	ldr.w	pc, [r2, r3, lsl #2]
  40246a:	bf00      	nop
  40246c:	004023d7 	.word	0x004023d7
  402470:	004023c7 	.word	0x004023c7
  402474:	004023cb 	.word	0x004023cb
  402478:	004023cf 	.word	0x004023cf
			vPortFree( pxTaskStatusArray );
  40247c:	4628      	mov	r0, r5
  40247e:	4b08      	ldr	r3, [pc, #32]	; (4024a0 <vTaskList+0x120>)
  402480:	4798      	blx	r3
	}
  402482:	b004      	add	sp, #16
  402484:	e8bd 87f0 	ldmia.w	sp!, {r4, r5, r6, r7, r8, r9, sl, pc}
  402488:	20400ac4 	.word	0x20400ac4
  40248c:	00400e81 	.word	0x00400e81
  402490:	004021e5 	.word	0x004021e5
  402494:	00403841 	.word	0x00403841
  402498:	00409288 	.word	0x00409288
  40249c:	00403721 	.word	0x00403721
  4024a0:	00400eb1 	.word	0x00400eb1
  4024a4:	0040376d 	.word	0x0040376d

004024a8 <prvInsertTimerInActiveList>:
	return xTimeNow;
}
/*-----------------------------------------------------------*/

static BaseType_t prvInsertTimerInActiveList( Timer_t * const pxTimer, const TickType_t xNextExpiryTime, const TickType_t xTimeNow, const TickType_t xCommandTime )
{
  4024a8:	b508      	push	{r3, lr}
BaseType_t xProcessTimerNow = pdFALSE;

	listSET_LIST_ITEM_VALUE( &( pxTimer->xTimerListItem ), xNextExpiryTime );
  4024aa:	6041      	str	r1, [r0, #4]
	listSET_LIST_ITEM_OWNER( &( pxTimer->xTimerListItem ), pxTimer );
  4024ac:	6100      	str	r0, [r0, #16]

	if( xNextExpiryTime <= xTimeNow )
  4024ae:	4291      	cmp	r1, r2
  4024b0:	d80c      	bhi.n	4024cc <prvInsertTimerInActiveList+0x24>
	{
		/* Has the expiry time elapsed between the command to start/reset a
		timer was issued, and the time the command was processed? */
		if( ( ( TickType_t ) ( xTimeNow - xCommandTime ) ) >= pxTimer->xTimerPeriodInTicks ) /*lint !e961 MISRA exception as the casts are only redundant for some ports. */
  4024b2:	1ad2      	subs	r2, r2, r3
  4024b4:	6983      	ldr	r3, [r0, #24]
  4024b6:	429a      	cmp	r2, r3
  4024b8:	d301      	bcc.n	4024be <prvInsertTimerInActiveList+0x16>
		{
			/* The time between a command being issued and the command being
			processed actually exceeds the timers period.  */
			xProcessTimerNow = pdTRUE;
  4024ba:	2001      	movs	r0, #1
  4024bc:	bd08      	pop	{r3, pc}
		}
		else
		{
			vListInsert( pxOverflowTimerList, &( pxTimer->xTimerListItem ) );
  4024be:	1d01      	adds	r1, r0, #4
  4024c0:	4b09      	ldr	r3, [pc, #36]	; (4024e8 <prvInsertTimerInActiveList+0x40>)
  4024c2:	6818      	ldr	r0, [r3, #0]
  4024c4:	4b09      	ldr	r3, [pc, #36]	; (4024ec <prvInsertTimerInActiveList+0x44>)
  4024c6:	4798      	blx	r3
BaseType_t xProcessTimerNow = pdFALSE;
  4024c8:	2000      	movs	r0, #0
  4024ca:	bd08      	pop	{r3, pc}
		}
	}
	else
	{
		if( ( xTimeNow < xCommandTime ) && ( xNextExpiryTime >= xCommandTime ) )
  4024cc:	429a      	cmp	r2, r3
  4024ce:	d203      	bcs.n	4024d8 <prvInsertTimerInActiveList+0x30>
  4024d0:	4299      	cmp	r1, r3
  4024d2:	d301      	bcc.n	4024d8 <prvInsertTimerInActiveList+0x30>
		{
			/* If, since the command was issued, the tick count has overflowed
			but the expiry time has not, then the timer must have already passed
			its expiry time and should be processed immediately. */
			xProcessTimerNow = pdTRUE;
  4024d4:	2001      	movs	r0, #1
			vListInsert( pxCurrentTimerList, &( pxTimer->xTimerListItem ) );
		}
	}

	return xProcessTimerNow;
}
  4024d6:	bd08      	pop	{r3, pc}
			vListInsert( pxCurrentTimerList, &( pxTimer->xTimerListItem ) );
  4024d8:	1d01      	adds	r1, r0, #4
  4024da:	4b05      	ldr	r3, [pc, #20]	; (4024f0 <prvInsertTimerInActiveList+0x48>)
  4024dc:	6818      	ldr	r0, [r3, #0]
  4024de:	4b03      	ldr	r3, [pc, #12]	; (4024ec <prvInsertTimerInActiveList+0x44>)
  4024e0:	4798      	blx	r3
BaseType_t xProcessTimerNow = pdFALSE;
  4024e2:	2000      	movs	r0, #0
  4024e4:	bd08      	pop	{r3, pc}
  4024e6:	bf00      	nop
  4024e8:	20400b5c 	.word	0x20400b5c
  4024ec:	00400ab9 	.word	0x00400ab9
  4024f0:	20400b58 	.word	0x20400b58

004024f4 <prvCheckForValidListAndQueue>:
	pxOverflowTimerList = pxTemp;
}
/*-----------------------------------------------------------*/

static void prvCheckForValidListAndQueue( void )
{
  4024f4:	b570      	push	{r4, r5, r6, lr}
	/* Check that the list from which active timers are referenced, and the
	queue used to communicate with the timer service, have been
	initialised. */
	taskENTER_CRITICAL();
  4024f6:	4b10      	ldr	r3, [pc, #64]	; (402538 <prvCheckForValidListAndQueue+0x44>)
  4024f8:	4798      	blx	r3
	{
		if( xTimerQueue == NULL )
  4024fa:	4b10      	ldr	r3, [pc, #64]	; (40253c <prvCheckForValidListAndQueue+0x48>)
  4024fc:	681b      	ldr	r3, [r3, #0]
  4024fe:	b113      	cbz	r3, 402506 <prvCheckForValidListAndQueue+0x12>
		else
		{
			mtCOVERAGE_TEST_MARKER();
		}
	}
	taskEXIT_CRITICAL();
  402500:	4b0f      	ldr	r3, [pc, #60]	; (402540 <prvCheckForValidListAndQueue+0x4c>)
  402502:	4798      	blx	r3
  402504:	bd70      	pop	{r4, r5, r6, pc}
			vListInitialise( &xActiveTimerList1 );
  402506:	4d0f      	ldr	r5, [pc, #60]	; (402544 <prvCheckForValidListAndQueue+0x50>)
  402508:	4628      	mov	r0, r5
  40250a:	4e0f      	ldr	r6, [pc, #60]	; (402548 <prvCheckForValidListAndQueue+0x54>)
  40250c:	47b0      	blx	r6
			vListInitialise( &xActiveTimerList2 );
  40250e:	4c0f      	ldr	r4, [pc, #60]	; (40254c <prvCheckForValidListAndQueue+0x58>)
  402510:	4620      	mov	r0, r4
  402512:	47b0      	blx	r6
			pxCurrentTimerList = &xActiveTimerList1;
  402514:	4b0e      	ldr	r3, [pc, #56]	; (402550 <prvCheckForValidListAndQueue+0x5c>)
  402516:	601d      	str	r5, [r3, #0]
			pxOverflowTimerList = &xActiveTimerList2;
  402518:	4b0e      	ldr	r3, [pc, #56]	; (402554 <prvCheckForValidListAndQueue+0x60>)
  40251a:	601c      	str	r4, [r3, #0]
				xTimerQueue = xQueueCreate( ( UBaseType_t ) configTIMER_QUEUE_LENGTH, sizeof( DaemonTaskMessage_t ) );
  40251c:	2200      	movs	r2, #0
  40251e:	2110      	movs	r1, #16
  402520:	2005      	movs	r0, #5
  402522:	4b0d      	ldr	r3, [pc, #52]	; (402558 <prvCheckForValidListAndQueue+0x64>)
  402524:	4798      	blx	r3
  402526:	4b05      	ldr	r3, [pc, #20]	; (40253c <prvCheckForValidListAndQueue+0x48>)
  402528:	6018      	str	r0, [r3, #0]
				if( xTimerQueue != NULL )
  40252a:	2800      	cmp	r0, #0
  40252c:	d0e8      	beq.n	402500 <prvCheckForValidListAndQueue+0xc>
					vQueueAddToRegistry( xTimerQueue, "TmrQ" );
  40252e:	490b      	ldr	r1, [pc, #44]	; (40255c <prvCheckForValidListAndQueue+0x68>)
  402530:	4b0b      	ldr	r3, [pc, #44]	; (402560 <prvCheckForValidListAndQueue+0x6c>)
  402532:	4798      	blx	r3
  402534:	e7e4      	b.n	402500 <prvCheckForValidListAndQueue+0xc>
  402536:	bf00      	nop
  402538:	00400bf5 	.word	0x00400bf5
  40253c:	20400b8c 	.word	0x20400b8c
  402540:	00400c41 	.word	0x00400c41
  402544:	20400b60 	.word	0x20400b60
  402548:	00400a85 	.word	0x00400a85
  40254c:	20400b74 	.word	0x20400b74
  402550:	20400b58 	.word	0x20400b58
  402554:	20400b5c 	.word	0x20400b5c
  402558:	00401161 	.word	0x00401161
  40255c:	004092a0 	.word	0x004092a0
  402560:	00401659 	.word	0x00401659

00402564 <xTimerCreateTimerTask>:
{
  402564:	b510      	push	{r4, lr}
  402566:	b082      	sub	sp, #8
	prvCheckForValidListAndQueue();
  402568:	4b0e      	ldr	r3, [pc, #56]	; (4025a4 <xTimerCreateTimerTask+0x40>)
  40256a:	4798      	blx	r3
	if( xTimerQueue != NULL )
  40256c:	4b0e      	ldr	r3, [pc, #56]	; (4025a8 <xTimerCreateTimerTask+0x44>)
  40256e:	681b      	ldr	r3, [r3, #0]
  402570:	b16b      	cbz	r3, 40258e <xTimerCreateTimerTask+0x2a>
			xReturn = xTaskCreate(	prvTimerTask,
  402572:	4b0e      	ldr	r3, [pc, #56]	; (4025ac <xTimerCreateTimerTask+0x48>)
  402574:	9301      	str	r3, [sp, #4]
  402576:	2304      	movs	r3, #4
  402578:	9300      	str	r3, [sp, #0]
  40257a:	2300      	movs	r3, #0
  40257c:	f44f 7282 	mov.w	r2, #260	; 0x104
  402580:	490b      	ldr	r1, [pc, #44]	; (4025b0 <xTimerCreateTimerTask+0x4c>)
  402582:	480c      	ldr	r0, [pc, #48]	; (4025b4 <xTimerCreateTimerTask+0x50>)
  402584:	4c0c      	ldr	r4, [pc, #48]	; (4025b8 <xTimerCreateTimerTask+0x54>)
  402586:	47a0      	blx	r4
	configASSERT( xReturn );
  402588:	b108      	cbz	r0, 40258e <xTimerCreateTimerTask+0x2a>
}
  40258a:	b002      	add	sp, #8
  40258c:	bd10      	pop	{r4, pc}
  40258e:	f04f 0380 	mov.w	r3, #128	; 0x80
  402592:	b672      	cpsid	i
  402594:	f383 8811 	msr	BASEPRI, r3
  402598:	f3bf 8f6f 	isb	sy
  40259c:	f3bf 8f4f 	dsb	sy
  4025a0:	b662      	cpsie	i
  4025a2:	e7fe      	b.n	4025a2 <xTimerCreateTimerTask+0x3e>
  4025a4:	004024f5 	.word	0x004024f5
  4025a8:	20400b8c 	.word	0x20400b8c
  4025ac:	20400b90 	.word	0x20400b90
  4025b0:	004092a8 	.word	0x004092a8
  4025b4:	004026e5 	.word	0x004026e5
  4025b8:	00401849 	.word	0x00401849

004025bc <xTimerGenericCommand>:
	configASSERT( xTimer );
  4025bc:	b1d8      	cbz	r0, 4025f6 <xTimerGenericCommand+0x3a>
{
  4025be:	b530      	push	{r4, r5, lr}
  4025c0:	b085      	sub	sp, #20
  4025c2:	4615      	mov	r5, r2
  4025c4:	4604      	mov	r4, r0
	if( xTimerQueue != NULL )
  4025c6:	4a15      	ldr	r2, [pc, #84]	; (40261c <xTimerGenericCommand+0x60>)
  4025c8:	6810      	ldr	r0, [r2, #0]
  4025ca:	b320      	cbz	r0, 402616 <xTimerGenericCommand+0x5a>
  4025cc:	461a      	mov	r2, r3
		xMessage.xMessageID = xCommandID;
  4025ce:	9100      	str	r1, [sp, #0]
		xMessage.u.xTimerParameters.xMessageValue = xOptionalValue;
  4025d0:	9501      	str	r5, [sp, #4]
		xMessage.u.xTimerParameters.pxTimer = ( Timer_t * ) xTimer;
  4025d2:	9402      	str	r4, [sp, #8]
		if( xCommandID < tmrFIRST_FROM_ISR_COMMAND )
  4025d4:	2905      	cmp	r1, #5
  4025d6:	dc19      	bgt.n	40260c <xTimerGenericCommand+0x50>
			if( xTaskGetSchedulerState() == taskSCHEDULER_RUNNING )
  4025d8:	4b11      	ldr	r3, [pc, #68]	; (402620 <xTimerGenericCommand+0x64>)
  4025da:	4798      	blx	r3
  4025dc:	2802      	cmp	r0, #2
				xReturn = xQueueSendToBack( xTimerQueue, &xMessage, xTicksToWait );
  4025de:	f04f 0300 	mov.w	r3, #0
  4025e2:	bf0c      	ite	eq
  4025e4:	9a08      	ldreq	r2, [sp, #32]
				xReturn = xQueueSendToBack( xTimerQueue, &xMessage, tmrNO_DELAY );
  4025e6:	461a      	movne	r2, r3
  4025e8:	4669      	mov	r1, sp
  4025ea:	480c      	ldr	r0, [pc, #48]	; (40261c <xTimerGenericCommand+0x60>)
  4025ec:	6800      	ldr	r0, [r0, #0]
  4025ee:	4c0d      	ldr	r4, [pc, #52]	; (402624 <xTimerGenericCommand+0x68>)
  4025f0:	47a0      	blx	r4
}
  4025f2:	b005      	add	sp, #20
  4025f4:	bd30      	pop	{r4, r5, pc}
  4025f6:	f04f 0380 	mov.w	r3, #128	; 0x80
  4025fa:	b672      	cpsid	i
  4025fc:	f383 8811 	msr	BASEPRI, r3
  402600:	f3bf 8f6f 	isb	sy
  402604:	f3bf 8f4f 	dsb	sy
  402608:	b662      	cpsie	i
  40260a:	e7fe      	b.n	40260a <xTimerGenericCommand+0x4e>
			xReturn = xQueueSendToBackFromISR( xTimerQueue, &xMessage, pxHigherPriorityTaskWoken );
  40260c:	2300      	movs	r3, #0
  40260e:	4669      	mov	r1, sp
  402610:	4c05      	ldr	r4, [pc, #20]	; (402628 <xTimerGenericCommand+0x6c>)
  402612:	47a0      	blx	r4
  402614:	e7ed      	b.n	4025f2 <xTimerGenericCommand+0x36>
BaseType_t xReturn = pdFAIL;
  402616:	2000      	movs	r0, #0
	return xReturn;
  402618:	e7eb      	b.n	4025f2 <xTimerGenericCommand+0x36>
  40261a:	bf00      	nop
  40261c:	20400b8c 	.word	0x20400b8c
  402620:	004022a5 	.word	0x004022a5
  402624:	004011bd 	.word	0x004011bd
  402628:	004013ad 	.word	0x004013ad

0040262c <prvSampleTimeNow>:
{
  40262c:	e92d 47f0 	stmdb	sp!, {r4, r5, r6, r7, r8, r9, sl, lr}
  402630:	b082      	sub	sp, #8
  402632:	4680      	mov	r8, r0
	xTimeNow = xTaskGetTickCount();
  402634:	4b24      	ldr	r3, [pc, #144]	; (4026c8 <prvSampleTimeNow+0x9c>)
  402636:	4798      	blx	r3
  402638:	4607      	mov	r7, r0
	if( xTimeNow < xLastTime )
  40263a:	4b24      	ldr	r3, [pc, #144]	; (4026cc <prvSampleTimeNow+0xa0>)
  40263c:	681b      	ldr	r3, [r3, #0]
  40263e:	4298      	cmp	r0, r3
  402640:	d31b      	bcc.n	40267a <prvSampleTimeNow+0x4e>
		*pxTimerListsWereSwitched = pdFALSE;
  402642:	2300      	movs	r3, #0
  402644:	f8c8 3000 	str.w	r3, [r8]
	xLastTime = xTimeNow;
  402648:	4b20      	ldr	r3, [pc, #128]	; (4026cc <prvSampleTimeNow+0xa0>)
  40264a:	601f      	str	r7, [r3, #0]
}
  40264c:	4638      	mov	r0, r7
  40264e:	b002      	add	sp, #8
  402650:	e8bd 87f0 	ldmia.w	sp!, {r4, r5, r6, r7, r8, r9, sl, pc}
				xResult = xTimerGenericCommand( pxTimer, tmrCOMMAND_START_DONT_TRACE, xNextExpireTime, NULL, tmrNO_DELAY );
  402654:	2100      	movs	r1, #0
  402656:	9100      	str	r1, [sp, #0]
  402658:	460b      	mov	r3, r1
  40265a:	4652      	mov	r2, sl
  40265c:	4620      	mov	r0, r4
  40265e:	4c1c      	ldr	r4, [pc, #112]	; (4026d0 <prvSampleTimeNow+0xa4>)
  402660:	47a0      	blx	r4
				configASSERT( xResult );
  402662:	b960      	cbnz	r0, 40267e <prvSampleTimeNow+0x52>
  402664:	f04f 0380 	mov.w	r3, #128	; 0x80
  402668:	b672      	cpsid	i
  40266a:	f383 8811 	msr	BASEPRI, r3
  40266e:	f3bf 8f6f 	isb	sy
  402672:	f3bf 8f4f 	dsb	sy
  402676:	b662      	cpsie	i
  402678:	e7fe      	b.n	402678 <prvSampleTimeNow+0x4c>
	while( listLIST_IS_EMPTY( pxCurrentTimerList ) == pdFALSE )
  40267a:	4d16      	ldr	r5, [pc, #88]	; (4026d4 <prvSampleTimeNow+0xa8>)
		( void ) uxListRemove( &( pxTimer->xTimerListItem ) );
  40267c:	4e16      	ldr	r6, [pc, #88]	; (4026d8 <prvSampleTimeNow+0xac>)
	while( listLIST_IS_EMPTY( pxCurrentTimerList ) == pdFALSE )
  40267e:	682b      	ldr	r3, [r5, #0]
  402680:	681a      	ldr	r2, [r3, #0]
  402682:	b1c2      	cbz	r2, 4026b6 <prvSampleTimeNow+0x8a>
		xNextExpireTime = listGET_ITEM_VALUE_OF_HEAD_ENTRY( pxCurrentTimerList );
  402684:	68db      	ldr	r3, [r3, #12]
  402686:	f8d3 a000 	ldr.w	sl, [r3]
		pxTimer = ( Timer_t * ) listGET_OWNER_OF_HEAD_ENTRY( pxCurrentTimerList );
  40268a:	68dc      	ldr	r4, [r3, #12]
		( void ) uxListRemove( &( pxTimer->xTimerListItem ) );
  40268c:	f104 0904 	add.w	r9, r4, #4
  402690:	4648      	mov	r0, r9
  402692:	47b0      	blx	r6
		pxTimer->pxCallbackFunction( ( TimerHandle_t ) pxTimer );
  402694:	6a63      	ldr	r3, [r4, #36]	; 0x24
  402696:	4620      	mov	r0, r4
  402698:	4798      	blx	r3
		if( pxTimer->uxAutoReload == ( UBaseType_t ) pdTRUE )
  40269a:	69e3      	ldr	r3, [r4, #28]
  40269c:	2b01      	cmp	r3, #1
  40269e:	d1ee      	bne.n	40267e <prvSampleTimeNow+0x52>
			xReloadTime = ( xNextExpireTime + pxTimer->xTimerPeriodInTicks );
  4026a0:	69a3      	ldr	r3, [r4, #24]
  4026a2:	4453      	add	r3, sl
			if( xReloadTime > xNextExpireTime )
  4026a4:	459a      	cmp	sl, r3
  4026a6:	d2d5      	bcs.n	402654 <prvSampleTimeNow+0x28>
				listSET_LIST_ITEM_VALUE( &( pxTimer->xTimerListItem ), xReloadTime );
  4026a8:	6063      	str	r3, [r4, #4]
				listSET_LIST_ITEM_OWNER( &( pxTimer->xTimerListItem ), pxTimer );
  4026aa:	6124      	str	r4, [r4, #16]
				vListInsert( pxCurrentTimerList, &( pxTimer->xTimerListItem ) );
  4026ac:	4649      	mov	r1, r9
  4026ae:	6828      	ldr	r0, [r5, #0]
  4026b0:	4b0a      	ldr	r3, [pc, #40]	; (4026dc <prvSampleTimeNow+0xb0>)
  4026b2:	4798      	blx	r3
  4026b4:	e7e3      	b.n	40267e <prvSampleTimeNow+0x52>
	pxCurrentTimerList = pxOverflowTimerList;
  4026b6:	4a0a      	ldr	r2, [pc, #40]	; (4026e0 <prvSampleTimeNow+0xb4>)
  4026b8:	6810      	ldr	r0, [r2, #0]
  4026ba:	4906      	ldr	r1, [pc, #24]	; (4026d4 <prvSampleTimeNow+0xa8>)
  4026bc:	6008      	str	r0, [r1, #0]
	pxOverflowTimerList = pxTemp;
  4026be:	6013      	str	r3, [r2, #0]
		*pxTimerListsWereSwitched = pdTRUE;
  4026c0:	2301      	movs	r3, #1
  4026c2:	f8c8 3000 	str.w	r3, [r8]
  4026c6:	e7bf      	b.n	402648 <prvSampleTimeNow+0x1c>
  4026c8:	00401b69 	.word	0x00401b69
  4026cc:	20400b88 	.word	0x20400b88
  4026d0:	004025bd 	.word	0x004025bd
  4026d4:	20400b58 	.word	0x20400b58
  4026d8:	00400aed 	.word	0x00400aed
  4026dc:	00400ab9 	.word	0x00400ab9
  4026e0:	20400b5c 	.word	0x20400b5c

004026e4 <prvTimerTask>:
{
  4026e4:	e92d 47f0 	stmdb	sp!, {r4, r5, r6, r7, r8, r9, sl, lr}
  4026e8:	b088      	sub	sp, #32
	*pxListWasEmpty = listLIST_IS_EMPTY( pxCurrentTimerList );
  4026ea:	4e75      	ldr	r6, [pc, #468]	; (4028c0 <prvTimerTask+0x1dc>)
	vTaskSuspendAll();
  4026ec:	4f75      	ldr	r7, [pc, #468]	; (4028c4 <prvTimerTask+0x1e0>)
					portYIELD_WITHIN_API();
  4026ee:	f8df 91fc 	ldr.w	r9, [pc, #508]	; 4028ec <prvTimerTask+0x208>
	( void ) uxListRemove( &( pxTimer->xTimerListItem ) );
  4026f2:	f8df 81fc 	ldr.w	r8, [pc, #508]	; 4028f0 <prvTimerTask+0x20c>
	*pxListWasEmpty = listLIST_IS_EMPTY( pxCurrentTimerList );
  4026f6:	6833      	ldr	r3, [r6, #0]
  4026f8:	681a      	ldr	r2, [r3, #0]
	if( *pxListWasEmpty == pdFALSE )
  4026fa:	2a00      	cmp	r2, #0
  4026fc:	f000 80ce 	beq.w	40289c <prvTimerTask+0x1b8>
		xNextExpireTime = listGET_ITEM_VALUE_OF_HEAD_ENTRY( pxCurrentTimerList );
  402700:	68db      	ldr	r3, [r3, #12]
  402702:	681c      	ldr	r4, [r3, #0]
	vTaskSuspendAll();
  402704:	47b8      	blx	r7
		xTimeNow = prvSampleTimeNow( &xTimerListsWereSwitched );
  402706:	a804      	add	r0, sp, #16
  402708:	4b6f      	ldr	r3, [pc, #444]	; (4028c8 <prvTimerTask+0x1e4>)
  40270a:	4798      	blx	r3
  40270c:	4605      	mov	r5, r0
		if( xTimerListsWereSwitched == pdFALSE )
  40270e:	9b04      	ldr	r3, [sp, #16]
  402710:	2b00      	cmp	r3, #0
  402712:	d144      	bne.n	40279e <prvTimerTask+0xba>
			if( ( xListWasEmpty == pdFALSE ) && ( xNextExpireTime <= xTimeNow ) )
  402714:	42a0      	cmp	r0, r4
  402716:	d212      	bcs.n	40273e <prvTimerTask+0x5a>
  402718:	2200      	movs	r2, #0
				vQueueWaitForMessageRestricted( xTimerQueue, ( xNextExpireTime - xTimeNow ), xListWasEmpty );
  40271a:	1b61      	subs	r1, r4, r5
  40271c:	4b6b      	ldr	r3, [pc, #428]	; (4028cc <prvTimerTask+0x1e8>)
  40271e:	6818      	ldr	r0, [r3, #0]
  402720:	4b6b      	ldr	r3, [pc, #428]	; (4028d0 <prvTimerTask+0x1ec>)
  402722:	4798      	blx	r3
				if( xTaskResumeAll() == pdFALSE )
  402724:	4b6b      	ldr	r3, [pc, #428]	; (4028d4 <prvTimerTask+0x1f0>)
  402726:	4798      	blx	r3
  402728:	2800      	cmp	r0, #0
  40272a:	d13a      	bne.n	4027a2 <prvTimerTask+0xbe>
					portYIELD_WITHIN_API();
  40272c:	f04f 5380 	mov.w	r3, #268435456	; 0x10000000
  402730:	f8c9 3000 	str.w	r3, [r9]
  402734:	f3bf 8f4f 	dsb	sy
  402738:	f3bf 8f6f 	isb	sy
  40273c:	e031      	b.n	4027a2 <prvTimerTask+0xbe>
				( void ) xTaskResumeAll();
  40273e:	4b65      	ldr	r3, [pc, #404]	; (4028d4 <prvTimerTask+0x1f0>)
  402740:	4798      	blx	r3
Timer_t * const pxTimer = ( Timer_t * ) listGET_OWNER_OF_HEAD_ENTRY( pxCurrentTimerList );
  402742:	6833      	ldr	r3, [r6, #0]
  402744:	68db      	ldr	r3, [r3, #12]
  402746:	f8d3 a00c 	ldr.w	sl, [r3, #12]
	( void ) uxListRemove( &( pxTimer->xTimerListItem ) );
  40274a:	f10a 0004 	add.w	r0, sl, #4
  40274e:	47c0      	blx	r8
	if( pxTimer->uxAutoReload == ( UBaseType_t ) pdTRUE )
  402750:	f8da 301c 	ldr.w	r3, [sl, #28]
  402754:	2b01      	cmp	r3, #1
  402756:	d004      	beq.n	402762 <prvTimerTask+0x7e>
	pxTimer->pxCallbackFunction( ( TimerHandle_t ) pxTimer );
  402758:	f8da 3024 	ldr.w	r3, [sl, #36]	; 0x24
  40275c:	4650      	mov	r0, sl
  40275e:	4798      	blx	r3
  402760:	e01f      	b.n	4027a2 <prvTimerTask+0xbe>
		if( prvInsertTimerInActiveList( pxTimer, ( xNextExpireTime + pxTimer->xTimerPeriodInTicks ), xTimeNow, xNextExpireTime ) != pdFALSE )
  402762:	f8da 1018 	ldr.w	r1, [sl, #24]
  402766:	4623      	mov	r3, r4
  402768:	462a      	mov	r2, r5
  40276a:	4421      	add	r1, r4
  40276c:	4650      	mov	r0, sl
  40276e:	4d5a      	ldr	r5, [pc, #360]	; (4028d8 <prvTimerTask+0x1f4>)
  402770:	47a8      	blx	r5
  402772:	2800      	cmp	r0, #0
  402774:	d0f0      	beq.n	402758 <prvTimerTask+0x74>
			xResult = xTimerGenericCommand( pxTimer, tmrCOMMAND_START_DONT_TRACE, xNextExpireTime, NULL, tmrNO_DELAY );
  402776:	2100      	movs	r1, #0
  402778:	9100      	str	r1, [sp, #0]
  40277a:	460b      	mov	r3, r1
  40277c:	4622      	mov	r2, r4
  40277e:	4650      	mov	r0, sl
  402780:	4c56      	ldr	r4, [pc, #344]	; (4028dc <prvTimerTask+0x1f8>)
  402782:	47a0      	blx	r4
			configASSERT( xResult );
  402784:	2800      	cmp	r0, #0
  402786:	d1e7      	bne.n	402758 <prvTimerTask+0x74>
  402788:	f04f 0380 	mov.w	r3, #128	; 0x80
  40278c:	b672      	cpsid	i
  40278e:	f383 8811 	msr	BASEPRI, r3
  402792:	f3bf 8f6f 	isb	sy
  402796:	f3bf 8f4f 	dsb	sy
  40279a:	b662      	cpsie	i
  40279c:	e7fe      	b.n	40279c <prvTimerTask+0xb8>
			( void ) xTaskResumeAll();
  40279e:	4b4d      	ldr	r3, [pc, #308]	; (4028d4 <prvTimerTask+0x1f0>)
  4027a0:	4798      	blx	r3
	while( xQueueReceive( xTimerQueue, &xMessage, tmrNO_DELAY ) != pdFAIL ) /*lint !e603 xMessage does not have to be initialised as it is passed out, not in, and it is not used unless xQueueReceive() returns pdTRUE. */
  4027a2:	4d4a      	ldr	r5, [pc, #296]	; (4028cc <prvTimerTask+0x1e8>)
  4027a4:	4c4e      	ldr	r4, [pc, #312]	; (4028e0 <prvTimerTask+0x1fc>)
  4027a6:	e006      	b.n	4027b6 <prvTimerTask+0xd2>
				pxCallback->pxCallbackFunction( pxCallback->pvParameter1, pxCallback->ulParameter2 );
  4027a8:	9907      	ldr	r1, [sp, #28]
  4027aa:	9806      	ldr	r0, [sp, #24]
  4027ac:	9b05      	ldr	r3, [sp, #20]
  4027ae:	4798      	blx	r3
		if( xMessage.xMessageID >= ( BaseType_t ) 0 )
  4027b0:	9b04      	ldr	r3, [sp, #16]
  4027b2:	2b00      	cmp	r3, #0
  4027b4:	da08      	bge.n	4027c8 <prvTimerTask+0xe4>
	while( xQueueReceive( xTimerQueue, &xMessage, tmrNO_DELAY ) != pdFAIL ) /*lint !e603 xMessage does not have to be initialised as it is passed out, not in, and it is not used unless xQueueReceive() returns pdTRUE. */
  4027b6:	2200      	movs	r2, #0
  4027b8:	a904      	add	r1, sp, #16
  4027ba:	6828      	ldr	r0, [r5, #0]
  4027bc:	47a0      	blx	r4
  4027be:	2800      	cmp	r0, #0
  4027c0:	d099      	beq.n	4026f6 <prvTimerTask+0x12>
			if( xMessage.xMessageID < ( BaseType_t ) 0 )
  4027c2:	9b04      	ldr	r3, [sp, #16]
  4027c4:	2b00      	cmp	r3, #0
  4027c6:	dbef      	blt.n	4027a8 <prvTimerTask+0xc4>
			pxTimer = xMessage.u.xTimerParameters.pxTimer;
  4027c8:	f8dd a018 	ldr.w	sl, [sp, #24]
			if( listIS_CONTAINED_WITHIN( NULL, &( pxTimer->xTimerListItem ) ) == pdFALSE ) /*lint !e961. The cast is only redundant when NULL is passed into the macro. */
  4027cc:	f8da 3014 	ldr.w	r3, [sl, #20]
  4027d0:	b113      	cbz	r3, 4027d8 <prvTimerTask+0xf4>
				( void ) uxListRemove( &( pxTimer->xTimerListItem ) );
  4027d2:	f10a 0004 	add.w	r0, sl, #4
  4027d6:	47c0      	blx	r8
			xTimeNow = prvSampleTimeNow( &xTimerListsWereSwitched );
  4027d8:	a803      	add	r0, sp, #12
  4027da:	4b3b      	ldr	r3, [pc, #236]	; (4028c8 <prvTimerTask+0x1e4>)
  4027dc:	4798      	blx	r3
			switch( xMessage.xMessageID )
  4027de:	9b04      	ldr	r3, [sp, #16]
  4027e0:	2b09      	cmp	r3, #9
  4027e2:	d8e8      	bhi.n	4027b6 <prvTimerTask+0xd2>
  4027e4:	a201      	add	r2, pc, #4	; (adr r2, 4027ec <prvTimerTask+0x108>)
  4027e6:	f852 f023 	ldr.w	pc, [r2, r3, lsl #2]
  4027ea:	bf00      	nop
  4027ec:	00402815 	.word	0x00402815
  4027f0:	00402815 	.word	0x00402815
  4027f4:	00402815 	.word	0x00402815
  4027f8:	004027b7 	.word	0x004027b7
  4027fc:	00402869 	.word	0x00402869
  402800:	00402895 	.word	0x00402895
  402804:	00402815 	.word	0x00402815
  402808:	00402815 	.word	0x00402815
  40280c:	004027b7 	.word	0x004027b7
  402810:	00402869 	.word	0x00402869
					if( prvInsertTimerInActiveList( pxTimer,  xMessage.u.xTimerParameters.xMessageValue + pxTimer->xTimerPeriodInTicks, xTimeNow, xMessage.u.xTimerParameters.xMessageValue ) != pdFALSE )
  402814:	9c05      	ldr	r4, [sp, #20]
  402816:	f8da 1018 	ldr.w	r1, [sl, #24]
  40281a:	4623      	mov	r3, r4
  40281c:	4602      	mov	r2, r0
  40281e:	4421      	add	r1, r4
  402820:	4650      	mov	r0, sl
  402822:	4c2d      	ldr	r4, [pc, #180]	; (4028d8 <prvTimerTask+0x1f4>)
  402824:	47a0      	blx	r4
  402826:	2800      	cmp	r0, #0
  402828:	d0bc      	beq.n	4027a4 <prvTimerTask+0xc0>
						pxTimer->pxCallbackFunction( ( TimerHandle_t ) pxTimer );
  40282a:	f8da 3024 	ldr.w	r3, [sl, #36]	; 0x24
  40282e:	4650      	mov	r0, sl
  402830:	4798      	blx	r3
						if( pxTimer->uxAutoReload == ( UBaseType_t ) pdTRUE )
  402832:	f8da 301c 	ldr.w	r3, [sl, #28]
  402836:	2b01      	cmp	r3, #1
  402838:	d1b4      	bne.n	4027a4 <prvTimerTask+0xc0>
							xResult = xTimerGenericCommand( pxTimer, tmrCOMMAND_START_DONT_TRACE, xMessage.u.xTimerParameters.xMessageValue + pxTimer->xTimerPeriodInTicks, NULL, tmrNO_DELAY );
  40283a:	f8da 2018 	ldr.w	r2, [sl, #24]
  40283e:	2100      	movs	r1, #0
  402840:	9100      	str	r1, [sp, #0]
  402842:	460b      	mov	r3, r1
  402844:	9805      	ldr	r0, [sp, #20]
  402846:	4402      	add	r2, r0
  402848:	4650      	mov	r0, sl
  40284a:	4c24      	ldr	r4, [pc, #144]	; (4028dc <prvTimerTask+0x1f8>)
  40284c:	47a0      	blx	r4
							configASSERT( xResult );
  40284e:	2800      	cmp	r0, #0
  402850:	d1a8      	bne.n	4027a4 <prvTimerTask+0xc0>
  402852:	f04f 0380 	mov.w	r3, #128	; 0x80
  402856:	b672      	cpsid	i
  402858:	f383 8811 	msr	BASEPRI, r3
  40285c:	f3bf 8f6f 	isb	sy
  402860:	f3bf 8f4f 	dsb	sy
  402864:	b662      	cpsie	i
  402866:	e7fe      	b.n	402866 <prvTimerTask+0x182>
					pxTimer->xTimerPeriodInTicks = xMessage.u.xTimerParameters.xMessageValue;
  402868:	9905      	ldr	r1, [sp, #20]
  40286a:	f8ca 1018 	str.w	r1, [sl, #24]
					configASSERT( ( pxTimer->xTimerPeriodInTicks > 0 ) );
  40286e:	b131      	cbz	r1, 40287e <prvTimerTask+0x19a>
					( void ) prvInsertTimerInActiveList( pxTimer, ( xTimeNow + pxTimer->xTimerPeriodInTicks ), xTimeNow, xTimeNow );
  402870:	4603      	mov	r3, r0
  402872:	4602      	mov	r2, r0
  402874:	4401      	add	r1, r0
  402876:	4650      	mov	r0, sl
  402878:	4c17      	ldr	r4, [pc, #92]	; (4028d8 <prvTimerTask+0x1f4>)
  40287a:	47a0      	blx	r4
  40287c:	e792      	b.n	4027a4 <prvTimerTask+0xc0>
  40287e:	f04f 0380 	mov.w	r3, #128	; 0x80
  402882:	b672      	cpsid	i
  402884:	f383 8811 	msr	BASEPRI, r3
  402888:	f3bf 8f6f 	isb	sy
  40288c:	f3bf 8f4f 	dsb	sy
  402890:	b662      	cpsie	i
  402892:	e7fe      	b.n	402892 <prvTimerTask+0x1ae>
						vPortFree( pxTimer );
  402894:	4650      	mov	r0, sl
  402896:	4b13      	ldr	r3, [pc, #76]	; (4028e4 <prvTimerTask+0x200>)
  402898:	4798      	blx	r3
  40289a:	e783      	b.n	4027a4 <prvTimerTask+0xc0>
	vTaskSuspendAll();
  40289c:	47b8      	blx	r7
		xTimeNow = prvSampleTimeNow( &xTimerListsWereSwitched );
  40289e:	a804      	add	r0, sp, #16
  4028a0:	4b09      	ldr	r3, [pc, #36]	; (4028c8 <prvTimerTask+0x1e4>)
  4028a2:	4798      	blx	r3
  4028a4:	4605      	mov	r5, r0
		if( xTimerListsWereSwitched == pdFALSE )
  4028a6:	9b04      	ldr	r3, [sp, #16]
  4028a8:	2b00      	cmp	r3, #0
  4028aa:	f47f af78 	bne.w	40279e <prvTimerTask+0xba>
					xListWasEmpty = listLIST_IS_EMPTY( pxOverflowTimerList );
  4028ae:	4b0e      	ldr	r3, [pc, #56]	; (4028e8 <prvTimerTask+0x204>)
  4028b0:	681b      	ldr	r3, [r3, #0]
  4028b2:	681a      	ldr	r2, [r3, #0]
  4028b4:	fab2 f282 	clz	r2, r2
  4028b8:	0952      	lsrs	r2, r2, #5
  4028ba:	2400      	movs	r4, #0
  4028bc:	e72d      	b.n	40271a <prvTimerTask+0x36>
  4028be:	bf00      	nop
  4028c0:	20400b58 	.word	0x20400b58
  4028c4:	00401b59 	.word	0x00401b59
  4028c8:	0040262d 	.word	0x0040262d
  4028cc:	20400b8c 	.word	0x20400b8c
  4028d0:	0040168d 	.word	0x0040168d
  4028d4:	00401cc9 	.word	0x00401cc9
  4028d8:	004024a9 	.word	0x004024a9
  4028dc:	004025bd 	.word	0x004025bd
  4028e0:	004014c1 	.word	0x004014c1
  4028e4:	00400eb1 	.word	0x00400eb1
  4028e8:	20400b5c 	.word	0x20400b5c
  4028ec:	e000ed04 	.word	0xe000ed04
  4028f0:	00400aed 	.word	0x00400aed

004028f4 <task_monitor>:

/************************************************************************/
/* Tasks                                                                */
/************************************************************************/

static void task_monitor(void *pvParameters) {
  4028f4:	b580      	push	{r7, lr}
	static portCHAR szList[256];

	for (;;) {
		printf("--- task ## %u\n", (unsigned int)uxTaskGetNumberOfTasks());
  4028f6:	4f09      	ldr	r7, [pc, #36]	; (40291c <task_monitor+0x28>)
  4028f8:	4e09      	ldr	r6, [pc, #36]	; (402920 <task_monitor+0x2c>)
  4028fa:	4d0a      	ldr	r5, [pc, #40]	; (402924 <task_monitor+0x30>)
  4028fc:	47b8      	blx	r7
  4028fe:	4601      	mov	r1, r0
  402900:	4630      	mov	r0, r6
  402902:	47a8      	blx	r5
		vTaskList((signed portCHAR *)szList);
  402904:	4c08      	ldr	r4, [pc, #32]	; (402928 <task_monitor+0x34>)
  402906:	4620      	mov	r0, r4
  402908:	4b08      	ldr	r3, [pc, #32]	; (40292c <task_monitor+0x38>)
  40290a:	4798      	blx	r3
		printf(szList);
  40290c:	4620      	mov	r0, r4
  40290e:	47a8      	blx	r5
		vTaskDelay(1000);
  402910:	f44f 707a 	mov.w	r0, #1000	; 0x3e8
  402914:	4b06      	ldr	r3, [pc, #24]	; (402930 <task_monitor+0x3c>)
  402916:	4798      	blx	r3
  402918:	e7f0      	b.n	4028fc <task_monitor+0x8>
  40291a:	bf00      	nop
  40291c:	00401b75 	.word	0x00401b75
  402920:	0040938c 	.word	0x0040938c
  402924:	00402dcd 	.word	0x00402dcd
  402928:	20400b94 	.word	0x20400b94
  40292c:	00402381 	.word	0x00402381
  402930:	00401de1 	.word	0x00401de1

00402934 <usart_serial_getchar>:
 * \param p_usart   Base address of the USART instance.
 * \param data   Data to read
 *
 */
static inline void usart_serial_getchar(usart_if p_usart, uint8_t *data)
{
  402934:	b5f0      	push	{r4, r5, r6, r7, lr}
  402936:	b083      	sub	sp, #12
  402938:	4605      	mov	r5, r0
  40293a:	460c      	mov	r4, r1
	uint32_t val = 0;
  40293c:	2300      	movs	r3, #0
  40293e:	9301      	str	r3, [sp, #4]
	if (UART == (Uart*)p_usart) {
		while (uart_read((Uart*)p_usart, data));
	}
#else
# ifdef UART0
	if (UART0 == (Uart*)p_usart) {
  402940:	4b2a      	ldr	r3, [pc, #168]	; (4029ec <usart_serial_getchar+0xb8>)
  402942:	4298      	cmp	r0, r3
  402944:	d013      	beq.n	40296e <usart_serial_getchar+0x3a>
		while (uart_read((Uart*)p_usart, data));
	}
# endif
# ifdef UART1
	if (UART1 == (Uart*)p_usart) {
  402946:	4b2a      	ldr	r3, [pc, #168]	; (4029f0 <usart_serial_getchar+0xbc>)
  402948:	4298      	cmp	r0, r3
  40294a:	d018      	beq.n	40297e <usart_serial_getchar+0x4a>
		while (uart_read((Uart*)p_usart, data));
	}
# endif
# ifdef UART2
	if (UART2 == (Uart*)p_usart) {
  40294c:	4b29      	ldr	r3, [pc, #164]	; (4029f4 <usart_serial_getchar+0xc0>)
  40294e:	4298      	cmp	r0, r3
  402950:	d01d      	beq.n	40298e <usart_serial_getchar+0x5a>
		while (uart_read((Uart*)p_usart, data));
	}
# endif
# ifdef UART3
	if (UART3 == (Uart*)p_usart) {
  402952:	4b29      	ldr	r3, [pc, #164]	; (4029f8 <usart_serial_getchar+0xc4>)
  402954:	429d      	cmp	r5, r3
  402956:	d022      	beq.n	40299e <usart_serial_getchar+0x6a>
		while (usart_read(p_usart, &val));
		*data = (uint8_t)(val & 0xFF);
	}
#else
# ifdef USART0
	if (USART0 == p_usart) {
  402958:	4b28      	ldr	r3, [pc, #160]	; (4029fc <usart_serial_getchar+0xc8>)
  40295a:	429d      	cmp	r5, r3
  40295c:	d027      	beq.n	4029ae <usart_serial_getchar+0x7a>
		while (usart_read(p_usart, &val));
		*data = (uint8_t)(val & 0xFF);
	}
# endif
# ifdef USART1
	if (USART1 == p_usart) {
  40295e:	4b28      	ldr	r3, [pc, #160]	; (402a00 <usart_serial_getchar+0xcc>)
  402960:	429d      	cmp	r5, r3
  402962:	d02e      	beq.n	4029c2 <usart_serial_getchar+0x8e>
		while (usart_read(p_usart, &val));
		*data = (uint8_t)(val & 0xFF);
	}
# endif
# ifdef USART2
	if (USART2 == p_usart) {
  402964:	4b27      	ldr	r3, [pc, #156]	; (402a04 <usart_serial_getchar+0xd0>)
  402966:	429d      	cmp	r5, r3
  402968:	d035      	beq.n	4029d6 <usart_serial_getchar+0xa2>
		*data = (uint8_t)(val & 0xFF);
	}
# endif
#endif /* ifdef USART */

}
  40296a:	b003      	add	sp, #12
  40296c:	bdf0      	pop	{r4, r5, r6, r7, pc}
		while (uart_read((Uart*)p_usart, data));
  40296e:	461f      	mov	r7, r3
  402970:	4e25      	ldr	r6, [pc, #148]	; (402a08 <usart_serial_getchar+0xd4>)
  402972:	4621      	mov	r1, r4
  402974:	4638      	mov	r0, r7
  402976:	47b0      	blx	r6
  402978:	2800      	cmp	r0, #0
  40297a:	d1fa      	bne.n	402972 <usart_serial_getchar+0x3e>
  40297c:	e7e9      	b.n	402952 <usart_serial_getchar+0x1e>
		while (uart_read((Uart*)p_usart, data));
  40297e:	461f      	mov	r7, r3
  402980:	4e21      	ldr	r6, [pc, #132]	; (402a08 <usart_serial_getchar+0xd4>)
  402982:	4621      	mov	r1, r4
  402984:	4638      	mov	r0, r7
  402986:	47b0      	blx	r6
  402988:	2800      	cmp	r0, #0
  40298a:	d1fa      	bne.n	402982 <usart_serial_getchar+0x4e>
  40298c:	e7e4      	b.n	402958 <usart_serial_getchar+0x24>
		while (uart_read((Uart*)p_usart, data));
  40298e:	461f      	mov	r7, r3
  402990:	4e1d      	ldr	r6, [pc, #116]	; (402a08 <usart_serial_getchar+0xd4>)
  402992:	4621      	mov	r1, r4
  402994:	4638      	mov	r0, r7
  402996:	47b0      	blx	r6
  402998:	2800      	cmp	r0, #0
  40299a:	d1fa      	bne.n	402992 <usart_serial_getchar+0x5e>
  40299c:	e7df      	b.n	40295e <usart_serial_getchar+0x2a>
		while (uart_read((Uart*)p_usart, data));
  40299e:	461f      	mov	r7, r3
  4029a0:	4e19      	ldr	r6, [pc, #100]	; (402a08 <usart_serial_getchar+0xd4>)
  4029a2:	4621      	mov	r1, r4
  4029a4:	4638      	mov	r0, r7
  4029a6:	47b0      	blx	r6
  4029a8:	2800      	cmp	r0, #0
  4029aa:	d1fa      	bne.n	4029a2 <usart_serial_getchar+0x6e>
  4029ac:	e7da      	b.n	402964 <usart_serial_getchar+0x30>
		while (usart_read(p_usart, &val));
  4029ae:	461e      	mov	r6, r3
  4029b0:	4d16      	ldr	r5, [pc, #88]	; (402a0c <usart_serial_getchar+0xd8>)
  4029b2:	a901      	add	r1, sp, #4
  4029b4:	4630      	mov	r0, r6
  4029b6:	47a8      	blx	r5
  4029b8:	2800      	cmp	r0, #0
  4029ba:	d1fa      	bne.n	4029b2 <usart_serial_getchar+0x7e>
		*data = (uint8_t)(val & 0xFF);
  4029bc:	9b01      	ldr	r3, [sp, #4]
  4029be:	7023      	strb	r3, [r4, #0]
  4029c0:	e7d3      	b.n	40296a <usart_serial_getchar+0x36>
		while (usart_read(p_usart, &val));
  4029c2:	461e      	mov	r6, r3
  4029c4:	4d11      	ldr	r5, [pc, #68]	; (402a0c <usart_serial_getchar+0xd8>)
  4029c6:	a901      	add	r1, sp, #4
  4029c8:	4630      	mov	r0, r6
  4029ca:	47a8      	blx	r5
  4029cc:	2800      	cmp	r0, #0
  4029ce:	d1fa      	bne.n	4029c6 <usart_serial_getchar+0x92>
		*data = (uint8_t)(val & 0xFF);
  4029d0:	9b01      	ldr	r3, [sp, #4]
  4029d2:	7023      	strb	r3, [r4, #0]
  4029d4:	e7c9      	b.n	40296a <usart_serial_getchar+0x36>
		while (usart_read(p_usart, &val));
  4029d6:	461e      	mov	r6, r3
  4029d8:	4d0c      	ldr	r5, [pc, #48]	; (402a0c <usart_serial_getchar+0xd8>)
  4029da:	a901      	add	r1, sp, #4
  4029dc:	4630      	mov	r0, r6
  4029de:	47a8      	blx	r5
  4029e0:	2800      	cmp	r0, #0
  4029e2:	d1fa      	bne.n	4029da <usart_serial_getchar+0xa6>
		*data = (uint8_t)(val & 0xFF);
  4029e4:	9b01      	ldr	r3, [sp, #4]
  4029e6:	7023      	strb	r3, [r4, #0]
}
  4029e8:	e7bf      	b.n	40296a <usart_serial_getchar+0x36>
  4029ea:	bf00      	nop
  4029ec:	400e0800 	.word	0x400e0800
  4029f0:	400e0a00 	.word	0x400e0a00
  4029f4:	400e1a00 	.word	0x400e1a00
  4029f8:	400e1c00 	.word	0x400e1c00
  4029fc:	40024000 	.word	0x40024000
  402a00:	40028000 	.word	0x40028000
  402a04:	4002c000 	.word	0x4002c000
  402a08:	004006af 	.word	0x004006af
  402a0c:	004007bb 	.word	0x004007bb

00402a10 <usart_serial_putchar>:
{
  402a10:	b570      	push	{r4, r5, r6, lr}
  402a12:	460c      	mov	r4, r1
	if (UART0 == (Uart*)p_usart) {
  402a14:	4b2a      	ldr	r3, [pc, #168]	; (402ac0 <usart_serial_putchar+0xb0>)
  402a16:	4298      	cmp	r0, r3
  402a18:	d013      	beq.n	402a42 <usart_serial_putchar+0x32>
	if (UART1 == (Uart*)p_usart) {
  402a1a:	4b2a      	ldr	r3, [pc, #168]	; (402ac4 <usart_serial_putchar+0xb4>)
  402a1c:	4298      	cmp	r0, r3
  402a1e:	d019      	beq.n	402a54 <usart_serial_putchar+0x44>
	if (UART2 == (Uart*)p_usart) {
  402a20:	4b29      	ldr	r3, [pc, #164]	; (402ac8 <usart_serial_putchar+0xb8>)
  402a22:	4298      	cmp	r0, r3
  402a24:	d01f      	beq.n	402a66 <usart_serial_putchar+0x56>
	if (UART3 == (Uart*)p_usart) {
  402a26:	4b29      	ldr	r3, [pc, #164]	; (402acc <usart_serial_putchar+0xbc>)
  402a28:	4298      	cmp	r0, r3
  402a2a:	d025      	beq.n	402a78 <usart_serial_putchar+0x68>
	if (USART0 == p_usart) {
  402a2c:	4b28      	ldr	r3, [pc, #160]	; (402ad0 <usart_serial_putchar+0xc0>)
  402a2e:	4298      	cmp	r0, r3
  402a30:	d02b      	beq.n	402a8a <usart_serial_putchar+0x7a>
	if (USART1 == p_usart) {
  402a32:	4b28      	ldr	r3, [pc, #160]	; (402ad4 <usart_serial_putchar+0xc4>)
  402a34:	4298      	cmp	r0, r3
  402a36:	d031      	beq.n	402a9c <usart_serial_putchar+0x8c>
	if (USART2 == p_usart) {
  402a38:	4b27      	ldr	r3, [pc, #156]	; (402ad8 <usart_serial_putchar+0xc8>)
  402a3a:	4298      	cmp	r0, r3
  402a3c:	d037      	beq.n	402aae <usart_serial_putchar+0x9e>
	return 0;
  402a3e:	2000      	movs	r0, #0
}
  402a40:	bd70      	pop	{r4, r5, r6, pc}
		while (uart_write((Uart*)p_usart, c)!=0);
  402a42:	461e      	mov	r6, r3
  402a44:	4d25      	ldr	r5, [pc, #148]	; (402adc <usart_serial_putchar+0xcc>)
  402a46:	4621      	mov	r1, r4
  402a48:	4630      	mov	r0, r6
  402a4a:	47a8      	blx	r5
  402a4c:	2800      	cmp	r0, #0
  402a4e:	d1fa      	bne.n	402a46 <usart_serial_putchar+0x36>
		return 1;
  402a50:	2001      	movs	r0, #1
  402a52:	bd70      	pop	{r4, r5, r6, pc}
		while (uart_write((Uart*)p_usart, c)!=0);
  402a54:	461e      	mov	r6, r3
  402a56:	4d21      	ldr	r5, [pc, #132]	; (402adc <usart_serial_putchar+0xcc>)
  402a58:	4621      	mov	r1, r4
  402a5a:	4630      	mov	r0, r6
  402a5c:	47a8      	blx	r5
  402a5e:	2800      	cmp	r0, #0
  402a60:	d1fa      	bne.n	402a58 <usart_serial_putchar+0x48>
		return 1;
  402a62:	2001      	movs	r0, #1
  402a64:	bd70      	pop	{r4, r5, r6, pc}
		while (uart_write((Uart*)p_usart, c)!=0);
  402a66:	461e      	mov	r6, r3
  402a68:	4d1c      	ldr	r5, [pc, #112]	; (402adc <usart_serial_putchar+0xcc>)
  402a6a:	4621      	mov	r1, r4
  402a6c:	4630      	mov	r0, r6
  402a6e:	47a8      	blx	r5
  402a70:	2800      	cmp	r0, #0
  402a72:	d1fa      	bne.n	402a6a <usart_serial_putchar+0x5a>
		return 1;
  402a74:	2001      	movs	r0, #1
  402a76:	bd70      	pop	{r4, r5, r6, pc}
		while (uart_write((Uart*)p_usart, c)!=0);
  402a78:	461e      	mov	r6, r3
  402a7a:	4d18      	ldr	r5, [pc, #96]	; (402adc <usart_serial_putchar+0xcc>)
  402a7c:	4621      	mov	r1, r4
  402a7e:	4630      	mov	r0, r6
  402a80:	47a8      	blx	r5
  402a82:	2800      	cmp	r0, #0
  402a84:	d1fa      	bne.n	402a7c <usart_serial_putchar+0x6c>
		return 1;
  402a86:	2001      	movs	r0, #1
  402a88:	bd70      	pop	{r4, r5, r6, pc}
		while (usart_write(p_usart, c)!=0);
  402a8a:	461e      	mov	r6, r3
  402a8c:	4d14      	ldr	r5, [pc, #80]	; (402ae0 <usart_serial_putchar+0xd0>)
  402a8e:	4621      	mov	r1, r4
  402a90:	4630      	mov	r0, r6
  402a92:	47a8      	blx	r5
  402a94:	2800      	cmp	r0, #0
  402a96:	d1fa      	bne.n	402a8e <usart_serial_putchar+0x7e>
		return 1;
  402a98:	2001      	movs	r0, #1
  402a9a:	bd70      	pop	{r4, r5, r6, pc}
		while (usart_write(p_usart, c)!=0);
  402a9c:	461e      	mov	r6, r3
  402a9e:	4d10      	ldr	r5, [pc, #64]	; (402ae0 <usart_serial_putchar+0xd0>)
  402aa0:	4621      	mov	r1, r4
  402aa2:	4630      	mov	r0, r6
  402aa4:	47a8      	blx	r5
  402aa6:	2800      	cmp	r0, #0
  402aa8:	d1fa      	bne.n	402aa0 <usart_serial_putchar+0x90>
		return 1;
  402aaa:	2001      	movs	r0, #1
  402aac:	bd70      	pop	{r4, r5, r6, pc}
		while (usart_write(p_usart, c)!=0);
  402aae:	461e      	mov	r6, r3
  402ab0:	4d0b      	ldr	r5, [pc, #44]	; (402ae0 <usart_serial_putchar+0xd0>)
  402ab2:	4621      	mov	r1, r4
  402ab4:	4630      	mov	r0, r6
  402ab6:	47a8      	blx	r5
  402ab8:	2800      	cmp	r0, #0
  402aba:	d1fa      	bne.n	402ab2 <usart_serial_putchar+0xa2>
		return 1;
  402abc:	2001      	movs	r0, #1
  402abe:	bd70      	pop	{r4, r5, r6, pc}
  402ac0:	400e0800 	.word	0x400e0800
  402ac4:	400e0a00 	.word	0x400e0a00
  402ac8:	400e1a00 	.word	0x400e1a00
  402acc:	400e1c00 	.word	0x400e1c00
  402ad0:	40024000 	.word	0x40024000
  402ad4:	40028000 	.word	0x40028000
  402ad8:	4002c000 	.word	0x4002c000
  402adc:	0040069d 	.word	0x0040069d
  402ae0:	004007a5 	.word	0x004007a5

00402ae4 <vApplicationStackOverflowHook>:
		signed char *pcTaskName) {
  402ae4:	b508      	push	{r3, lr}
	printf("stack overflow %x %s\r\n", pxTask, (portCHAR *)pcTaskName);
  402ae6:	460a      	mov	r2, r1
  402ae8:	4601      	mov	r1, r0
  402aea:	4802      	ldr	r0, [pc, #8]	; (402af4 <vApplicationStackOverflowHook+0x10>)
  402aec:	4b02      	ldr	r3, [pc, #8]	; (402af8 <vApplicationStackOverflowHook+0x14>)
  402aee:	4798      	blx	r3
  402af0:	e7fe      	b.n	402af0 <vApplicationStackOverflowHook+0xc>
  402af2:	bf00      	nop
  402af4:	0040939c 	.word	0x0040939c
  402af8:	00402dcd 	.word	0x00402dcd

00402afc <vApplicationIdleHook>:
extern void vApplicationIdleHook(void) { }
  402afc:	4770      	bx	lr

00402afe <vApplicationTickHook>:
extern void vApplicationTickHook(void) { }
  402afe:	4770      	bx	lr

00402b00 <vApplicationMallocFailedHook>:
  402b00:	f04f 0380 	mov.w	r3, #128	; 0x80
  402b04:	b672      	cpsid	i
  402b06:	f383 8811 	msr	BASEPRI, r3
  402b0a:	f3bf 8f6f 	isb	sy
  402b0e:	f3bf 8f4f 	dsb	sy
  402b12:	b662      	cpsie	i
  402b14:	e7fe      	b.n	402b14 <vApplicationMallocFailedHook+0x14>
	...

00402b18 <pin_toggle>:
void pin_toggle(Pio *pio, uint32_t mask){
  402b18:	b538      	push	{r3, r4, r5, lr}
  402b1a:	4604      	mov	r4, r0
  402b1c:	460d      	mov	r5, r1
	if(pio_get_output_data_status(pio, mask))
  402b1e:	4b06      	ldr	r3, [pc, #24]	; (402b38 <pin_toggle+0x20>)
  402b20:	4798      	blx	r3
  402b22:	b920      	cbnz	r0, 402b2e <pin_toggle+0x16>
		pio_set(pio,mask);
  402b24:	4629      	mov	r1, r5
  402b26:	4620      	mov	r0, r4
  402b28:	4b04      	ldr	r3, [pc, #16]	; (402b3c <pin_toggle+0x24>)
  402b2a:	4798      	blx	r3
  402b2c:	bd38      	pop	{r3, r4, r5, pc}
		pio_clear(pio, mask);
  402b2e:	4629      	mov	r1, r5
  402b30:	4620      	mov	r0, r4
  402b32:	4b03      	ldr	r3, [pc, #12]	; (402b40 <pin_toggle+0x28>)
  402b34:	4798      	blx	r3
  402b36:	bd38      	pop	{r3, r4, r5, pc}
  402b38:	00400495 	.word	0x00400495
  402b3c:	00400465 	.word	0x00400465
  402b40:	00400469 	.word	0x00400469

00402b44 <task_led1>:
		pin_toggle(LED_PIO, LED_IDX_MASK);
		vTaskDelay(xDelay);
	}
}

static void task_led1(void *pvParameters) {
  402b44:	e92d 41f0 	stmdb	sp!, {r4, r5, r6, r7, r8, lr}
  402b48:	b082      	sub	sp, #8
	pmc_enable_periph_clk(LED1_PIO_ID);
  402b4a:	200a      	movs	r0, #10
  402b4c:	4b17      	ldr	r3, [pc, #92]	; (402bac <task_led1+0x68>)
  402b4e:	4798      	blx	r3
	pio_set_output(LED1_PIO, LED1_IDX_MASK, 1, 0, 0);
  402b50:	2300      	movs	r3, #0
  402b52:	9300      	str	r3, [sp, #0]
  402b54:	2201      	movs	r2, #1
  402b56:	4611      	mov	r1, r2
  402b58:	4815      	ldr	r0, [pc, #84]	; (402bb0 <task_led1+0x6c>)
  402b5a:	4c16      	ldr	r4, [pc, #88]	; (402bb4 <task_led1+0x70>)
  402b5c:	47a0      	blx	r4
	const TickType_t xDelay = 3000 / portTICK_PERIOD_MS;
	
	for (;;) {
		pin_toggle(LED1_PIO, LED1_IDX_MASK);
  402b5e:	4f14      	ldr	r7, [pc, #80]	; (402bb0 <task_led1+0x6c>)
  402b60:	2601      	movs	r6, #1
		vTaskDelay(xDelay/100);
  402b62:	f04f 081e 	mov.w	r8, #30
		pin_toggle(LED1_PIO, LED1_IDX_MASK);
  402b66:	4631      	mov	r1, r6
  402b68:	4638      	mov	r0, r7
  402b6a:	4d13      	ldr	r5, [pc, #76]	; (402bb8 <task_led1+0x74>)
  402b6c:	47a8      	blx	r5
		vTaskDelay(xDelay/100);
  402b6e:	4640      	mov	r0, r8
  402b70:	4c12      	ldr	r4, [pc, #72]	; (402bbc <task_led1+0x78>)
  402b72:	47a0      	blx	r4
		pin_toggle(LED1_PIO, LED1_IDX_MASK);
  402b74:	4631      	mov	r1, r6
  402b76:	4638      	mov	r0, r7
  402b78:	47a8      	blx	r5
		vTaskDelay(xDelay/100);
  402b7a:	4640      	mov	r0, r8
  402b7c:	47a0      	blx	r4
		pin_toggle(LED1_PIO, LED1_IDX_MASK);
  402b7e:	4631      	mov	r1, r6
  402b80:	4638      	mov	r0, r7
  402b82:	47a8      	blx	r5
		vTaskDelay(xDelay/100);
  402b84:	4640      	mov	r0, r8
  402b86:	47a0      	blx	r4
		pin_toggle(LED1_PIO, LED1_IDX_MASK);
  402b88:	4631      	mov	r1, r6
  402b8a:	4638      	mov	r0, r7
  402b8c:	47a8      	blx	r5
		vTaskDelay(xDelay/100);
  402b8e:	4640      	mov	r0, r8
  402b90:	47a0      	blx	r4
		pin_toggle(LED1_PIO, LED1_IDX_MASK);
  402b92:	4631      	mov	r1, r6
  402b94:	4638      	mov	r0, r7
  402b96:	47a8      	blx	r5
		vTaskDelay(xDelay/100);
  402b98:	4640      	mov	r0, r8
  402b9a:	47a0      	blx	r4
		pin_toggle(LED1_PIO, LED1_IDX_MASK);
  402b9c:	4631      	mov	r1, r6
  402b9e:	4638      	mov	r0, r7
  402ba0:	47a8      	blx	r5
		//pin_toggle(LED1_PIO, LED1_IDX_MASK);				//FALTA PISCAR O KED
		//pin_toggle(LED1_PIO, LED1_IDX_MASK);
		//pin_toggle(LED1_PIO, LED1_IDX_MASK);
		//pin_toggle(LED1_PIO, LED1_IDX_MASK);
		
		vTaskDelay(xDelay);
  402ba2:	f640 30b8 	movw	r0, #3000	; 0xbb8
  402ba6:	47a0      	blx	r4
  402ba8:	e7dd      	b.n	402b66 <task_led1+0x22>
  402baa:	bf00      	nop
  402bac:	0040067d 	.word	0x0040067d
  402bb0:	400e0e00 	.word	0x400e0e00
  402bb4:	0040046d 	.word	0x0040046d
  402bb8:	00402b19 	.word	0x00402b19
  402bbc:	00401de1 	.word	0x00401de1

00402bc0 <LED_init>:
void LED_init(int estado) {
  402bc0:	b510      	push	{r4, lr}
  402bc2:	b082      	sub	sp, #8
  402bc4:	4604      	mov	r4, r0
	pmc_enable_periph_clk(LED_PIO_ID);
  402bc6:	200c      	movs	r0, #12
  402bc8:	4b05      	ldr	r3, [pc, #20]	; (402be0 <LED_init+0x20>)
  402bca:	4798      	blx	r3
	pio_set_output(LED_PIO, LED_IDX_MASK, estado, 0, 0);
  402bcc:	2300      	movs	r3, #0
  402bce:	9300      	str	r3, [sp, #0]
  402bd0:	4622      	mov	r2, r4
  402bd2:	f44f 7180 	mov.w	r1, #256	; 0x100
  402bd6:	4803      	ldr	r0, [pc, #12]	; (402be4 <LED_init+0x24>)
  402bd8:	4c03      	ldr	r4, [pc, #12]	; (402be8 <LED_init+0x28>)
  402bda:	47a0      	blx	r4
};
  402bdc:	b002      	add	sp, #8
  402bde:	bd10      	pop	{r4, pc}
  402be0:	0040067d 	.word	0x0040067d
  402be4:	400e1200 	.word	0x400e1200
  402be8:	0040046d 	.word	0x0040046d

00402bec <task_led>:
static void task_led(void *pvParameters) {
  402bec:	b570      	push	{r4, r5, r6, lr}
	LED_init(1);
  402bee:	2001      	movs	r0, #1
  402bf0:	4b06      	ldr	r3, [pc, #24]	; (402c0c <task_led+0x20>)
  402bf2:	4798      	blx	r3
		pin_toggle(LED_PIO, LED_IDX_MASK);
  402bf4:	4e06      	ldr	r6, [pc, #24]	; (402c10 <task_led+0x24>)
  402bf6:	4d07      	ldr	r5, [pc, #28]	; (402c14 <task_led+0x28>)
		vTaskDelay(xDelay);
  402bf8:	4c07      	ldr	r4, [pc, #28]	; (402c18 <task_led+0x2c>)
		pin_toggle(LED_PIO, LED_IDX_MASK);
  402bfa:	f44f 7180 	mov.w	r1, #256	; 0x100
  402bfe:	4630      	mov	r0, r6
  402c00:	47a8      	blx	r5
		vTaskDelay(xDelay);
  402c02:	f44f 60fa 	mov.w	r0, #2000	; 0x7d0
  402c06:	47a0      	blx	r4
  402c08:	e7f7      	b.n	402bfa <task_led+0xe>
  402c0a:	bf00      	nop
  402c0c:	00402bc1 	.word	0x00402bc1
  402c10:	400e1200 	.word	0x400e1200
  402c14:	00402b19 	.word	0x00402b19
  402c18:	00401de1 	.word	0x00401de1

00402c1c <main>:

/************************************************************************/
/* main                                                                */
/************************************************************************/

int main(void) {
  402c1c:	b570      	push	{r4, r5, r6, lr}
  402c1e:	b088      	sub	sp, #32
	sysclk_init();
  402c20:	4b35      	ldr	r3, [pc, #212]	; (402cf8 <main+0xdc>)
  402c22:	4798      	blx	r3
	board_init();
  402c24:	4b35      	ldr	r3, [pc, #212]	; (402cfc <main+0xe0>)
  402c26:	4798      	blx	r3
 * \param opt         Options needed to set up RS232 communication (see \ref usart_options_t).
 *
 */
static inline void stdio_serial_init(volatile void *usart, const usart_serial_options_t *opt)
{
	stdio_base = (void *)usart;
  402c28:	4d35      	ldr	r5, [pc, #212]	; (402d00 <main+0xe4>)
  402c2a:	4b36      	ldr	r3, [pc, #216]	; (402d04 <main+0xe8>)
  402c2c:	601d      	str	r5, [r3, #0]
	ptr_put = (int (*)(void volatile*,char))&usart_serial_putchar;
  402c2e:	4a36      	ldr	r2, [pc, #216]	; (402d08 <main+0xec>)
  402c30:	4b36      	ldr	r3, [pc, #216]	; (402d0c <main+0xf0>)
  402c32:	601a      	str	r2, [r3, #0]
	ptr_get = (void (*)(void volatile*,char*))&usart_serial_getchar;
  402c34:	4a36      	ldr	r2, [pc, #216]	; (402d10 <main+0xf4>)
  402c36:	4b37      	ldr	r3, [pc, #220]	; (402d14 <main+0xf8>)
  402c38:	601a      	str	r2, [r3, #0]
	usart_settings.baudrate = opt->baudrate;
  402c3a:	f44f 33e1 	mov.w	r3, #115200	; 0x1c200
  402c3e:	9302      	str	r3, [sp, #8]
	usart_settings.char_length = opt->charlength;
  402c40:	23c0      	movs	r3, #192	; 0xc0
  402c42:	9303      	str	r3, [sp, #12]
	usart_settings.parity_type = opt->paritytype;
  402c44:	f44f 6300 	mov.w	r3, #2048	; 0x800
  402c48:	9304      	str	r3, [sp, #16]
	usart_settings.stop_bits= opt->stopbits;
  402c4a:	2400      	movs	r4, #0
  402c4c:	9405      	str	r4, [sp, #20]
	usart_settings.channel_mode= US_MR_CHMODE_NORMAL;
  402c4e:	9406      	str	r4, [sp, #24]
  402c50:	200e      	movs	r0, #14
  402c52:	4b31      	ldr	r3, [pc, #196]	; (402d18 <main+0xfc>)
  402c54:	4798      	blx	r3
		usart_init_rs232(p_usart, &usart_settings,
  402c56:	4a31      	ldr	r2, [pc, #196]	; (402d1c <main+0x100>)
  402c58:	a902      	add	r1, sp, #8
  402c5a:	4628      	mov	r0, r5
  402c5c:	4b30      	ldr	r3, [pc, #192]	; (402d20 <main+0x104>)
  402c5e:	4798      	blx	r3
		usart_enable_tx(p_usart);
  402c60:	4628      	mov	r0, r5
  402c62:	4b30      	ldr	r3, [pc, #192]	; (402d24 <main+0x108>)
  402c64:	4798      	blx	r3
		usart_enable_rx(p_usart);
  402c66:	4628      	mov	r0, r5
  402c68:	4b2f      	ldr	r3, [pc, #188]	; (402d28 <main+0x10c>)
  402c6a:	4798      	blx	r3
	fdevopen((int (*)(char, FILE*))(_write),(int (*)(FILE*))(_read));
#  endif
#  if UC3 || SAM
	// For AVR32 and SAM GCC
	// Specify that stdout and stdin should not be buffered.
	setbuf(stdout, NULL);
  402c6c:	4e2f      	ldr	r6, [pc, #188]	; (402d2c <main+0x110>)
  402c6e:	6833      	ldr	r3, [r6, #0]
  402c70:	4621      	mov	r1, r4
  402c72:	6898      	ldr	r0, [r3, #8]
  402c74:	4d2e      	ldr	r5, [pc, #184]	; (402d30 <main+0x114>)
  402c76:	47a8      	blx	r5
	setbuf(stdin, NULL);
  402c78:	6833      	ldr	r3, [r6, #0]
  402c7a:	4621      	mov	r1, r4
  402c7c:	6858      	ldr	r0, [r3, #4]
  402c7e:	47a8      	blx	r5
	setbuf(stdout, NULL);
  402c80:	6833      	ldr	r3, [r6, #0]
  402c82:	4621      	mov	r1, r4
  402c84:	6898      	ldr	r0, [r3, #8]
  402c86:	47a8      	blx	r5

	/* Initialize the console uart */
	configure_console();

	/* Output demo information. */
	printf("-- Freertos Example --\n\r");
  402c88:	482a      	ldr	r0, [pc, #168]	; (402d34 <main+0x118>)
  402c8a:	4d2b      	ldr	r5, [pc, #172]	; (402d38 <main+0x11c>)
  402c8c:	47a8      	blx	r5
	printf("-- %s\n\r", BOARD_NAME);
  402c8e:	492b      	ldr	r1, [pc, #172]	; (402d3c <main+0x120>)
  402c90:	482b      	ldr	r0, [pc, #172]	; (402d40 <main+0x124>)
  402c92:	47a8      	blx	r5
	printf("-- Compiled: %s %s --\n\r", __DATE__, __TIME__);
  402c94:	4a2b      	ldr	r2, [pc, #172]	; (402d44 <main+0x128>)
  402c96:	492c      	ldr	r1, [pc, #176]	; (402d48 <main+0x12c>)
  402c98:	482c      	ldr	r0, [pc, #176]	; (402d4c <main+0x130>)
  402c9a:	47a8      	blx	r5


	/* Create task to monitor processor activity */
	if (xTaskCreate(task_monitor, "Monitor", TASK_MONITOR_STACK_SIZE, NULL,
  402c9c:	9401      	str	r4, [sp, #4]
  402c9e:	9400      	str	r4, [sp, #0]
  402ca0:	4623      	mov	r3, r4
  402ca2:	f44f 7200 	mov.w	r2, #512	; 0x200
  402ca6:	492a      	ldr	r1, [pc, #168]	; (402d50 <main+0x134>)
  402ca8:	482a      	ldr	r0, [pc, #168]	; (402d54 <main+0x138>)
  402caa:	4c2b      	ldr	r4, [pc, #172]	; (402d58 <main+0x13c>)
  402cac:	47a0      	blx	r4
  402cae:	2801      	cmp	r0, #1
  402cb0:	d001      	beq.n	402cb6 <main+0x9a>
			TASK_MONITOR_STACK_PRIORITY, NULL) != pdPASS) {
		printf("Failed to create Monitor task\r\n");
  402cb2:	482a      	ldr	r0, [pc, #168]	; (402d5c <main+0x140>)
  402cb4:	47a8      	blx	r5
	}

	/* Create task to make led blink */
	if (xTaskCreate(task_led, "Led", TASK_LED_STACK_SIZE, NULL,
  402cb6:	2300      	movs	r3, #0
  402cb8:	9301      	str	r3, [sp, #4]
  402cba:	9300      	str	r3, [sp, #0]
  402cbc:	f44f 7280 	mov.w	r2, #256	; 0x100
  402cc0:	4927      	ldr	r1, [pc, #156]	; (402d60 <main+0x144>)
  402cc2:	4828      	ldr	r0, [pc, #160]	; (402d64 <main+0x148>)
  402cc4:	4c24      	ldr	r4, [pc, #144]	; (402d58 <main+0x13c>)
  402cc6:	47a0      	blx	r4
  402cc8:	2801      	cmp	r0, #1
  402cca:	d002      	beq.n	402cd2 <main+0xb6>
			TASK_LED_STACK_PRIORITY, NULL) != pdPASS) {
		printf("Failed to create test led task\r\n");
  402ccc:	4826      	ldr	r0, [pc, #152]	; (402d68 <main+0x14c>)
  402cce:	4b1a      	ldr	r3, [pc, #104]	; (402d38 <main+0x11c>)
  402cd0:	4798      	blx	r3
	}
	
	if (xTaskCreate(task_led1, "Led1", TASK_LED1_STACK_SIZE, NULL,
  402cd2:	2300      	movs	r3, #0
  402cd4:	9301      	str	r3, [sp, #4]
  402cd6:	9300      	str	r3, [sp, #0]
  402cd8:	f44f 7280 	mov.w	r2, #256	; 0x100
  402cdc:	4923      	ldr	r1, [pc, #140]	; (402d6c <main+0x150>)
  402cde:	4824      	ldr	r0, [pc, #144]	; (402d70 <main+0x154>)
  402ce0:	4c1d      	ldr	r4, [pc, #116]	; (402d58 <main+0x13c>)
  402ce2:	47a0      	blx	r4
  402ce4:	2801      	cmp	r0, #1
  402ce6:	d002      	beq.n	402cee <main+0xd2>
			 TASK_LED1_PRIORITY, NULL) != pdPASS) {
		printf("Failed to create test led1 task\r\n");
  402ce8:	4822      	ldr	r0, [pc, #136]	; (402d74 <main+0x158>)
  402cea:	4b13      	ldr	r3, [pc, #76]	; (402d38 <main+0x11c>)
  402cec:	4798      	blx	r3
	}
	

	/* Start the scheduler. */
	vTaskStartScheduler();
  402cee:	4b22      	ldr	r3, [pc, #136]	; (402d78 <main+0x15c>)
  402cf0:	4798      	blx	r3

	/* Will only get here if there was insufficient memory to create the idle task. */
	return 0;
}
  402cf2:	2000      	movs	r0, #0
  402cf4:	b008      	add	sp, #32
  402cf6:	bd70      	pop	{r4, r5, r6, pc}
  402cf8:	004001d5 	.word	0x004001d5
  402cfc:	004002d1 	.word	0x004002d1
  402d00:	40028000 	.word	0x40028000
  402d04:	20400cd0 	.word	0x20400cd0
  402d08:	00402a11 	.word	0x00402a11
  402d0c:	20400ccc 	.word	0x20400ccc
  402d10:	00402935 	.word	0x00402935
  402d14:	20400cc8 	.word	0x20400cc8
  402d18:	0040067d 	.word	0x0040067d
  402d1c:	08f0d180 	.word	0x08f0d180
  402d20:	00400745 	.word	0x00400745
  402d24:	00400799 	.word	0x00400799
  402d28:	0040079f 	.word	0x0040079f
  402d2c:	2040000c 	.word	0x2040000c
  402d30:	00403581 	.word	0x00403581
  402d34:	004092b0 	.word	0x004092b0
  402d38:	00402dcd 	.word	0x00402dcd
  402d3c:	004092cc 	.word	0x004092cc
  402d40:	004092d8 	.word	0x004092d8
  402d44:	004092e0 	.word	0x004092e0
  402d48:	004092ec 	.word	0x004092ec
  402d4c:	004092f8 	.word	0x004092f8
  402d50:	00409310 	.word	0x00409310
  402d54:	004028f5 	.word	0x004028f5
  402d58:	00401849 	.word	0x00401849
  402d5c:	00409318 	.word	0x00409318
  402d60:	00409338 	.word	0x00409338
  402d64:	00402bed 	.word	0x00402bed
  402d68:	0040933c 	.word	0x0040933c
  402d6c:	00409360 	.word	0x00409360
  402d70:	00402b45 	.word	0x00402b45
  402d74:	00409368 	.word	0x00409368
  402d78:	00401ac5 	.word	0x00401ac5

00402d7c <__libc_init_array>:
  402d7c:	b570      	push	{r4, r5, r6, lr}
  402d7e:	4e0f      	ldr	r6, [pc, #60]	; (402dbc <__libc_init_array+0x40>)
  402d80:	4d0f      	ldr	r5, [pc, #60]	; (402dc0 <__libc_init_array+0x44>)
  402d82:	1b76      	subs	r6, r6, r5
  402d84:	10b6      	asrs	r6, r6, #2
  402d86:	bf18      	it	ne
  402d88:	2400      	movne	r4, #0
  402d8a:	d005      	beq.n	402d98 <__libc_init_array+0x1c>
  402d8c:	3401      	adds	r4, #1
  402d8e:	f855 3b04 	ldr.w	r3, [r5], #4
  402d92:	4798      	blx	r3
  402d94:	42a6      	cmp	r6, r4
  402d96:	d1f9      	bne.n	402d8c <__libc_init_array+0x10>
  402d98:	4e0a      	ldr	r6, [pc, #40]	; (402dc4 <__libc_init_array+0x48>)
  402d9a:	4d0b      	ldr	r5, [pc, #44]	; (402dc8 <__libc_init_array+0x4c>)
  402d9c:	1b76      	subs	r6, r6, r5
  402d9e:	f006 fc5f 	bl	409660 <_init>
  402da2:	10b6      	asrs	r6, r6, #2
  402da4:	bf18      	it	ne
  402da6:	2400      	movne	r4, #0
  402da8:	d006      	beq.n	402db8 <__libc_init_array+0x3c>
  402daa:	3401      	adds	r4, #1
  402dac:	f855 3b04 	ldr.w	r3, [r5], #4
  402db0:	4798      	blx	r3
  402db2:	42a6      	cmp	r6, r4
  402db4:	d1f9      	bne.n	402daa <__libc_init_array+0x2e>
  402db6:	bd70      	pop	{r4, r5, r6, pc}
  402db8:	bd70      	pop	{r4, r5, r6, pc}
  402dba:	bf00      	nop
  402dbc:	0040966c 	.word	0x0040966c
  402dc0:	0040966c 	.word	0x0040966c
  402dc4:	00409674 	.word	0x00409674
  402dc8:	0040966c 	.word	0x0040966c

00402dcc <iprintf>:
  402dcc:	b40f      	push	{r0, r1, r2, r3}
  402dce:	b500      	push	{lr}
  402dd0:	4907      	ldr	r1, [pc, #28]	; (402df0 <iprintf+0x24>)
  402dd2:	b083      	sub	sp, #12
  402dd4:	ab04      	add	r3, sp, #16
  402dd6:	6808      	ldr	r0, [r1, #0]
  402dd8:	f853 2b04 	ldr.w	r2, [r3], #4
  402ddc:	6881      	ldr	r1, [r0, #8]
  402dde:	9301      	str	r3, [sp, #4]
  402de0:	f002 f80a 	bl	404df8 <_vfiprintf_r>
  402de4:	b003      	add	sp, #12
  402de6:	f85d eb04 	ldr.w	lr, [sp], #4
  402dea:	b004      	add	sp, #16
  402dec:	4770      	bx	lr
  402dee:	bf00      	nop
  402df0:	2040000c 	.word	0x2040000c

00402df4 <malloc>:
  402df4:	4b02      	ldr	r3, [pc, #8]	; (402e00 <malloc+0xc>)
  402df6:	4601      	mov	r1, r0
  402df8:	6818      	ldr	r0, [r3, #0]
  402dfa:	f000 b80b 	b.w	402e14 <_malloc_r>
  402dfe:	bf00      	nop
  402e00:	2040000c 	.word	0x2040000c

00402e04 <free>:
  402e04:	4b02      	ldr	r3, [pc, #8]	; (402e10 <free+0xc>)
  402e06:	4601      	mov	r1, r0
  402e08:	6818      	ldr	r0, [r3, #0]
  402e0a:	f004 b8d1 	b.w	406fb0 <_free_r>
  402e0e:	bf00      	nop
  402e10:	2040000c 	.word	0x2040000c

00402e14 <_malloc_r>:
  402e14:	e92d 4ff0 	stmdb	sp!, {r4, r5, r6, r7, r8, r9, sl, fp, lr}
  402e18:	f101 060b 	add.w	r6, r1, #11
  402e1c:	2e16      	cmp	r6, #22
  402e1e:	b083      	sub	sp, #12
  402e20:	4605      	mov	r5, r0
  402e22:	f240 809e 	bls.w	402f62 <_malloc_r+0x14e>
  402e26:	f036 0607 	bics.w	r6, r6, #7
  402e2a:	f100 80bd 	bmi.w	402fa8 <_malloc_r+0x194>
  402e2e:	42b1      	cmp	r1, r6
  402e30:	f200 80ba 	bhi.w	402fa8 <_malloc_r+0x194>
  402e34:	f000 fb86 	bl	403544 <__malloc_lock>
  402e38:	f5b6 7ffc 	cmp.w	r6, #504	; 0x1f8
  402e3c:	f0c0 8293 	bcc.w	403366 <_malloc_r+0x552>
  402e40:	0a73      	lsrs	r3, r6, #9
  402e42:	f000 80b8 	beq.w	402fb6 <_malloc_r+0x1a2>
  402e46:	2b04      	cmp	r3, #4
  402e48:	f200 8179 	bhi.w	40313e <_malloc_r+0x32a>
  402e4c:	09b3      	lsrs	r3, r6, #6
  402e4e:	f103 0039 	add.w	r0, r3, #57	; 0x39
  402e52:	f103 0e38 	add.w	lr, r3, #56	; 0x38
  402e56:	00c3      	lsls	r3, r0, #3
  402e58:	4fbf      	ldr	r7, [pc, #764]	; (403158 <_malloc_r+0x344>)
  402e5a:	443b      	add	r3, r7
  402e5c:	f1a3 0108 	sub.w	r1, r3, #8
  402e60:	685c      	ldr	r4, [r3, #4]
  402e62:	42a1      	cmp	r1, r4
  402e64:	d106      	bne.n	402e74 <_malloc_r+0x60>
  402e66:	e00c      	b.n	402e82 <_malloc_r+0x6e>
  402e68:	2a00      	cmp	r2, #0
  402e6a:	f280 80aa 	bge.w	402fc2 <_malloc_r+0x1ae>
  402e6e:	68e4      	ldr	r4, [r4, #12]
  402e70:	42a1      	cmp	r1, r4
  402e72:	d006      	beq.n	402e82 <_malloc_r+0x6e>
  402e74:	6863      	ldr	r3, [r4, #4]
  402e76:	f023 0303 	bic.w	r3, r3, #3
  402e7a:	1b9a      	subs	r2, r3, r6
  402e7c:	2a0f      	cmp	r2, #15
  402e7e:	ddf3      	ble.n	402e68 <_malloc_r+0x54>
  402e80:	4670      	mov	r0, lr
  402e82:	693c      	ldr	r4, [r7, #16]
  402e84:	f8df e2e4 	ldr.w	lr, [pc, #740]	; 40316c <_malloc_r+0x358>
  402e88:	4574      	cmp	r4, lr
  402e8a:	f000 81ab 	beq.w	4031e4 <_malloc_r+0x3d0>
  402e8e:	6863      	ldr	r3, [r4, #4]
  402e90:	f023 0303 	bic.w	r3, r3, #3
  402e94:	1b9a      	subs	r2, r3, r6
  402e96:	2a0f      	cmp	r2, #15
  402e98:	f300 8190 	bgt.w	4031bc <_malloc_r+0x3a8>
  402e9c:	2a00      	cmp	r2, #0
  402e9e:	f8c7 e014 	str.w	lr, [r7, #20]
  402ea2:	f8c7 e010 	str.w	lr, [r7, #16]
  402ea6:	f280 809d 	bge.w	402fe4 <_malloc_r+0x1d0>
  402eaa:	f5b3 7f00 	cmp.w	r3, #512	; 0x200
  402eae:	f080 8161 	bcs.w	403174 <_malloc_r+0x360>
  402eb2:	08db      	lsrs	r3, r3, #3
  402eb4:	f103 0c01 	add.w	ip, r3, #1
  402eb8:	1099      	asrs	r1, r3, #2
  402eba:	687a      	ldr	r2, [r7, #4]
  402ebc:	f857 803c 	ldr.w	r8, [r7, ip, lsl #3]
  402ec0:	f8c4 8008 	str.w	r8, [r4, #8]
  402ec4:	2301      	movs	r3, #1
  402ec6:	408b      	lsls	r3, r1
  402ec8:	eb07 01cc 	add.w	r1, r7, ip, lsl #3
  402ecc:	4313      	orrs	r3, r2
  402ece:	3908      	subs	r1, #8
  402ed0:	60e1      	str	r1, [r4, #12]
  402ed2:	607b      	str	r3, [r7, #4]
  402ed4:	f847 403c 	str.w	r4, [r7, ip, lsl #3]
  402ed8:	f8c8 400c 	str.w	r4, [r8, #12]
  402edc:	1082      	asrs	r2, r0, #2
  402ede:	2401      	movs	r4, #1
  402ee0:	4094      	lsls	r4, r2
  402ee2:	429c      	cmp	r4, r3
  402ee4:	f200 808b 	bhi.w	402ffe <_malloc_r+0x1ea>
  402ee8:	421c      	tst	r4, r3
  402eea:	d106      	bne.n	402efa <_malloc_r+0xe6>
  402eec:	f020 0003 	bic.w	r0, r0, #3
  402ef0:	0064      	lsls	r4, r4, #1
  402ef2:	421c      	tst	r4, r3
  402ef4:	f100 0004 	add.w	r0, r0, #4
  402ef8:	d0fa      	beq.n	402ef0 <_malloc_r+0xdc>
  402efa:	eb07 09c0 	add.w	r9, r7, r0, lsl #3
  402efe:	46cc      	mov	ip, r9
  402f00:	4680      	mov	r8, r0
  402f02:	f8dc 300c 	ldr.w	r3, [ip, #12]
  402f06:	459c      	cmp	ip, r3
  402f08:	d107      	bne.n	402f1a <_malloc_r+0x106>
  402f0a:	e16d      	b.n	4031e8 <_malloc_r+0x3d4>
  402f0c:	2a00      	cmp	r2, #0
  402f0e:	f280 817b 	bge.w	403208 <_malloc_r+0x3f4>
  402f12:	68db      	ldr	r3, [r3, #12]
  402f14:	459c      	cmp	ip, r3
  402f16:	f000 8167 	beq.w	4031e8 <_malloc_r+0x3d4>
  402f1a:	6859      	ldr	r1, [r3, #4]
  402f1c:	f021 0103 	bic.w	r1, r1, #3
  402f20:	1b8a      	subs	r2, r1, r6
  402f22:	2a0f      	cmp	r2, #15
  402f24:	ddf2      	ble.n	402f0c <_malloc_r+0xf8>
  402f26:	f8d3 c00c 	ldr.w	ip, [r3, #12]
  402f2a:	f8d3 8008 	ldr.w	r8, [r3, #8]
  402f2e:	9300      	str	r3, [sp, #0]
  402f30:	199c      	adds	r4, r3, r6
  402f32:	4628      	mov	r0, r5
  402f34:	f046 0601 	orr.w	r6, r6, #1
  402f38:	f042 0501 	orr.w	r5, r2, #1
  402f3c:	605e      	str	r6, [r3, #4]
  402f3e:	f8c8 c00c 	str.w	ip, [r8, #12]
  402f42:	f8cc 8008 	str.w	r8, [ip, #8]
  402f46:	617c      	str	r4, [r7, #20]
  402f48:	613c      	str	r4, [r7, #16]
  402f4a:	f8c4 e00c 	str.w	lr, [r4, #12]
  402f4e:	f8c4 e008 	str.w	lr, [r4, #8]
  402f52:	6065      	str	r5, [r4, #4]
  402f54:	505a      	str	r2, [r3, r1]
  402f56:	f000 fafb 	bl	403550 <__malloc_unlock>
  402f5a:	9b00      	ldr	r3, [sp, #0]
  402f5c:	f103 0408 	add.w	r4, r3, #8
  402f60:	e01e      	b.n	402fa0 <_malloc_r+0x18c>
  402f62:	2910      	cmp	r1, #16
  402f64:	d820      	bhi.n	402fa8 <_malloc_r+0x194>
  402f66:	f000 faed 	bl	403544 <__malloc_lock>
  402f6a:	2610      	movs	r6, #16
  402f6c:	2318      	movs	r3, #24
  402f6e:	2002      	movs	r0, #2
  402f70:	4f79      	ldr	r7, [pc, #484]	; (403158 <_malloc_r+0x344>)
  402f72:	443b      	add	r3, r7
  402f74:	f1a3 0208 	sub.w	r2, r3, #8
  402f78:	685c      	ldr	r4, [r3, #4]
  402f7a:	4294      	cmp	r4, r2
  402f7c:	f000 813d 	beq.w	4031fa <_malloc_r+0x3e6>
  402f80:	6863      	ldr	r3, [r4, #4]
  402f82:	68e1      	ldr	r1, [r4, #12]
  402f84:	68a6      	ldr	r6, [r4, #8]
  402f86:	f023 0303 	bic.w	r3, r3, #3
  402f8a:	4423      	add	r3, r4
  402f8c:	4628      	mov	r0, r5
  402f8e:	685a      	ldr	r2, [r3, #4]
  402f90:	60f1      	str	r1, [r6, #12]
  402f92:	f042 0201 	orr.w	r2, r2, #1
  402f96:	608e      	str	r6, [r1, #8]
  402f98:	605a      	str	r2, [r3, #4]
  402f9a:	f000 fad9 	bl	403550 <__malloc_unlock>
  402f9e:	3408      	adds	r4, #8
  402fa0:	4620      	mov	r0, r4
  402fa2:	b003      	add	sp, #12
  402fa4:	e8bd 8ff0 	ldmia.w	sp!, {r4, r5, r6, r7, r8, r9, sl, fp, pc}
  402fa8:	2400      	movs	r4, #0
  402faa:	230c      	movs	r3, #12
  402fac:	4620      	mov	r0, r4
  402fae:	602b      	str	r3, [r5, #0]
  402fb0:	b003      	add	sp, #12
  402fb2:	e8bd 8ff0 	ldmia.w	sp!, {r4, r5, r6, r7, r8, r9, sl, fp, pc}
  402fb6:	2040      	movs	r0, #64	; 0x40
  402fb8:	f44f 7300 	mov.w	r3, #512	; 0x200
  402fbc:	f04f 0e3f 	mov.w	lr, #63	; 0x3f
  402fc0:	e74a      	b.n	402e58 <_malloc_r+0x44>
  402fc2:	4423      	add	r3, r4
  402fc4:	68e1      	ldr	r1, [r4, #12]
  402fc6:	685a      	ldr	r2, [r3, #4]
  402fc8:	68a6      	ldr	r6, [r4, #8]
  402fca:	f042 0201 	orr.w	r2, r2, #1
  402fce:	60f1      	str	r1, [r6, #12]
  402fd0:	4628      	mov	r0, r5
  402fd2:	608e      	str	r6, [r1, #8]
  402fd4:	605a      	str	r2, [r3, #4]
  402fd6:	f000 fabb 	bl	403550 <__malloc_unlock>
  402fda:	3408      	adds	r4, #8
  402fdc:	4620      	mov	r0, r4
  402fde:	b003      	add	sp, #12
  402fe0:	e8bd 8ff0 	ldmia.w	sp!, {r4, r5, r6, r7, r8, r9, sl, fp, pc}
  402fe4:	4423      	add	r3, r4
  402fe6:	4628      	mov	r0, r5
  402fe8:	685a      	ldr	r2, [r3, #4]
  402fea:	f042 0201 	orr.w	r2, r2, #1
  402fee:	605a      	str	r2, [r3, #4]
  402ff0:	f000 faae 	bl	403550 <__malloc_unlock>
  402ff4:	3408      	adds	r4, #8
  402ff6:	4620      	mov	r0, r4
  402ff8:	b003      	add	sp, #12
  402ffa:	e8bd 8ff0 	ldmia.w	sp!, {r4, r5, r6, r7, r8, r9, sl, fp, pc}
  402ffe:	68bc      	ldr	r4, [r7, #8]
  403000:	6863      	ldr	r3, [r4, #4]
  403002:	f023 0803 	bic.w	r8, r3, #3
  403006:	45b0      	cmp	r8, r6
  403008:	d304      	bcc.n	403014 <_malloc_r+0x200>
  40300a:	eba8 0306 	sub.w	r3, r8, r6
  40300e:	2b0f      	cmp	r3, #15
  403010:	f300 8085 	bgt.w	40311e <_malloc_r+0x30a>
  403014:	f8df 9158 	ldr.w	r9, [pc, #344]	; 403170 <_malloc_r+0x35c>
  403018:	4b50      	ldr	r3, [pc, #320]	; (40315c <_malloc_r+0x348>)
  40301a:	f8d9 2000 	ldr.w	r2, [r9]
  40301e:	681b      	ldr	r3, [r3, #0]
  403020:	3201      	adds	r2, #1
  403022:	4433      	add	r3, r6
  403024:	eb04 0a08 	add.w	sl, r4, r8
  403028:	f000 8155 	beq.w	4032d6 <_malloc_r+0x4c2>
  40302c:	f503 5380 	add.w	r3, r3, #4096	; 0x1000
  403030:	330f      	adds	r3, #15
  403032:	f423 6b7f 	bic.w	fp, r3, #4080	; 0xff0
  403036:	f02b 0b0f 	bic.w	fp, fp, #15
  40303a:	4659      	mov	r1, fp
  40303c:	4628      	mov	r0, r5
  40303e:	f000 fa8d 	bl	40355c <_sbrk_r>
  403042:	1c41      	adds	r1, r0, #1
  403044:	4602      	mov	r2, r0
  403046:	f000 80fc 	beq.w	403242 <_malloc_r+0x42e>
  40304a:	4582      	cmp	sl, r0
  40304c:	f200 80f7 	bhi.w	40323e <_malloc_r+0x42a>
  403050:	4b43      	ldr	r3, [pc, #268]	; (403160 <_malloc_r+0x34c>)
  403052:	6819      	ldr	r1, [r3, #0]
  403054:	4459      	add	r1, fp
  403056:	6019      	str	r1, [r3, #0]
  403058:	f000 814d 	beq.w	4032f6 <_malloc_r+0x4e2>
  40305c:	f8d9 0000 	ldr.w	r0, [r9]
  403060:	3001      	adds	r0, #1
  403062:	bf1b      	ittet	ne
  403064:	eba2 0a0a 	subne.w	sl, r2, sl
  403068:	4451      	addne	r1, sl
  40306a:	f8c9 2000 	streq.w	r2, [r9]
  40306e:	6019      	strne	r1, [r3, #0]
  403070:	f012 0107 	ands.w	r1, r2, #7
  403074:	f000 8115 	beq.w	4032a2 <_malloc_r+0x48e>
  403078:	f1c1 0008 	rsb	r0, r1, #8
  40307c:	f5c1 5180 	rsb	r1, r1, #4096	; 0x1000
  403080:	4402      	add	r2, r0
  403082:	3108      	adds	r1, #8
  403084:	eb02 090b 	add.w	r9, r2, fp
  403088:	f3c9 090b 	ubfx	r9, r9, #0, #12
  40308c:	eba1 0909 	sub.w	r9, r1, r9
  403090:	4649      	mov	r1, r9
  403092:	4628      	mov	r0, r5
  403094:	9301      	str	r3, [sp, #4]
  403096:	9200      	str	r2, [sp, #0]
  403098:	f000 fa60 	bl	40355c <_sbrk_r>
  40309c:	1c43      	adds	r3, r0, #1
  40309e:	e89d 000c 	ldmia.w	sp, {r2, r3}
  4030a2:	f000 8143 	beq.w	40332c <_malloc_r+0x518>
  4030a6:	1a80      	subs	r0, r0, r2
  4030a8:	4448      	add	r0, r9
  4030aa:	f040 0001 	orr.w	r0, r0, #1
  4030ae:	6819      	ldr	r1, [r3, #0]
  4030b0:	60ba      	str	r2, [r7, #8]
  4030b2:	4449      	add	r1, r9
  4030b4:	42bc      	cmp	r4, r7
  4030b6:	6050      	str	r0, [r2, #4]
  4030b8:	6019      	str	r1, [r3, #0]
  4030ba:	d017      	beq.n	4030ec <_malloc_r+0x2d8>
  4030bc:	f1b8 0f0f 	cmp.w	r8, #15
  4030c0:	f240 80fb 	bls.w	4032ba <_malloc_r+0x4a6>
  4030c4:	6860      	ldr	r0, [r4, #4]
  4030c6:	f1a8 020c 	sub.w	r2, r8, #12
  4030ca:	f022 0207 	bic.w	r2, r2, #7
  4030ce:	eb04 0e02 	add.w	lr, r4, r2
  4030d2:	f000 0001 	and.w	r0, r0, #1
  4030d6:	f04f 0c05 	mov.w	ip, #5
  4030da:	4310      	orrs	r0, r2
  4030dc:	2a0f      	cmp	r2, #15
  4030de:	6060      	str	r0, [r4, #4]
  4030e0:	f8ce c004 	str.w	ip, [lr, #4]
  4030e4:	f8ce c008 	str.w	ip, [lr, #8]
  4030e8:	f200 8117 	bhi.w	40331a <_malloc_r+0x506>
  4030ec:	4b1d      	ldr	r3, [pc, #116]	; (403164 <_malloc_r+0x350>)
  4030ee:	68bc      	ldr	r4, [r7, #8]
  4030f0:	681a      	ldr	r2, [r3, #0]
  4030f2:	4291      	cmp	r1, r2
  4030f4:	bf88      	it	hi
  4030f6:	6019      	strhi	r1, [r3, #0]
  4030f8:	4b1b      	ldr	r3, [pc, #108]	; (403168 <_malloc_r+0x354>)
  4030fa:	681a      	ldr	r2, [r3, #0]
  4030fc:	4291      	cmp	r1, r2
  4030fe:	6862      	ldr	r2, [r4, #4]
  403100:	bf88      	it	hi
  403102:	6019      	strhi	r1, [r3, #0]
  403104:	f022 0203 	bic.w	r2, r2, #3
  403108:	4296      	cmp	r6, r2
  40310a:	eba2 0306 	sub.w	r3, r2, r6
  40310e:	d801      	bhi.n	403114 <_malloc_r+0x300>
  403110:	2b0f      	cmp	r3, #15
  403112:	dc04      	bgt.n	40311e <_malloc_r+0x30a>
  403114:	4628      	mov	r0, r5
  403116:	f000 fa1b 	bl	403550 <__malloc_unlock>
  40311a:	2400      	movs	r4, #0
  40311c:	e740      	b.n	402fa0 <_malloc_r+0x18c>
  40311e:	19a2      	adds	r2, r4, r6
  403120:	f043 0301 	orr.w	r3, r3, #1
  403124:	f046 0601 	orr.w	r6, r6, #1
  403128:	6066      	str	r6, [r4, #4]
  40312a:	4628      	mov	r0, r5
  40312c:	60ba      	str	r2, [r7, #8]
  40312e:	6053      	str	r3, [r2, #4]
  403130:	f000 fa0e 	bl	403550 <__malloc_unlock>
  403134:	3408      	adds	r4, #8
  403136:	4620      	mov	r0, r4
  403138:	b003      	add	sp, #12
  40313a:	e8bd 8ff0 	ldmia.w	sp!, {r4, r5, r6, r7, r8, r9, sl, fp, pc}
  40313e:	2b14      	cmp	r3, #20
  403140:	d971      	bls.n	403226 <_malloc_r+0x412>
  403142:	2b54      	cmp	r3, #84	; 0x54
  403144:	f200 80a3 	bhi.w	40328e <_malloc_r+0x47a>
  403148:	0b33      	lsrs	r3, r6, #12
  40314a:	f103 006f 	add.w	r0, r3, #111	; 0x6f
  40314e:	f103 0e6e 	add.w	lr, r3, #110	; 0x6e
  403152:	00c3      	lsls	r3, r0, #3
  403154:	e680      	b.n	402e58 <_malloc_r+0x44>
  403156:	bf00      	nop
  403158:	20400438 	.word	0x20400438
  40315c:	20400cc4 	.word	0x20400cc4
  403160:	20400c94 	.word	0x20400c94
  403164:	20400cbc 	.word	0x20400cbc
  403168:	20400cc0 	.word	0x20400cc0
  40316c:	20400440 	.word	0x20400440
  403170:	20400840 	.word	0x20400840
  403174:	0a5a      	lsrs	r2, r3, #9
  403176:	2a04      	cmp	r2, #4
  403178:	d95b      	bls.n	403232 <_malloc_r+0x41e>
  40317a:	2a14      	cmp	r2, #20
  40317c:	f200 80ae 	bhi.w	4032dc <_malloc_r+0x4c8>
  403180:	f102 015c 	add.w	r1, r2, #92	; 0x5c
  403184:	00c9      	lsls	r1, r1, #3
  403186:	325b      	adds	r2, #91	; 0x5b
  403188:	eb07 0c01 	add.w	ip, r7, r1
  40318c:	5879      	ldr	r1, [r7, r1]
  40318e:	f1ac 0c08 	sub.w	ip, ip, #8
  403192:	458c      	cmp	ip, r1
  403194:	f000 8088 	beq.w	4032a8 <_malloc_r+0x494>
  403198:	684a      	ldr	r2, [r1, #4]
  40319a:	f022 0203 	bic.w	r2, r2, #3
  40319e:	4293      	cmp	r3, r2
  4031a0:	d273      	bcs.n	40328a <_malloc_r+0x476>
  4031a2:	6889      	ldr	r1, [r1, #8]
  4031a4:	458c      	cmp	ip, r1
  4031a6:	d1f7      	bne.n	403198 <_malloc_r+0x384>
  4031a8:	f8dc 200c 	ldr.w	r2, [ip, #12]
  4031ac:	687b      	ldr	r3, [r7, #4]
  4031ae:	60e2      	str	r2, [r4, #12]
  4031b0:	f8c4 c008 	str.w	ip, [r4, #8]
  4031b4:	6094      	str	r4, [r2, #8]
  4031b6:	f8cc 400c 	str.w	r4, [ip, #12]
  4031ba:	e68f      	b.n	402edc <_malloc_r+0xc8>
  4031bc:	19a1      	adds	r1, r4, r6
  4031be:	f046 0c01 	orr.w	ip, r6, #1
  4031c2:	f042 0601 	orr.w	r6, r2, #1
  4031c6:	f8c4 c004 	str.w	ip, [r4, #4]
  4031ca:	4628      	mov	r0, r5
  4031cc:	6179      	str	r1, [r7, #20]
  4031ce:	6139      	str	r1, [r7, #16]
  4031d0:	f8c1 e00c 	str.w	lr, [r1, #12]
  4031d4:	f8c1 e008 	str.w	lr, [r1, #8]
  4031d8:	604e      	str	r6, [r1, #4]
  4031da:	50e2      	str	r2, [r4, r3]
  4031dc:	f000 f9b8 	bl	403550 <__malloc_unlock>
  4031e0:	3408      	adds	r4, #8
  4031e2:	e6dd      	b.n	402fa0 <_malloc_r+0x18c>
  4031e4:	687b      	ldr	r3, [r7, #4]
  4031e6:	e679      	b.n	402edc <_malloc_r+0xc8>
  4031e8:	f108 0801 	add.w	r8, r8, #1
  4031ec:	f018 0f03 	tst.w	r8, #3
  4031f0:	f10c 0c08 	add.w	ip, ip, #8
  4031f4:	f47f ae85 	bne.w	402f02 <_malloc_r+0xee>
  4031f8:	e02d      	b.n	403256 <_malloc_r+0x442>
  4031fa:	68dc      	ldr	r4, [r3, #12]
  4031fc:	42a3      	cmp	r3, r4
  4031fe:	bf08      	it	eq
  403200:	3002      	addeq	r0, #2
  403202:	f43f ae3e 	beq.w	402e82 <_malloc_r+0x6e>
  403206:	e6bb      	b.n	402f80 <_malloc_r+0x16c>
  403208:	4419      	add	r1, r3
  40320a:	461c      	mov	r4, r3
  40320c:	684a      	ldr	r2, [r1, #4]
  40320e:	68db      	ldr	r3, [r3, #12]
  403210:	f854 6f08 	ldr.w	r6, [r4, #8]!
  403214:	f042 0201 	orr.w	r2, r2, #1
  403218:	604a      	str	r2, [r1, #4]
  40321a:	4628      	mov	r0, r5
  40321c:	60f3      	str	r3, [r6, #12]
  40321e:	609e      	str	r6, [r3, #8]
  403220:	f000 f996 	bl	403550 <__malloc_unlock>
  403224:	e6bc      	b.n	402fa0 <_malloc_r+0x18c>
  403226:	f103 005c 	add.w	r0, r3, #92	; 0x5c
  40322a:	f103 0e5b 	add.w	lr, r3, #91	; 0x5b
  40322e:	00c3      	lsls	r3, r0, #3
  403230:	e612      	b.n	402e58 <_malloc_r+0x44>
  403232:	099a      	lsrs	r2, r3, #6
  403234:	f102 0139 	add.w	r1, r2, #57	; 0x39
  403238:	00c9      	lsls	r1, r1, #3
  40323a:	3238      	adds	r2, #56	; 0x38
  40323c:	e7a4      	b.n	403188 <_malloc_r+0x374>
  40323e:	42bc      	cmp	r4, r7
  403240:	d054      	beq.n	4032ec <_malloc_r+0x4d8>
  403242:	68bc      	ldr	r4, [r7, #8]
  403244:	6862      	ldr	r2, [r4, #4]
  403246:	f022 0203 	bic.w	r2, r2, #3
  40324a:	e75d      	b.n	403108 <_malloc_r+0x2f4>
  40324c:	f859 3908 	ldr.w	r3, [r9], #-8
  403250:	4599      	cmp	r9, r3
  403252:	f040 8086 	bne.w	403362 <_malloc_r+0x54e>
  403256:	f010 0f03 	tst.w	r0, #3
  40325a:	f100 30ff 	add.w	r0, r0, #4294967295
  40325e:	d1f5      	bne.n	40324c <_malloc_r+0x438>
  403260:	687b      	ldr	r3, [r7, #4]
  403262:	ea23 0304 	bic.w	r3, r3, r4
  403266:	607b      	str	r3, [r7, #4]
  403268:	0064      	lsls	r4, r4, #1
  40326a:	429c      	cmp	r4, r3
  40326c:	f63f aec7 	bhi.w	402ffe <_malloc_r+0x1ea>
  403270:	2c00      	cmp	r4, #0
  403272:	f43f aec4 	beq.w	402ffe <_malloc_r+0x1ea>
  403276:	421c      	tst	r4, r3
  403278:	4640      	mov	r0, r8
  40327a:	f47f ae3e 	bne.w	402efa <_malloc_r+0xe6>
  40327e:	0064      	lsls	r4, r4, #1
  403280:	421c      	tst	r4, r3
  403282:	f100 0004 	add.w	r0, r0, #4
  403286:	d0fa      	beq.n	40327e <_malloc_r+0x46a>
  403288:	e637      	b.n	402efa <_malloc_r+0xe6>
  40328a:	468c      	mov	ip, r1
  40328c:	e78c      	b.n	4031a8 <_malloc_r+0x394>
  40328e:	f5b3 7faa 	cmp.w	r3, #340	; 0x154
  403292:	d815      	bhi.n	4032c0 <_malloc_r+0x4ac>
  403294:	0bf3      	lsrs	r3, r6, #15
  403296:	f103 0078 	add.w	r0, r3, #120	; 0x78
  40329a:	f103 0e77 	add.w	lr, r3, #119	; 0x77
  40329e:	00c3      	lsls	r3, r0, #3
  4032a0:	e5da      	b.n	402e58 <_malloc_r+0x44>
  4032a2:	f44f 5180 	mov.w	r1, #4096	; 0x1000
  4032a6:	e6ed      	b.n	403084 <_malloc_r+0x270>
  4032a8:	687b      	ldr	r3, [r7, #4]
  4032aa:	1092      	asrs	r2, r2, #2
  4032ac:	2101      	movs	r1, #1
  4032ae:	fa01 f202 	lsl.w	r2, r1, r2
  4032b2:	4313      	orrs	r3, r2
  4032b4:	607b      	str	r3, [r7, #4]
  4032b6:	4662      	mov	r2, ip
  4032b8:	e779      	b.n	4031ae <_malloc_r+0x39a>
  4032ba:	2301      	movs	r3, #1
  4032bc:	6053      	str	r3, [r2, #4]
  4032be:	e729      	b.n	403114 <_malloc_r+0x300>
  4032c0:	f240 5254 	movw	r2, #1364	; 0x554
  4032c4:	4293      	cmp	r3, r2
  4032c6:	d822      	bhi.n	40330e <_malloc_r+0x4fa>
  4032c8:	0cb3      	lsrs	r3, r6, #18
  4032ca:	f103 007d 	add.w	r0, r3, #125	; 0x7d
  4032ce:	f103 0e7c 	add.w	lr, r3, #124	; 0x7c
  4032d2:	00c3      	lsls	r3, r0, #3
  4032d4:	e5c0      	b.n	402e58 <_malloc_r+0x44>
  4032d6:	f103 0b10 	add.w	fp, r3, #16
  4032da:	e6ae      	b.n	40303a <_malloc_r+0x226>
  4032dc:	2a54      	cmp	r2, #84	; 0x54
  4032de:	d829      	bhi.n	403334 <_malloc_r+0x520>
  4032e0:	0b1a      	lsrs	r2, r3, #12
  4032e2:	f102 016f 	add.w	r1, r2, #111	; 0x6f
  4032e6:	00c9      	lsls	r1, r1, #3
  4032e8:	326e      	adds	r2, #110	; 0x6e
  4032ea:	e74d      	b.n	403188 <_malloc_r+0x374>
  4032ec:	4b20      	ldr	r3, [pc, #128]	; (403370 <_malloc_r+0x55c>)
  4032ee:	6819      	ldr	r1, [r3, #0]
  4032f0:	4459      	add	r1, fp
  4032f2:	6019      	str	r1, [r3, #0]
  4032f4:	e6b2      	b.n	40305c <_malloc_r+0x248>
  4032f6:	f3ca 000b 	ubfx	r0, sl, #0, #12
  4032fa:	2800      	cmp	r0, #0
  4032fc:	f47f aeae 	bne.w	40305c <_malloc_r+0x248>
  403300:	eb08 030b 	add.w	r3, r8, fp
  403304:	68ba      	ldr	r2, [r7, #8]
  403306:	f043 0301 	orr.w	r3, r3, #1
  40330a:	6053      	str	r3, [r2, #4]
  40330c:	e6ee      	b.n	4030ec <_malloc_r+0x2d8>
  40330e:	207f      	movs	r0, #127	; 0x7f
  403310:	f44f 737e 	mov.w	r3, #1016	; 0x3f8
  403314:	f04f 0e7e 	mov.w	lr, #126	; 0x7e
  403318:	e59e      	b.n	402e58 <_malloc_r+0x44>
  40331a:	f104 0108 	add.w	r1, r4, #8
  40331e:	4628      	mov	r0, r5
  403320:	9300      	str	r3, [sp, #0]
  403322:	f003 fe45 	bl	406fb0 <_free_r>
  403326:	9b00      	ldr	r3, [sp, #0]
  403328:	6819      	ldr	r1, [r3, #0]
  40332a:	e6df      	b.n	4030ec <_malloc_r+0x2d8>
  40332c:	2001      	movs	r0, #1
  40332e:	f04f 0900 	mov.w	r9, #0
  403332:	e6bc      	b.n	4030ae <_malloc_r+0x29a>
  403334:	f5b2 7faa 	cmp.w	r2, #340	; 0x154
  403338:	d805      	bhi.n	403346 <_malloc_r+0x532>
  40333a:	0bda      	lsrs	r2, r3, #15
  40333c:	f102 0178 	add.w	r1, r2, #120	; 0x78
  403340:	00c9      	lsls	r1, r1, #3
  403342:	3277      	adds	r2, #119	; 0x77
  403344:	e720      	b.n	403188 <_malloc_r+0x374>
  403346:	f240 5154 	movw	r1, #1364	; 0x554
  40334a:	428a      	cmp	r2, r1
  40334c:	d805      	bhi.n	40335a <_malloc_r+0x546>
  40334e:	0c9a      	lsrs	r2, r3, #18
  403350:	f102 017d 	add.w	r1, r2, #125	; 0x7d
  403354:	00c9      	lsls	r1, r1, #3
  403356:	327c      	adds	r2, #124	; 0x7c
  403358:	e716      	b.n	403188 <_malloc_r+0x374>
  40335a:	f44f 717e 	mov.w	r1, #1016	; 0x3f8
  40335e:	227e      	movs	r2, #126	; 0x7e
  403360:	e712      	b.n	403188 <_malloc_r+0x374>
  403362:	687b      	ldr	r3, [r7, #4]
  403364:	e780      	b.n	403268 <_malloc_r+0x454>
  403366:	08f0      	lsrs	r0, r6, #3
  403368:	f106 0308 	add.w	r3, r6, #8
  40336c:	e600      	b.n	402f70 <_malloc_r+0x15c>
  40336e:	bf00      	nop
  403370:	20400c94 	.word	0x20400c94

00403374 <memcpy>:
  403374:	4684      	mov	ip, r0
  403376:	ea41 0300 	orr.w	r3, r1, r0
  40337a:	f013 0303 	ands.w	r3, r3, #3
  40337e:	d16d      	bne.n	40345c <memcpy+0xe8>
  403380:	3a40      	subs	r2, #64	; 0x40
  403382:	d341      	bcc.n	403408 <memcpy+0x94>
  403384:	f851 3b04 	ldr.w	r3, [r1], #4
  403388:	f840 3b04 	str.w	r3, [r0], #4
  40338c:	f851 3b04 	ldr.w	r3, [r1], #4
  403390:	f840 3b04 	str.w	r3, [r0], #4
  403394:	f851 3b04 	ldr.w	r3, [r1], #4
  403398:	f840 3b04 	str.w	r3, [r0], #4
  40339c:	f851 3b04 	ldr.w	r3, [r1], #4
  4033a0:	f840 3b04 	str.w	r3, [r0], #4
  4033a4:	f851 3b04 	ldr.w	r3, [r1], #4
  4033a8:	f840 3b04 	str.w	r3, [r0], #4
  4033ac:	f851 3b04 	ldr.w	r3, [r1], #4
  4033b0:	f840 3b04 	str.w	r3, [r0], #4
  4033b4:	f851 3b04 	ldr.w	r3, [r1], #4
  4033b8:	f840 3b04 	str.w	r3, [r0], #4
  4033bc:	f851 3b04 	ldr.w	r3, [r1], #4
  4033c0:	f840 3b04 	str.w	r3, [r0], #4
  4033c4:	f851 3b04 	ldr.w	r3, [r1], #4
  4033c8:	f840 3b04 	str.w	r3, [r0], #4
  4033cc:	f851 3b04 	ldr.w	r3, [r1], #4
  4033d0:	f840 3b04 	str.w	r3, [r0], #4
  4033d4:	f851 3b04 	ldr.w	r3, [r1], #4
  4033d8:	f840 3b04 	str.w	r3, [r0], #4
  4033dc:	f851 3b04 	ldr.w	r3, [r1], #4
  4033e0:	f840 3b04 	str.w	r3, [r0], #4
  4033e4:	f851 3b04 	ldr.w	r3, [r1], #4
  4033e8:	f840 3b04 	str.w	r3, [r0], #4
  4033ec:	f851 3b04 	ldr.w	r3, [r1], #4
  4033f0:	f840 3b04 	str.w	r3, [r0], #4
  4033f4:	f851 3b04 	ldr.w	r3, [r1], #4
  4033f8:	f840 3b04 	str.w	r3, [r0], #4
  4033fc:	f851 3b04 	ldr.w	r3, [r1], #4
  403400:	f840 3b04 	str.w	r3, [r0], #4
  403404:	3a40      	subs	r2, #64	; 0x40
  403406:	d2bd      	bcs.n	403384 <memcpy+0x10>
  403408:	3230      	adds	r2, #48	; 0x30
  40340a:	d311      	bcc.n	403430 <memcpy+0xbc>
  40340c:	f851 3b04 	ldr.w	r3, [r1], #4
  403410:	f840 3b04 	str.w	r3, [r0], #4
  403414:	f851 3b04 	ldr.w	r3, [r1], #4
  403418:	f840 3b04 	str.w	r3, [r0], #4
  40341c:	f851 3b04 	ldr.w	r3, [r1], #4
  403420:	f840 3b04 	str.w	r3, [r0], #4
  403424:	f851 3b04 	ldr.w	r3, [r1], #4
  403428:	f840 3b04 	str.w	r3, [r0], #4
  40342c:	3a10      	subs	r2, #16
  40342e:	d2ed      	bcs.n	40340c <memcpy+0x98>
  403430:	320c      	adds	r2, #12
  403432:	d305      	bcc.n	403440 <memcpy+0xcc>
  403434:	f851 3b04 	ldr.w	r3, [r1], #4
  403438:	f840 3b04 	str.w	r3, [r0], #4
  40343c:	3a04      	subs	r2, #4
  40343e:	d2f9      	bcs.n	403434 <memcpy+0xc0>
  403440:	3204      	adds	r2, #4
  403442:	d008      	beq.n	403456 <memcpy+0xe2>
  403444:	07d2      	lsls	r2, r2, #31
  403446:	bf1c      	itt	ne
  403448:	f811 3b01 	ldrbne.w	r3, [r1], #1
  40344c:	f800 3b01 	strbne.w	r3, [r0], #1
  403450:	d301      	bcc.n	403456 <memcpy+0xe2>
  403452:	880b      	ldrh	r3, [r1, #0]
  403454:	8003      	strh	r3, [r0, #0]
  403456:	4660      	mov	r0, ip
  403458:	4770      	bx	lr
  40345a:	bf00      	nop
  40345c:	2a08      	cmp	r2, #8
  40345e:	d313      	bcc.n	403488 <memcpy+0x114>
  403460:	078b      	lsls	r3, r1, #30
  403462:	d08d      	beq.n	403380 <memcpy+0xc>
  403464:	f010 0303 	ands.w	r3, r0, #3
  403468:	d08a      	beq.n	403380 <memcpy+0xc>
  40346a:	f1c3 0304 	rsb	r3, r3, #4
  40346e:	1ad2      	subs	r2, r2, r3
  403470:	07db      	lsls	r3, r3, #31
  403472:	bf1c      	itt	ne
  403474:	f811 3b01 	ldrbne.w	r3, [r1], #1
  403478:	f800 3b01 	strbne.w	r3, [r0], #1
  40347c:	d380      	bcc.n	403380 <memcpy+0xc>
  40347e:	f831 3b02 	ldrh.w	r3, [r1], #2
  403482:	f820 3b02 	strh.w	r3, [r0], #2
  403486:	e77b      	b.n	403380 <memcpy+0xc>
  403488:	3a04      	subs	r2, #4
  40348a:	d3d9      	bcc.n	403440 <memcpy+0xcc>
  40348c:	3a01      	subs	r2, #1
  40348e:	f811 3b01 	ldrb.w	r3, [r1], #1
  403492:	f800 3b01 	strb.w	r3, [r0], #1
  403496:	d2f9      	bcs.n	40348c <memcpy+0x118>
  403498:	780b      	ldrb	r3, [r1, #0]
  40349a:	7003      	strb	r3, [r0, #0]
  40349c:	784b      	ldrb	r3, [r1, #1]
  40349e:	7043      	strb	r3, [r0, #1]
  4034a0:	788b      	ldrb	r3, [r1, #2]
  4034a2:	7083      	strb	r3, [r0, #2]
  4034a4:	4660      	mov	r0, ip
  4034a6:	4770      	bx	lr

004034a8 <memset>:
  4034a8:	b470      	push	{r4, r5, r6}
  4034aa:	0786      	lsls	r6, r0, #30
  4034ac:	d046      	beq.n	40353c <memset+0x94>
  4034ae:	1e54      	subs	r4, r2, #1
  4034b0:	2a00      	cmp	r2, #0
  4034b2:	d041      	beq.n	403538 <memset+0x90>
  4034b4:	b2ca      	uxtb	r2, r1
  4034b6:	4603      	mov	r3, r0
  4034b8:	e002      	b.n	4034c0 <memset+0x18>
  4034ba:	f114 34ff 	adds.w	r4, r4, #4294967295
  4034be:	d33b      	bcc.n	403538 <memset+0x90>
  4034c0:	f803 2b01 	strb.w	r2, [r3], #1
  4034c4:	079d      	lsls	r5, r3, #30
  4034c6:	d1f8      	bne.n	4034ba <memset+0x12>
  4034c8:	2c03      	cmp	r4, #3
  4034ca:	d92e      	bls.n	40352a <memset+0x82>
  4034cc:	b2cd      	uxtb	r5, r1
  4034ce:	ea45 2505 	orr.w	r5, r5, r5, lsl #8
  4034d2:	2c0f      	cmp	r4, #15
  4034d4:	ea45 4505 	orr.w	r5, r5, r5, lsl #16
  4034d8:	d919      	bls.n	40350e <memset+0x66>
  4034da:	f103 0210 	add.w	r2, r3, #16
  4034de:	4626      	mov	r6, r4
  4034e0:	3e10      	subs	r6, #16
  4034e2:	2e0f      	cmp	r6, #15
  4034e4:	f842 5c10 	str.w	r5, [r2, #-16]
  4034e8:	f842 5c0c 	str.w	r5, [r2, #-12]
  4034ec:	f842 5c08 	str.w	r5, [r2, #-8]
  4034f0:	f842 5c04 	str.w	r5, [r2, #-4]
  4034f4:	f102 0210 	add.w	r2, r2, #16
  4034f8:	d8f2      	bhi.n	4034e0 <memset+0x38>
  4034fa:	f1a4 0210 	sub.w	r2, r4, #16
  4034fe:	f022 020f 	bic.w	r2, r2, #15
  403502:	f004 040f 	and.w	r4, r4, #15
  403506:	3210      	adds	r2, #16
  403508:	2c03      	cmp	r4, #3
  40350a:	4413      	add	r3, r2
  40350c:	d90d      	bls.n	40352a <memset+0x82>
  40350e:	461e      	mov	r6, r3
  403510:	4622      	mov	r2, r4
  403512:	3a04      	subs	r2, #4
  403514:	2a03      	cmp	r2, #3
  403516:	f846 5b04 	str.w	r5, [r6], #4
  40351a:	d8fa      	bhi.n	403512 <memset+0x6a>
  40351c:	1f22      	subs	r2, r4, #4
  40351e:	f022 0203 	bic.w	r2, r2, #3
  403522:	3204      	adds	r2, #4
  403524:	4413      	add	r3, r2
  403526:	f004 0403 	and.w	r4, r4, #3
  40352a:	b12c      	cbz	r4, 403538 <memset+0x90>
  40352c:	b2c9      	uxtb	r1, r1
  40352e:	441c      	add	r4, r3
  403530:	f803 1b01 	strb.w	r1, [r3], #1
  403534:	429c      	cmp	r4, r3
  403536:	d1fb      	bne.n	403530 <memset+0x88>
  403538:	bc70      	pop	{r4, r5, r6}
  40353a:	4770      	bx	lr
  40353c:	4614      	mov	r4, r2
  40353e:	4603      	mov	r3, r0
  403540:	e7c2      	b.n	4034c8 <memset+0x20>
  403542:	bf00      	nop

00403544 <__malloc_lock>:
  403544:	4801      	ldr	r0, [pc, #4]	; (40354c <__malloc_lock+0x8>)
  403546:	f003 bfdb 	b.w	407500 <__retarget_lock_acquire_recursive>
  40354a:	bf00      	nop
  40354c:	20400d24 	.word	0x20400d24

00403550 <__malloc_unlock>:
  403550:	4801      	ldr	r0, [pc, #4]	; (403558 <__malloc_unlock+0x8>)
  403552:	f003 bfd7 	b.w	407504 <__retarget_lock_release_recursive>
  403556:	bf00      	nop
  403558:	20400d24 	.word	0x20400d24

0040355c <_sbrk_r>:
  40355c:	b538      	push	{r3, r4, r5, lr}
  40355e:	4c07      	ldr	r4, [pc, #28]	; (40357c <_sbrk_r+0x20>)
  403560:	2300      	movs	r3, #0
  403562:	4605      	mov	r5, r0
  403564:	4608      	mov	r0, r1
  403566:	6023      	str	r3, [r4, #0]
  403568:	f7fd fa64 	bl	400a34 <_sbrk>
  40356c:	1c43      	adds	r3, r0, #1
  40356e:	d000      	beq.n	403572 <_sbrk_r+0x16>
  403570:	bd38      	pop	{r3, r4, r5, pc}
  403572:	6823      	ldr	r3, [r4, #0]
  403574:	2b00      	cmp	r3, #0
  403576:	d0fb      	beq.n	403570 <_sbrk_r+0x14>
  403578:	602b      	str	r3, [r5, #0]
  40357a:	bd38      	pop	{r3, r4, r5, pc}
  40357c:	20400d38 	.word	0x20400d38

00403580 <setbuf>:
  403580:	2900      	cmp	r1, #0
  403582:	bf0c      	ite	eq
  403584:	2202      	moveq	r2, #2
  403586:	2200      	movne	r2, #0
  403588:	f44f 6380 	mov.w	r3, #1024	; 0x400
  40358c:	f000 b800 	b.w	403590 <setvbuf>

00403590 <setvbuf>:
  403590:	e92d 43f0 	stmdb	sp!, {r4, r5, r6, r7, r8, r9, lr}
  403594:	4c61      	ldr	r4, [pc, #388]	; (40371c <setvbuf+0x18c>)
  403596:	6825      	ldr	r5, [r4, #0]
  403598:	b083      	sub	sp, #12
  40359a:	4604      	mov	r4, r0
  40359c:	460f      	mov	r7, r1
  40359e:	4690      	mov	r8, r2
  4035a0:	461e      	mov	r6, r3
  4035a2:	b115      	cbz	r5, 4035aa <setvbuf+0x1a>
  4035a4:	6bab      	ldr	r3, [r5, #56]	; 0x38
  4035a6:	2b00      	cmp	r3, #0
  4035a8:	d064      	beq.n	403674 <setvbuf+0xe4>
  4035aa:	f1b8 0f02 	cmp.w	r8, #2
  4035ae:	d006      	beq.n	4035be <setvbuf+0x2e>
  4035b0:	f1b8 0f01 	cmp.w	r8, #1
  4035b4:	f200 809f 	bhi.w	4036f6 <setvbuf+0x166>
  4035b8:	2e00      	cmp	r6, #0
  4035ba:	f2c0 809c 	blt.w	4036f6 <setvbuf+0x166>
  4035be:	6e63      	ldr	r3, [r4, #100]	; 0x64
  4035c0:	07d8      	lsls	r0, r3, #31
  4035c2:	d534      	bpl.n	40362e <setvbuf+0x9e>
  4035c4:	4621      	mov	r1, r4
  4035c6:	4628      	mov	r0, r5
  4035c8:	f003 fb74 	bl	406cb4 <_fflush_r>
  4035cc:	6b21      	ldr	r1, [r4, #48]	; 0x30
  4035ce:	b141      	cbz	r1, 4035e2 <setvbuf+0x52>
  4035d0:	f104 0340 	add.w	r3, r4, #64	; 0x40
  4035d4:	4299      	cmp	r1, r3
  4035d6:	d002      	beq.n	4035de <setvbuf+0x4e>
  4035d8:	4628      	mov	r0, r5
  4035da:	f003 fce9 	bl	406fb0 <_free_r>
  4035de:	2300      	movs	r3, #0
  4035e0:	6323      	str	r3, [r4, #48]	; 0x30
  4035e2:	f9b4 300c 	ldrsh.w	r3, [r4, #12]
  4035e6:	2200      	movs	r2, #0
  4035e8:	61a2      	str	r2, [r4, #24]
  4035ea:	6062      	str	r2, [r4, #4]
  4035ec:	061a      	lsls	r2, r3, #24
  4035ee:	d43a      	bmi.n	403666 <setvbuf+0xd6>
  4035f0:	f423 634a 	bic.w	r3, r3, #3232	; 0xca0
  4035f4:	f023 0303 	bic.w	r3, r3, #3
  4035f8:	f1b8 0f02 	cmp.w	r8, #2
  4035fc:	81a3      	strh	r3, [r4, #12]
  4035fe:	d01d      	beq.n	40363c <setvbuf+0xac>
  403600:	ab01      	add	r3, sp, #4
  403602:	466a      	mov	r2, sp
  403604:	4621      	mov	r1, r4
  403606:	4628      	mov	r0, r5
  403608:	f003 ff7e 	bl	407508 <__swhatbuf_r>
  40360c:	89a3      	ldrh	r3, [r4, #12]
  40360e:	4318      	orrs	r0, r3
  403610:	81a0      	strh	r0, [r4, #12]
  403612:	2e00      	cmp	r6, #0
  403614:	d132      	bne.n	40367c <setvbuf+0xec>
  403616:	9e00      	ldr	r6, [sp, #0]
  403618:	4630      	mov	r0, r6
  40361a:	f7ff fbeb 	bl	402df4 <malloc>
  40361e:	4607      	mov	r7, r0
  403620:	2800      	cmp	r0, #0
  403622:	d06b      	beq.n	4036fc <setvbuf+0x16c>
  403624:	89a3      	ldrh	r3, [r4, #12]
  403626:	f043 0380 	orr.w	r3, r3, #128	; 0x80
  40362a:	81a3      	strh	r3, [r4, #12]
  40362c:	e028      	b.n	403680 <setvbuf+0xf0>
  40362e:	89a3      	ldrh	r3, [r4, #12]
  403630:	0599      	lsls	r1, r3, #22
  403632:	d4c7      	bmi.n	4035c4 <setvbuf+0x34>
  403634:	6da0      	ldr	r0, [r4, #88]	; 0x58
  403636:	f003 ff63 	bl	407500 <__retarget_lock_acquire_recursive>
  40363a:	e7c3      	b.n	4035c4 <setvbuf+0x34>
  40363c:	2500      	movs	r5, #0
  40363e:	6e61      	ldr	r1, [r4, #100]	; 0x64
  403640:	2600      	movs	r6, #0
  403642:	f104 0243 	add.w	r2, r4, #67	; 0x43
  403646:	f043 0302 	orr.w	r3, r3, #2
  40364a:	2001      	movs	r0, #1
  40364c:	60a6      	str	r6, [r4, #8]
  40364e:	07ce      	lsls	r6, r1, #31
  403650:	81a3      	strh	r3, [r4, #12]
  403652:	6022      	str	r2, [r4, #0]
  403654:	6122      	str	r2, [r4, #16]
  403656:	6160      	str	r0, [r4, #20]
  403658:	d401      	bmi.n	40365e <setvbuf+0xce>
  40365a:	0598      	lsls	r0, r3, #22
  40365c:	d53e      	bpl.n	4036dc <setvbuf+0x14c>
  40365e:	4628      	mov	r0, r5
  403660:	b003      	add	sp, #12
  403662:	e8bd 83f0 	ldmia.w	sp!, {r4, r5, r6, r7, r8, r9, pc}
  403666:	6921      	ldr	r1, [r4, #16]
  403668:	4628      	mov	r0, r5
  40366a:	f003 fca1 	bl	406fb0 <_free_r>
  40366e:	f9b4 300c 	ldrsh.w	r3, [r4, #12]
  403672:	e7bd      	b.n	4035f0 <setvbuf+0x60>
  403674:	4628      	mov	r0, r5
  403676:	f003 fb75 	bl	406d64 <__sinit>
  40367a:	e796      	b.n	4035aa <setvbuf+0x1a>
  40367c:	2f00      	cmp	r7, #0
  40367e:	d0cb      	beq.n	403618 <setvbuf+0x88>
  403680:	6bab      	ldr	r3, [r5, #56]	; 0x38
  403682:	2b00      	cmp	r3, #0
  403684:	d033      	beq.n	4036ee <setvbuf+0x15e>
  403686:	9b00      	ldr	r3, [sp, #0]
  403688:	f9b4 200c 	ldrsh.w	r2, [r4, #12]
  40368c:	6027      	str	r7, [r4, #0]
  40368e:	429e      	cmp	r6, r3
  403690:	bf1c      	itt	ne
  403692:	f442 6200 	orrne.w	r2, r2, #2048	; 0x800
  403696:	81a2      	strhne	r2, [r4, #12]
  403698:	f1b8 0f01 	cmp.w	r8, #1
  40369c:	bf04      	itt	eq
  40369e:	f042 0201 	orreq.w	r2, r2, #1
  4036a2:	81a2      	strheq	r2, [r4, #12]
  4036a4:	b292      	uxth	r2, r2
  4036a6:	f012 0308 	ands.w	r3, r2, #8
  4036aa:	6127      	str	r7, [r4, #16]
  4036ac:	6166      	str	r6, [r4, #20]
  4036ae:	d00e      	beq.n	4036ce <setvbuf+0x13e>
  4036b0:	07d1      	lsls	r1, r2, #31
  4036b2:	d51a      	bpl.n	4036ea <setvbuf+0x15a>
  4036b4:	6e65      	ldr	r5, [r4, #100]	; 0x64
  4036b6:	4276      	negs	r6, r6
  4036b8:	2300      	movs	r3, #0
  4036ba:	f015 0501 	ands.w	r5, r5, #1
  4036be:	61a6      	str	r6, [r4, #24]
  4036c0:	60a3      	str	r3, [r4, #8]
  4036c2:	d009      	beq.n	4036d8 <setvbuf+0x148>
  4036c4:	2500      	movs	r5, #0
  4036c6:	4628      	mov	r0, r5
  4036c8:	b003      	add	sp, #12
  4036ca:	e8bd 83f0 	ldmia.w	sp!, {r4, r5, r6, r7, r8, r9, pc}
  4036ce:	60a3      	str	r3, [r4, #8]
  4036d0:	6e65      	ldr	r5, [r4, #100]	; 0x64
  4036d2:	f015 0501 	ands.w	r5, r5, #1
  4036d6:	d1f5      	bne.n	4036c4 <setvbuf+0x134>
  4036d8:	0593      	lsls	r3, r2, #22
  4036da:	d4c0      	bmi.n	40365e <setvbuf+0xce>
  4036dc:	6da0      	ldr	r0, [r4, #88]	; 0x58
  4036de:	f003 ff11 	bl	407504 <__retarget_lock_release_recursive>
  4036e2:	4628      	mov	r0, r5
  4036e4:	b003      	add	sp, #12
  4036e6:	e8bd 83f0 	ldmia.w	sp!, {r4, r5, r6, r7, r8, r9, pc}
  4036ea:	60a6      	str	r6, [r4, #8]
  4036ec:	e7f0      	b.n	4036d0 <setvbuf+0x140>
  4036ee:	4628      	mov	r0, r5
  4036f0:	f003 fb38 	bl	406d64 <__sinit>
  4036f4:	e7c7      	b.n	403686 <setvbuf+0xf6>
  4036f6:	f04f 35ff 	mov.w	r5, #4294967295
  4036fa:	e7b0      	b.n	40365e <setvbuf+0xce>
  4036fc:	f8dd 9000 	ldr.w	r9, [sp]
  403700:	45b1      	cmp	r9, r6
  403702:	d004      	beq.n	40370e <setvbuf+0x17e>
  403704:	4648      	mov	r0, r9
  403706:	f7ff fb75 	bl	402df4 <malloc>
  40370a:	4607      	mov	r7, r0
  40370c:	b920      	cbnz	r0, 403718 <setvbuf+0x188>
  40370e:	f9b4 300c 	ldrsh.w	r3, [r4, #12]
  403712:	f04f 35ff 	mov.w	r5, #4294967295
  403716:	e792      	b.n	40363e <setvbuf+0xae>
  403718:	464e      	mov	r6, r9
  40371a:	e783      	b.n	403624 <setvbuf+0x94>
  40371c:	2040000c 	.word	0x2040000c

00403720 <sprintf>:
  403720:	b40e      	push	{r1, r2, r3}
  403722:	b5f0      	push	{r4, r5, r6, r7, lr}
  403724:	b09c      	sub	sp, #112	; 0x70
  403726:	ab21      	add	r3, sp, #132	; 0x84
  403728:	490f      	ldr	r1, [pc, #60]	; (403768 <sprintf+0x48>)
  40372a:	f853 2b04 	ldr.w	r2, [r3], #4
  40372e:	9301      	str	r3, [sp, #4]
  403730:	4605      	mov	r5, r0
  403732:	f06f 4400 	mvn.w	r4, #2147483648	; 0x80000000
  403736:	6808      	ldr	r0, [r1, #0]
  403738:	9502      	str	r5, [sp, #8]
  40373a:	f44f 7702 	mov.w	r7, #520	; 0x208
  40373e:	f64f 76ff 	movw	r6, #65535	; 0xffff
  403742:	a902      	add	r1, sp, #8
  403744:	9506      	str	r5, [sp, #24]
  403746:	f8ad 7014 	strh.w	r7, [sp, #20]
  40374a:	9404      	str	r4, [sp, #16]
  40374c:	9407      	str	r4, [sp, #28]
  40374e:	f8ad 6016 	strh.w	r6, [sp, #22]
  403752:	f000 f8e3 	bl	40391c <_svfprintf_r>
  403756:	9b02      	ldr	r3, [sp, #8]
  403758:	2200      	movs	r2, #0
  40375a:	701a      	strb	r2, [r3, #0]
  40375c:	b01c      	add	sp, #112	; 0x70
  40375e:	e8bd 40f0 	ldmia.w	sp!, {r4, r5, r6, r7, lr}
  403762:	b003      	add	sp, #12
  403764:	4770      	bx	lr
  403766:	bf00      	nop
  403768:	2040000c 	.word	0x2040000c

0040376c <strcpy>:
  40376c:	ea80 0201 	eor.w	r2, r0, r1
  403770:	4684      	mov	ip, r0
  403772:	f012 0f03 	tst.w	r2, #3
  403776:	d14f      	bne.n	403818 <strcpy+0xac>
  403778:	f011 0f03 	tst.w	r1, #3
  40377c:	d132      	bne.n	4037e4 <strcpy+0x78>
  40377e:	f84d 4d04 	str.w	r4, [sp, #-4]!
  403782:	f011 0f04 	tst.w	r1, #4
  403786:	f851 3b04 	ldr.w	r3, [r1], #4
  40378a:	d00b      	beq.n	4037a4 <strcpy+0x38>
  40378c:	f1a3 3201 	sub.w	r2, r3, #16843009	; 0x1010101
  403790:	439a      	bics	r2, r3
  403792:	f012 3f80 	tst.w	r2, #2155905152	; 0x80808080
  403796:	bf04      	itt	eq
  403798:	f84c 3b04 	streq.w	r3, [ip], #4
  40379c:	f851 3b04 	ldreq.w	r3, [r1], #4
  4037a0:	d116      	bne.n	4037d0 <strcpy+0x64>
  4037a2:	bf00      	nop
  4037a4:	f851 4b04 	ldr.w	r4, [r1], #4
  4037a8:	f1a3 3201 	sub.w	r2, r3, #16843009	; 0x1010101
  4037ac:	439a      	bics	r2, r3
  4037ae:	f012 3f80 	tst.w	r2, #2155905152	; 0x80808080
  4037b2:	f1a4 3201 	sub.w	r2, r4, #16843009	; 0x1010101
  4037b6:	d10b      	bne.n	4037d0 <strcpy+0x64>
  4037b8:	f84c 3b04 	str.w	r3, [ip], #4
  4037bc:	43a2      	bics	r2, r4
  4037be:	f012 3f80 	tst.w	r2, #2155905152	; 0x80808080
  4037c2:	bf04      	itt	eq
  4037c4:	f851 3b04 	ldreq.w	r3, [r1], #4
  4037c8:	f84c 4b04 	streq.w	r4, [ip], #4
  4037cc:	d0ea      	beq.n	4037a4 <strcpy+0x38>
  4037ce:	4623      	mov	r3, r4
  4037d0:	f80c 3b01 	strb.w	r3, [ip], #1
  4037d4:	f013 0fff 	tst.w	r3, #255	; 0xff
  4037d8:	ea4f 2333 	mov.w	r3, r3, ror #8
  4037dc:	d1f8      	bne.n	4037d0 <strcpy+0x64>
  4037de:	f85d 4b04 	ldr.w	r4, [sp], #4
  4037e2:	4770      	bx	lr
  4037e4:	f011 0f01 	tst.w	r1, #1
  4037e8:	d006      	beq.n	4037f8 <strcpy+0x8c>
  4037ea:	f811 2b01 	ldrb.w	r2, [r1], #1
  4037ee:	f80c 2b01 	strb.w	r2, [ip], #1
  4037f2:	2a00      	cmp	r2, #0
  4037f4:	bf08      	it	eq
  4037f6:	4770      	bxeq	lr
  4037f8:	f011 0f02 	tst.w	r1, #2
  4037fc:	d0bf      	beq.n	40377e <strcpy+0x12>
  4037fe:	f831 2b02 	ldrh.w	r2, [r1], #2
  403802:	f012 0fff 	tst.w	r2, #255	; 0xff
  403806:	bf16      	itet	ne
  403808:	f82c 2b02 	strhne.w	r2, [ip], #2
  40380c:	f88c 2000 	strbeq.w	r2, [ip]
  403810:	f412 4f7f 	tstne.w	r2, #65280	; 0xff00
  403814:	d1b3      	bne.n	40377e <strcpy+0x12>
  403816:	4770      	bx	lr
  403818:	f811 2b01 	ldrb.w	r2, [r1], #1
  40381c:	f80c 2b01 	strb.w	r2, [ip], #1
  403820:	2a00      	cmp	r2, #0
  403822:	d1f9      	bne.n	403818 <strcpy+0xac>
  403824:	4770      	bx	lr
  403826:	bf00      	nop
	...

00403840 <strlen>:
  403840:	f890 f000 	pld	[r0]
  403844:	e96d 4502 	strd	r4, r5, [sp, #-8]!
  403848:	f020 0107 	bic.w	r1, r0, #7
  40384c:	f06f 0c00 	mvn.w	ip, #0
  403850:	f010 0407 	ands.w	r4, r0, #7
  403854:	f891 f020 	pld	[r1, #32]
  403858:	f040 8049 	bne.w	4038ee <strlen+0xae>
  40385c:	f04f 0400 	mov.w	r4, #0
  403860:	f06f 0007 	mvn.w	r0, #7
  403864:	e9d1 2300 	ldrd	r2, r3, [r1]
  403868:	f891 f040 	pld	[r1, #64]	; 0x40
  40386c:	f100 0008 	add.w	r0, r0, #8
  403870:	fa82 f24c 	uadd8	r2, r2, ip
  403874:	faa4 f28c 	sel	r2, r4, ip
  403878:	fa83 f34c 	uadd8	r3, r3, ip
  40387c:	faa2 f38c 	sel	r3, r2, ip
  403880:	bb4b      	cbnz	r3, 4038d6 <strlen+0x96>
  403882:	e9d1 2302 	ldrd	r2, r3, [r1, #8]
  403886:	fa82 f24c 	uadd8	r2, r2, ip
  40388a:	f100 0008 	add.w	r0, r0, #8
  40388e:	faa4 f28c 	sel	r2, r4, ip
  403892:	fa83 f34c 	uadd8	r3, r3, ip
  403896:	faa2 f38c 	sel	r3, r2, ip
  40389a:	b9e3      	cbnz	r3, 4038d6 <strlen+0x96>
  40389c:	e9d1 2304 	ldrd	r2, r3, [r1, #16]
  4038a0:	fa82 f24c 	uadd8	r2, r2, ip
  4038a4:	f100 0008 	add.w	r0, r0, #8
  4038a8:	faa4 f28c 	sel	r2, r4, ip
  4038ac:	fa83 f34c 	uadd8	r3, r3, ip
  4038b0:	faa2 f38c 	sel	r3, r2, ip
  4038b4:	b97b      	cbnz	r3, 4038d6 <strlen+0x96>
  4038b6:	e9d1 2306 	ldrd	r2, r3, [r1, #24]
  4038ba:	f101 0120 	add.w	r1, r1, #32
  4038be:	fa82 f24c 	uadd8	r2, r2, ip
  4038c2:	f100 0008 	add.w	r0, r0, #8
  4038c6:	faa4 f28c 	sel	r2, r4, ip
  4038ca:	fa83 f34c 	uadd8	r3, r3, ip
  4038ce:	faa2 f38c 	sel	r3, r2, ip
  4038d2:	2b00      	cmp	r3, #0
  4038d4:	d0c6      	beq.n	403864 <strlen+0x24>
  4038d6:	2a00      	cmp	r2, #0
  4038d8:	bf04      	itt	eq
  4038da:	3004      	addeq	r0, #4
  4038dc:	461a      	moveq	r2, r3
  4038de:	ba12      	rev	r2, r2
  4038e0:	fab2 f282 	clz	r2, r2
  4038e4:	e8fd 4502 	ldrd	r4, r5, [sp], #8
  4038e8:	eb00 00d2 	add.w	r0, r0, r2, lsr #3
  4038ec:	4770      	bx	lr
  4038ee:	e9d1 2300 	ldrd	r2, r3, [r1]
  4038f2:	f004 0503 	and.w	r5, r4, #3
  4038f6:	f1c4 0000 	rsb	r0, r4, #0
  4038fa:	ea4f 05c5 	mov.w	r5, r5, lsl #3
  4038fe:	f014 0f04 	tst.w	r4, #4
  403902:	f891 f040 	pld	[r1, #64]	; 0x40
  403906:	fa0c f505 	lsl.w	r5, ip, r5
  40390a:	ea62 0205 	orn	r2, r2, r5
  40390e:	bf1c      	itt	ne
  403910:	ea63 0305 	ornne	r3, r3, r5
  403914:	4662      	movne	r2, ip
  403916:	f04f 0400 	mov.w	r4, #0
  40391a:	e7a9      	b.n	403870 <strlen+0x30>

0040391c <_svfprintf_r>:
  40391c:	e92d 4ff0 	stmdb	sp!, {r4, r5, r6, r7, r8, r9, sl, fp, lr}
  403920:	b0c3      	sub	sp, #268	; 0x10c
  403922:	460c      	mov	r4, r1
  403924:	910b      	str	r1, [sp, #44]	; 0x2c
  403926:	4692      	mov	sl, r2
  403928:	930f      	str	r3, [sp, #60]	; 0x3c
  40392a:	900c      	str	r0, [sp, #48]	; 0x30
  40392c:	f003 fdd6 	bl	4074dc <_localeconv_r>
  403930:	6803      	ldr	r3, [r0, #0]
  403932:	931a      	str	r3, [sp, #104]	; 0x68
  403934:	4618      	mov	r0, r3
  403936:	f7ff ff83 	bl	403840 <strlen>
  40393a:	89a3      	ldrh	r3, [r4, #12]
  40393c:	9019      	str	r0, [sp, #100]	; 0x64
  40393e:	0619      	lsls	r1, r3, #24
  403940:	d503      	bpl.n	40394a <_svfprintf_r+0x2e>
  403942:	6923      	ldr	r3, [r4, #16]
  403944:	2b00      	cmp	r3, #0
  403946:	f001 8003 	beq.w	404950 <_svfprintf_r+0x1034>
  40394a:	2300      	movs	r3, #0
  40394c:	f10d 09c8 	add.w	r9, sp, #200	; 0xc8
  403950:	9313      	str	r3, [sp, #76]	; 0x4c
  403952:	9315      	str	r3, [sp, #84]	; 0x54
  403954:	9314      	str	r3, [sp, #80]	; 0x50
  403956:	9327      	str	r3, [sp, #156]	; 0x9c
  403958:	9326      	str	r3, [sp, #152]	; 0x98
  40395a:	9318      	str	r3, [sp, #96]	; 0x60
  40395c:	931b      	str	r3, [sp, #108]	; 0x6c
  40395e:	9309      	str	r3, [sp, #36]	; 0x24
  403960:	f8cd 9094 	str.w	r9, [sp, #148]	; 0x94
  403964:	46c8      	mov	r8, r9
  403966:	9316      	str	r3, [sp, #88]	; 0x58
  403968:	9317      	str	r3, [sp, #92]	; 0x5c
  40396a:	f89a 3000 	ldrb.w	r3, [sl]
  40396e:	4654      	mov	r4, sl
  403970:	b1e3      	cbz	r3, 4039ac <_svfprintf_r+0x90>
  403972:	2b25      	cmp	r3, #37	; 0x25
  403974:	d102      	bne.n	40397c <_svfprintf_r+0x60>
  403976:	e019      	b.n	4039ac <_svfprintf_r+0x90>
  403978:	2b25      	cmp	r3, #37	; 0x25
  40397a:	d003      	beq.n	403984 <_svfprintf_r+0x68>
  40397c:	f814 3f01 	ldrb.w	r3, [r4, #1]!
  403980:	2b00      	cmp	r3, #0
  403982:	d1f9      	bne.n	403978 <_svfprintf_r+0x5c>
  403984:	eba4 050a 	sub.w	r5, r4, sl
  403988:	b185      	cbz	r5, 4039ac <_svfprintf_r+0x90>
  40398a:	9b26      	ldr	r3, [sp, #152]	; 0x98
  40398c:	9a27      	ldr	r2, [sp, #156]	; 0x9c
  40398e:	f8c8 a000 	str.w	sl, [r8]
  403992:	3301      	adds	r3, #1
  403994:	442a      	add	r2, r5
  403996:	2b07      	cmp	r3, #7
  403998:	f8c8 5004 	str.w	r5, [r8, #4]
  40399c:	9227      	str	r2, [sp, #156]	; 0x9c
  40399e:	9326      	str	r3, [sp, #152]	; 0x98
  4039a0:	dc7f      	bgt.n	403aa2 <_svfprintf_r+0x186>
  4039a2:	f108 0808 	add.w	r8, r8, #8
  4039a6:	9b09      	ldr	r3, [sp, #36]	; 0x24
  4039a8:	442b      	add	r3, r5
  4039aa:	9309      	str	r3, [sp, #36]	; 0x24
  4039ac:	7823      	ldrb	r3, [r4, #0]
  4039ae:	2b00      	cmp	r3, #0
  4039b0:	d07f      	beq.n	403ab2 <_svfprintf_r+0x196>
  4039b2:	2300      	movs	r3, #0
  4039b4:	461a      	mov	r2, r3
  4039b6:	f88d 3077 	strb.w	r3, [sp, #119]	; 0x77
  4039ba:	4619      	mov	r1, r3
  4039bc:	930d      	str	r3, [sp, #52]	; 0x34
  4039be:	469b      	mov	fp, r3
  4039c0:	f04f 30ff 	mov.w	r0, #4294967295
  4039c4:	7863      	ldrb	r3, [r4, #1]
  4039c6:	900a      	str	r0, [sp, #40]	; 0x28
  4039c8:	f104 0a01 	add.w	sl, r4, #1
  4039cc:	f10a 0a01 	add.w	sl, sl, #1
  4039d0:	f1a3 0020 	sub.w	r0, r3, #32
  4039d4:	2858      	cmp	r0, #88	; 0x58
  4039d6:	f200 83c1 	bhi.w	40415c <_svfprintf_r+0x840>
  4039da:	e8df f010 	tbh	[pc, r0, lsl #1]
  4039de:	0238      	.short	0x0238
  4039e0:	03bf03bf 	.word	0x03bf03bf
  4039e4:	03bf0240 	.word	0x03bf0240
  4039e8:	03bf03bf 	.word	0x03bf03bf
  4039ec:	03bf03bf 	.word	0x03bf03bf
  4039f0:	024503bf 	.word	0x024503bf
  4039f4:	03bf0203 	.word	0x03bf0203
  4039f8:	026b005d 	.word	0x026b005d
  4039fc:	028603bf 	.word	0x028603bf
  403a00:	039d039d 	.word	0x039d039d
  403a04:	039d039d 	.word	0x039d039d
  403a08:	039d039d 	.word	0x039d039d
  403a0c:	039d039d 	.word	0x039d039d
  403a10:	03bf039d 	.word	0x03bf039d
  403a14:	03bf03bf 	.word	0x03bf03bf
  403a18:	03bf03bf 	.word	0x03bf03bf
  403a1c:	03bf03bf 	.word	0x03bf03bf
  403a20:	03bf03bf 	.word	0x03bf03bf
  403a24:	033703bf 	.word	0x033703bf
  403a28:	03bf0357 	.word	0x03bf0357
  403a2c:	03bf0357 	.word	0x03bf0357
  403a30:	03bf03bf 	.word	0x03bf03bf
  403a34:	039803bf 	.word	0x039803bf
  403a38:	03bf03bf 	.word	0x03bf03bf
  403a3c:	03bf03ad 	.word	0x03bf03ad
  403a40:	03bf03bf 	.word	0x03bf03bf
  403a44:	03bf03bf 	.word	0x03bf03bf
  403a48:	03bf0259 	.word	0x03bf0259
  403a4c:	031e03bf 	.word	0x031e03bf
  403a50:	03bf03bf 	.word	0x03bf03bf
  403a54:	03bf03bf 	.word	0x03bf03bf
  403a58:	03bf03bf 	.word	0x03bf03bf
  403a5c:	03bf03bf 	.word	0x03bf03bf
  403a60:	03bf03bf 	.word	0x03bf03bf
  403a64:	02db02c6 	.word	0x02db02c6
  403a68:	03570357 	.word	0x03570357
  403a6c:	028b0357 	.word	0x028b0357
  403a70:	03bf02db 	.word	0x03bf02db
  403a74:	029003bf 	.word	0x029003bf
  403a78:	029d03bf 	.word	0x029d03bf
  403a7c:	02b401cc 	.word	0x02b401cc
  403a80:	03bf0208 	.word	0x03bf0208
  403a84:	03bf01e1 	.word	0x03bf01e1
  403a88:	03bf007e 	.word	0x03bf007e
  403a8c:	020d03bf 	.word	0x020d03bf
  403a90:	980d      	ldr	r0, [sp, #52]	; 0x34
  403a92:	930f      	str	r3, [sp, #60]	; 0x3c
  403a94:	4240      	negs	r0, r0
  403a96:	900d      	str	r0, [sp, #52]	; 0x34
  403a98:	f04b 0b04 	orr.w	fp, fp, #4
  403a9c:	f89a 3000 	ldrb.w	r3, [sl]
  403aa0:	e794      	b.n	4039cc <_svfprintf_r+0xb0>
  403aa2:	aa25      	add	r2, sp, #148	; 0x94
  403aa4:	990b      	ldr	r1, [sp, #44]	; 0x2c
  403aa6:	980c      	ldr	r0, [sp, #48]	; 0x30
  403aa8:	f004 fb5a 	bl	408160 <__ssprint_r>
  403aac:	b940      	cbnz	r0, 403ac0 <_svfprintf_r+0x1a4>
  403aae:	46c8      	mov	r8, r9
  403ab0:	e779      	b.n	4039a6 <_svfprintf_r+0x8a>
  403ab2:	9b27      	ldr	r3, [sp, #156]	; 0x9c
  403ab4:	b123      	cbz	r3, 403ac0 <_svfprintf_r+0x1a4>
  403ab6:	980c      	ldr	r0, [sp, #48]	; 0x30
  403ab8:	990b      	ldr	r1, [sp, #44]	; 0x2c
  403aba:	aa25      	add	r2, sp, #148	; 0x94
  403abc:	f004 fb50 	bl	408160 <__ssprint_r>
  403ac0:	9b0b      	ldr	r3, [sp, #44]	; 0x2c
  403ac2:	899b      	ldrh	r3, [r3, #12]
  403ac4:	f013 0f40 	tst.w	r3, #64	; 0x40
  403ac8:	9b09      	ldr	r3, [sp, #36]	; 0x24
  403aca:	bf18      	it	ne
  403acc:	f04f 33ff 	movne.w	r3, #4294967295
  403ad0:	9309      	str	r3, [sp, #36]	; 0x24
  403ad2:	9809      	ldr	r0, [sp, #36]	; 0x24
  403ad4:	b043      	add	sp, #268	; 0x10c
  403ad6:	e8bd 8ff0 	ldmia.w	sp!, {r4, r5, r6, r7, r8, r9, sl, fp, pc}
  403ada:	f01b 0f20 	tst.w	fp, #32
  403ade:	9311      	str	r3, [sp, #68]	; 0x44
  403ae0:	f040 81dd 	bne.w	403e9e <_svfprintf_r+0x582>
  403ae4:	9a0f      	ldr	r2, [sp, #60]	; 0x3c
  403ae6:	f01b 0f10 	tst.w	fp, #16
  403aea:	4613      	mov	r3, r2
  403aec:	f040 856e 	bne.w	4045cc <_svfprintf_r+0xcb0>
  403af0:	f01b 0f40 	tst.w	fp, #64	; 0x40
  403af4:	f000 856a 	beq.w	4045cc <_svfprintf_r+0xcb0>
  403af8:	8814      	ldrh	r4, [r2, #0]
  403afa:	3204      	adds	r2, #4
  403afc:	2500      	movs	r5, #0
  403afe:	2301      	movs	r3, #1
  403b00:	920f      	str	r2, [sp, #60]	; 0x3c
  403b02:	2700      	movs	r7, #0
  403b04:	f88d 7077 	strb.w	r7, [sp, #119]	; 0x77
  403b08:	990a      	ldr	r1, [sp, #40]	; 0x28
  403b0a:	1c4a      	adds	r2, r1, #1
  403b0c:	f000 8265 	beq.w	403fda <_svfprintf_r+0x6be>
  403b10:	f02b 0280 	bic.w	r2, fp, #128	; 0x80
  403b14:	9207      	str	r2, [sp, #28]
  403b16:	ea54 0205 	orrs.w	r2, r4, r5
  403b1a:	f040 8264 	bne.w	403fe6 <_svfprintf_r+0x6ca>
  403b1e:	2900      	cmp	r1, #0
  403b20:	f040 843c 	bne.w	40439c <_svfprintf_r+0xa80>
  403b24:	2b00      	cmp	r3, #0
  403b26:	f040 84d7 	bne.w	4044d8 <_svfprintf_r+0xbbc>
  403b2a:	f01b 0301 	ands.w	r3, fp, #1
  403b2e:	930e      	str	r3, [sp, #56]	; 0x38
  403b30:	f000 8604 	beq.w	40473c <_svfprintf_r+0xe20>
  403b34:	ae42      	add	r6, sp, #264	; 0x108
  403b36:	2330      	movs	r3, #48	; 0x30
  403b38:	f806 3d41 	strb.w	r3, [r6, #-65]!
  403b3c:	9b0a      	ldr	r3, [sp, #40]	; 0x28
  403b3e:	9a0e      	ldr	r2, [sp, #56]	; 0x38
  403b40:	4293      	cmp	r3, r2
  403b42:	bfb8      	it	lt
  403b44:	4613      	movlt	r3, r2
  403b46:	9308      	str	r3, [sp, #32]
  403b48:	2300      	movs	r3, #0
  403b4a:	9312      	str	r3, [sp, #72]	; 0x48
  403b4c:	b117      	cbz	r7, 403b54 <_svfprintf_r+0x238>
  403b4e:	9b08      	ldr	r3, [sp, #32]
  403b50:	3301      	adds	r3, #1
  403b52:	9308      	str	r3, [sp, #32]
  403b54:	9b07      	ldr	r3, [sp, #28]
  403b56:	f013 0302 	ands.w	r3, r3, #2
  403b5a:	9310      	str	r3, [sp, #64]	; 0x40
  403b5c:	d002      	beq.n	403b64 <_svfprintf_r+0x248>
  403b5e:	9b08      	ldr	r3, [sp, #32]
  403b60:	3302      	adds	r3, #2
  403b62:	9308      	str	r3, [sp, #32]
  403b64:	9b07      	ldr	r3, [sp, #28]
  403b66:	f013 0584 	ands.w	r5, r3, #132	; 0x84
  403b6a:	f040 830e 	bne.w	40418a <_svfprintf_r+0x86e>
  403b6e:	9b0d      	ldr	r3, [sp, #52]	; 0x34
  403b70:	9a08      	ldr	r2, [sp, #32]
  403b72:	eba3 0b02 	sub.w	fp, r3, r2
  403b76:	f1bb 0f00 	cmp.w	fp, #0
  403b7a:	f340 8306 	ble.w	40418a <_svfprintf_r+0x86e>
  403b7e:	f1bb 0f10 	cmp.w	fp, #16
  403b82:	9c27      	ldr	r4, [sp, #156]	; 0x9c
  403b84:	9a26      	ldr	r2, [sp, #152]	; 0x98
  403b86:	dd29      	ble.n	403bdc <_svfprintf_r+0x2c0>
  403b88:	4643      	mov	r3, r8
  403b8a:	4621      	mov	r1, r4
  403b8c:	46a8      	mov	r8, r5
  403b8e:	2710      	movs	r7, #16
  403b90:	9c0c      	ldr	r4, [sp, #48]	; 0x30
  403b92:	9d0b      	ldr	r5, [sp, #44]	; 0x2c
  403b94:	e006      	b.n	403ba4 <_svfprintf_r+0x288>
  403b96:	f1ab 0b10 	sub.w	fp, fp, #16
  403b9a:	f1bb 0f10 	cmp.w	fp, #16
  403b9e:	f103 0308 	add.w	r3, r3, #8
  403ba2:	dd18      	ble.n	403bd6 <_svfprintf_r+0x2ba>
  403ba4:	3201      	adds	r2, #1
  403ba6:	48b7      	ldr	r0, [pc, #732]	; (403e84 <_svfprintf_r+0x568>)
  403ba8:	9226      	str	r2, [sp, #152]	; 0x98
  403baa:	3110      	adds	r1, #16
  403bac:	2a07      	cmp	r2, #7
  403bae:	9127      	str	r1, [sp, #156]	; 0x9c
  403bb0:	e883 0081 	stmia.w	r3, {r0, r7}
  403bb4:	ddef      	ble.n	403b96 <_svfprintf_r+0x27a>
  403bb6:	aa25      	add	r2, sp, #148	; 0x94
  403bb8:	4629      	mov	r1, r5
  403bba:	4620      	mov	r0, r4
  403bbc:	f004 fad0 	bl	408160 <__ssprint_r>
  403bc0:	2800      	cmp	r0, #0
  403bc2:	f47f af7d 	bne.w	403ac0 <_svfprintf_r+0x1a4>
  403bc6:	f1ab 0b10 	sub.w	fp, fp, #16
  403bca:	f1bb 0f10 	cmp.w	fp, #16
  403bce:	9927      	ldr	r1, [sp, #156]	; 0x9c
  403bd0:	9a26      	ldr	r2, [sp, #152]	; 0x98
  403bd2:	464b      	mov	r3, r9
  403bd4:	dce6      	bgt.n	403ba4 <_svfprintf_r+0x288>
  403bd6:	4645      	mov	r5, r8
  403bd8:	460c      	mov	r4, r1
  403bda:	4698      	mov	r8, r3
  403bdc:	3201      	adds	r2, #1
  403bde:	4ba9      	ldr	r3, [pc, #676]	; (403e84 <_svfprintf_r+0x568>)
  403be0:	9226      	str	r2, [sp, #152]	; 0x98
  403be2:	445c      	add	r4, fp
  403be4:	2a07      	cmp	r2, #7
  403be6:	9427      	str	r4, [sp, #156]	; 0x9c
  403be8:	e888 0808 	stmia.w	r8, {r3, fp}
  403bec:	f300 8498 	bgt.w	404520 <_svfprintf_r+0xc04>
  403bf0:	f89d 7077 	ldrb.w	r7, [sp, #119]	; 0x77
  403bf4:	f108 0808 	add.w	r8, r8, #8
  403bf8:	b177      	cbz	r7, 403c18 <_svfprintf_r+0x2fc>
  403bfa:	9b26      	ldr	r3, [sp, #152]	; 0x98
  403bfc:	3301      	adds	r3, #1
  403bfe:	3401      	adds	r4, #1
  403c00:	f10d 0177 	add.w	r1, sp, #119	; 0x77
  403c04:	2201      	movs	r2, #1
  403c06:	2b07      	cmp	r3, #7
  403c08:	9427      	str	r4, [sp, #156]	; 0x9c
  403c0a:	9326      	str	r3, [sp, #152]	; 0x98
  403c0c:	e888 0006 	stmia.w	r8, {r1, r2}
  403c10:	f300 83db 	bgt.w	4043ca <_svfprintf_r+0xaae>
  403c14:	f108 0808 	add.w	r8, r8, #8
  403c18:	9b10      	ldr	r3, [sp, #64]	; 0x40
  403c1a:	b16b      	cbz	r3, 403c38 <_svfprintf_r+0x31c>
  403c1c:	9b26      	ldr	r3, [sp, #152]	; 0x98
  403c1e:	3301      	adds	r3, #1
  403c20:	3402      	adds	r4, #2
  403c22:	a91e      	add	r1, sp, #120	; 0x78
  403c24:	2202      	movs	r2, #2
  403c26:	2b07      	cmp	r3, #7
  403c28:	9427      	str	r4, [sp, #156]	; 0x9c
  403c2a:	9326      	str	r3, [sp, #152]	; 0x98
  403c2c:	e888 0006 	stmia.w	r8, {r1, r2}
  403c30:	f300 83d6 	bgt.w	4043e0 <_svfprintf_r+0xac4>
  403c34:	f108 0808 	add.w	r8, r8, #8
  403c38:	2d80      	cmp	r5, #128	; 0x80
  403c3a:	f000 8315 	beq.w	404268 <_svfprintf_r+0x94c>
  403c3e:	9b0a      	ldr	r3, [sp, #40]	; 0x28
  403c40:	9a0e      	ldr	r2, [sp, #56]	; 0x38
  403c42:	1a9f      	subs	r7, r3, r2
  403c44:	2f00      	cmp	r7, #0
  403c46:	dd36      	ble.n	403cb6 <_svfprintf_r+0x39a>
  403c48:	2f10      	cmp	r7, #16
  403c4a:	9b26      	ldr	r3, [sp, #152]	; 0x98
  403c4c:	4d8e      	ldr	r5, [pc, #568]	; (403e88 <_svfprintf_r+0x56c>)
  403c4e:	dd27      	ble.n	403ca0 <_svfprintf_r+0x384>
  403c50:	4642      	mov	r2, r8
  403c52:	4621      	mov	r1, r4
  403c54:	46b0      	mov	r8, r6
  403c56:	f04f 0b10 	mov.w	fp, #16
  403c5a:	462e      	mov	r6, r5
  403c5c:	9c0c      	ldr	r4, [sp, #48]	; 0x30
  403c5e:	9d0b      	ldr	r5, [sp, #44]	; 0x2c
  403c60:	e004      	b.n	403c6c <_svfprintf_r+0x350>
  403c62:	3f10      	subs	r7, #16
  403c64:	2f10      	cmp	r7, #16
  403c66:	f102 0208 	add.w	r2, r2, #8
  403c6a:	dd15      	ble.n	403c98 <_svfprintf_r+0x37c>
  403c6c:	3301      	adds	r3, #1
  403c6e:	3110      	adds	r1, #16
  403c70:	2b07      	cmp	r3, #7
  403c72:	9127      	str	r1, [sp, #156]	; 0x9c
  403c74:	9326      	str	r3, [sp, #152]	; 0x98
  403c76:	e882 0840 	stmia.w	r2, {r6, fp}
  403c7a:	ddf2      	ble.n	403c62 <_svfprintf_r+0x346>
  403c7c:	aa25      	add	r2, sp, #148	; 0x94
  403c7e:	4629      	mov	r1, r5
  403c80:	4620      	mov	r0, r4
  403c82:	f004 fa6d 	bl	408160 <__ssprint_r>
  403c86:	2800      	cmp	r0, #0
  403c88:	f47f af1a 	bne.w	403ac0 <_svfprintf_r+0x1a4>
  403c8c:	3f10      	subs	r7, #16
  403c8e:	2f10      	cmp	r7, #16
  403c90:	9927      	ldr	r1, [sp, #156]	; 0x9c
  403c92:	9b26      	ldr	r3, [sp, #152]	; 0x98
  403c94:	464a      	mov	r2, r9
  403c96:	dce9      	bgt.n	403c6c <_svfprintf_r+0x350>
  403c98:	4635      	mov	r5, r6
  403c9a:	460c      	mov	r4, r1
  403c9c:	4646      	mov	r6, r8
  403c9e:	4690      	mov	r8, r2
  403ca0:	3301      	adds	r3, #1
  403ca2:	443c      	add	r4, r7
  403ca4:	2b07      	cmp	r3, #7
  403ca6:	9427      	str	r4, [sp, #156]	; 0x9c
  403ca8:	9326      	str	r3, [sp, #152]	; 0x98
  403caa:	e888 00a0 	stmia.w	r8, {r5, r7}
  403cae:	f300 8381 	bgt.w	4043b4 <_svfprintf_r+0xa98>
  403cb2:	f108 0808 	add.w	r8, r8, #8
  403cb6:	9b07      	ldr	r3, [sp, #28]
  403cb8:	05df      	lsls	r7, r3, #23
  403cba:	f100 8268 	bmi.w	40418e <_svfprintf_r+0x872>
  403cbe:	9b26      	ldr	r3, [sp, #152]	; 0x98
  403cc0:	990e      	ldr	r1, [sp, #56]	; 0x38
  403cc2:	f8c8 6000 	str.w	r6, [r8]
  403cc6:	3301      	adds	r3, #1
  403cc8:	440c      	add	r4, r1
  403cca:	2b07      	cmp	r3, #7
  403ccc:	9427      	str	r4, [sp, #156]	; 0x9c
  403cce:	f8c8 1004 	str.w	r1, [r8, #4]
  403cd2:	9326      	str	r3, [sp, #152]	; 0x98
  403cd4:	f300 834d 	bgt.w	404372 <_svfprintf_r+0xa56>
  403cd8:	f108 0808 	add.w	r8, r8, #8
  403cdc:	9b07      	ldr	r3, [sp, #28]
  403cde:	075b      	lsls	r3, r3, #29
  403ce0:	d53a      	bpl.n	403d58 <_svfprintf_r+0x43c>
  403ce2:	9b0d      	ldr	r3, [sp, #52]	; 0x34
  403ce4:	9a08      	ldr	r2, [sp, #32]
  403ce6:	1a9d      	subs	r5, r3, r2
  403ce8:	2d00      	cmp	r5, #0
  403cea:	dd35      	ble.n	403d58 <_svfprintf_r+0x43c>
  403cec:	2d10      	cmp	r5, #16
  403cee:	9b26      	ldr	r3, [sp, #152]	; 0x98
  403cf0:	dd20      	ble.n	403d34 <_svfprintf_r+0x418>
  403cf2:	2610      	movs	r6, #16
  403cf4:	9f0c      	ldr	r7, [sp, #48]	; 0x30
  403cf6:	f8dd b02c 	ldr.w	fp, [sp, #44]	; 0x2c
  403cfa:	e004      	b.n	403d06 <_svfprintf_r+0x3ea>
  403cfc:	3d10      	subs	r5, #16
  403cfe:	2d10      	cmp	r5, #16
  403d00:	f108 0808 	add.w	r8, r8, #8
  403d04:	dd16      	ble.n	403d34 <_svfprintf_r+0x418>
  403d06:	3301      	adds	r3, #1
  403d08:	4a5e      	ldr	r2, [pc, #376]	; (403e84 <_svfprintf_r+0x568>)
  403d0a:	9326      	str	r3, [sp, #152]	; 0x98
  403d0c:	3410      	adds	r4, #16
  403d0e:	2b07      	cmp	r3, #7
  403d10:	9427      	str	r4, [sp, #156]	; 0x9c
  403d12:	e888 0044 	stmia.w	r8, {r2, r6}
  403d16:	ddf1      	ble.n	403cfc <_svfprintf_r+0x3e0>
  403d18:	aa25      	add	r2, sp, #148	; 0x94
  403d1a:	4659      	mov	r1, fp
  403d1c:	4638      	mov	r0, r7
  403d1e:	f004 fa1f 	bl	408160 <__ssprint_r>
  403d22:	2800      	cmp	r0, #0
  403d24:	f47f aecc 	bne.w	403ac0 <_svfprintf_r+0x1a4>
  403d28:	3d10      	subs	r5, #16
  403d2a:	2d10      	cmp	r5, #16
  403d2c:	9c27      	ldr	r4, [sp, #156]	; 0x9c
  403d2e:	9b26      	ldr	r3, [sp, #152]	; 0x98
  403d30:	46c8      	mov	r8, r9
  403d32:	dce8      	bgt.n	403d06 <_svfprintf_r+0x3ea>
  403d34:	3301      	adds	r3, #1
  403d36:	4a53      	ldr	r2, [pc, #332]	; (403e84 <_svfprintf_r+0x568>)
  403d38:	9326      	str	r3, [sp, #152]	; 0x98
  403d3a:	442c      	add	r4, r5
  403d3c:	2b07      	cmp	r3, #7
  403d3e:	9427      	str	r4, [sp, #156]	; 0x9c
  403d40:	e888 0024 	stmia.w	r8, {r2, r5}
  403d44:	dd08      	ble.n	403d58 <_svfprintf_r+0x43c>
  403d46:	aa25      	add	r2, sp, #148	; 0x94
  403d48:	990b      	ldr	r1, [sp, #44]	; 0x2c
  403d4a:	980c      	ldr	r0, [sp, #48]	; 0x30
  403d4c:	f004 fa08 	bl	408160 <__ssprint_r>
  403d50:	2800      	cmp	r0, #0
  403d52:	f47f aeb5 	bne.w	403ac0 <_svfprintf_r+0x1a4>
  403d56:	9c27      	ldr	r4, [sp, #156]	; 0x9c
  403d58:	9b09      	ldr	r3, [sp, #36]	; 0x24
  403d5a:	9a0d      	ldr	r2, [sp, #52]	; 0x34
  403d5c:	9908      	ldr	r1, [sp, #32]
  403d5e:	428a      	cmp	r2, r1
  403d60:	bfac      	ite	ge
  403d62:	189b      	addge	r3, r3, r2
  403d64:	185b      	addlt	r3, r3, r1
  403d66:	9309      	str	r3, [sp, #36]	; 0x24
  403d68:	2c00      	cmp	r4, #0
  403d6a:	f040 830d 	bne.w	404388 <_svfprintf_r+0xa6c>
  403d6e:	2300      	movs	r3, #0
  403d70:	9326      	str	r3, [sp, #152]	; 0x98
  403d72:	46c8      	mov	r8, r9
  403d74:	e5f9      	b.n	40396a <_svfprintf_r+0x4e>
  403d76:	9311      	str	r3, [sp, #68]	; 0x44
  403d78:	f01b 0320 	ands.w	r3, fp, #32
  403d7c:	f040 81e3 	bne.w	404146 <_svfprintf_r+0x82a>
  403d80:	f01b 0210 	ands.w	r2, fp, #16
  403d84:	f040 842e 	bne.w	4045e4 <_svfprintf_r+0xcc8>
  403d88:	f01b 0340 	ands.w	r3, fp, #64	; 0x40
  403d8c:	f000 842a 	beq.w	4045e4 <_svfprintf_r+0xcc8>
  403d90:	990f      	ldr	r1, [sp, #60]	; 0x3c
  403d92:	4613      	mov	r3, r2
  403d94:	460a      	mov	r2, r1
  403d96:	3204      	adds	r2, #4
  403d98:	880c      	ldrh	r4, [r1, #0]
  403d9a:	920f      	str	r2, [sp, #60]	; 0x3c
  403d9c:	2500      	movs	r5, #0
  403d9e:	e6b0      	b.n	403b02 <_svfprintf_r+0x1e6>
  403da0:	9a0f      	ldr	r2, [sp, #60]	; 0x3c
  403da2:	9311      	str	r3, [sp, #68]	; 0x44
  403da4:	6816      	ldr	r6, [r2, #0]
  403da6:	2400      	movs	r4, #0
  403da8:	f88d 4077 	strb.w	r4, [sp, #119]	; 0x77
  403dac:	1d15      	adds	r5, r2, #4
  403dae:	2e00      	cmp	r6, #0
  403db0:	f000 86a7 	beq.w	404b02 <_svfprintf_r+0x11e6>
  403db4:	9a0a      	ldr	r2, [sp, #40]	; 0x28
  403db6:	1c53      	adds	r3, r2, #1
  403db8:	f000 8609 	beq.w	4049ce <_svfprintf_r+0x10b2>
  403dbc:	4621      	mov	r1, r4
  403dbe:	4630      	mov	r0, r6
  403dc0:	f003 fc36 	bl	407630 <memchr>
  403dc4:	2800      	cmp	r0, #0
  403dc6:	f000 86e1 	beq.w	404b8c <_svfprintf_r+0x1270>
  403dca:	1b83      	subs	r3, r0, r6
  403dcc:	930e      	str	r3, [sp, #56]	; 0x38
  403dce:	940a      	str	r4, [sp, #40]	; 0x28
  403dd0:	950f      	str	r5, [sp, #60]	; 0x3c
  403dd2:	f8cd b01c 	str.w	fp, [sp, #28]
  403dd6:	ea23 73e3 	bic.w	r3, r3, r3, asr #31
  403dda:	9308      	str	r3, [sp, #32]
  403ddc:	9412      	str	r4, [sp, #72]	; 0x48
  403dde:	f89d 7077 	ldrb.w	r7, [sp, #119]	; 0x77
  403de2:	e6b3      	b.n	403b4c <_svfprintf_r+0x230>
  403de4:	f89a 3000 	ldrb.w	r3, [sl]
  403de8:	2201      	movs	r2, #1
  403dea:	212b      	movs	r1, #43	; 0x2b
  403dec:	e5ee      	b.n	4039cc <_svfprintf_r+0xb0>
  403dee:	f04b 0b20 	orr.w	fp, fp, #32
  403df2:	f89a 3000 	ldrb.w	r3, [sl]
  403df6:	e5e9      	b.n	4039cc <_svfprintf_r+0xb0>
  403df8:	9311      	str	r3, [sp, #68]	; 0x44
  403dfa:	2a00      	cmp	r2, #0
  403dfc:	f040 8795 	bne.w	404d2a <_svfprintf_r+0x140e>
  403e00:	4b22      	ldr	r3, [pc, #136]	; (403e8c <_svfprintf_r+0x570>)
  403e02:	9318      	str	r3, [sp, #96]	; 0x60
  403e04:	f01b 0f20 	tst.w	fp, #32
  403e08:	f040 8111 	bne.w	40402e <_svfprintf_r+0x712>
  403e0c:	9a0f      	ldr	r2, [sp, #60]	; 0x3c
  403e0e:	f01b 0f10 	tst.w	fp, #16
  403e12:	4613      	mov	r3, r2
  403e14:	f040 83e1 	bne.w	4045da <_svfprintf_r+0xcbe>
  403e18:	f01b 0f40 	tst.w	fp, #64	; 0x40
  403e1c:	f000 83dd 	beq.w	4045da <_svfprintf_r+0xcbe>
  403e20:	3304      	adds	r3, #4
  403e22:	8814      	ldrh	r4, [r2, #0]
  403e24:	930f      	str	r3, [sp, #60]	; 0x3c
  403e26:	2500      	movs	r5, #0
  403e28:	f01b 0f01 	tst.w	fp, #1
  403e2c:	f000 810c 	beq.w	404048 <_svfprintf_r+0x72c>
  403e30:	ea54 0305 	orrs.w	r3, r4, r5
  403e34:	f000 8108 	beq.w	404048 <_svfprintf_r+0x72c>
  403e38:	2330      	movs	r3, #48	; 0x30
  403e3a:	f89d 2044 	ldrb.w	r2, [sp, #68]	; 0x44
  403e3e:	f88d 3078 	strb.w	r3, [sp, #120]	; 0x78
  403e42:	f88d 2079 	strb.w	r2, [sp, #121]	; 0x79
  403e46:	f04b 0b02 	orr.w	fp, fp, #2
  403e4a:	2302      	movs	r3, #2
  403e4c:	e659      	b.n	403b02 <_svfprintf_r+0x1e6>
  403e4e:	f89a 3000 	ldrb.w	r3, [sl]
  403e52:	2900      	cmp	r1, #0
  403e54:	f47f adba 	bne.w	4039cc <_svfprintf_r+0xb0>
  403e58:	2201      	movs	r2, #1
  403e5a:	2120      	movs	r1, #32
  403e5c:	e5b6      	b.n	4039cc <_svfprintf_r+0xb0>
  403e5e:	f04b 0b01 	orr.w	fp, fp, #1
  403e62:	f89a 3000 	ldrb.w	r3, [sl]
  403e66:	e5b1      	b.n	4039cc <_svfprintf_r+0xb0>
  403e68:	9c0f      	ldr	r4, [sp, #60]	; 0x3c
  403e6a:	6823      	ldr	r3, [r4, #0]
  403e6c:	930d      	str	r3, [sp, #52]	; 0x34
  403e6e:	4618      	mov	r0, r3
  403e70:	2800      	cmp	r0, #0
  403e72:	4623      	mov	r3, r4
  403e74:	f103 0304 	add.w	r3, r3, #4
  403e78:	f6ff ae0a 	blt.w	403a90 <_svfprintf_r+0x174>
  403e7c:	930f      	str	r3, [sp, #60]	; 0x3c
  403e7e:	f89a 3000 	ldrb.w	r3, [sl]
  403e82:	e5a3      	b.n	4039cc <_svfprintf_r+0xb0>
  403e84:	004093fc 	.word	0x004093fc
  403e88:	0040940c 	.word	0x0040940c
  403e8c:	004093dc 	.word	0x004093dc
  403e90:	f04b 0b10 	orr.w	fp, fp, #16
  403e94:	f01b 0f20 	tst.w	fp, #32
  403e98:	9311      	str	r3, [sp, #68]	; 0x44
  403e9a:	f43f ae23 	beq.w	403ae4 <_svfprintf_r+0x1c8>
  403e9e:	9d0f      	ldr	r5, [sp, #60]	; 0x3c
  403ea0:	3507      	adds	r5, #7
  403ea2:	f025 0307 	bic.w	r3, r5, #7
  403ea6:	f103 0208 	add.w	r2, r3, #8
  403eaa:	e9d3 4500 	ldrd	r4, r5, [r3]
  403eae:	920f      	str	r2, [sp, #60]	; 0x3c
  403eb0:	2301      	movs	r3, #1
  403eb2:	e626      	b.n	403b02 <_svfprintf_r+0x1e6>
  403eb4:	f89a 3000 	ldrb.w	r3, [sl]
  403eb8:	2b2a      	cmp	r3, #42	; 0x2a
  403eba:	f10a 0401 	add.w	r4, sl, #1
  403ebe:	f000 8727 	beq.w	404d10 <_svfprintf_r+0x13f4>
  403ec2:	f1a3 0030 	sub.w	r0, r3, #48	; 0x30
  403ec6:	2809      	cmp	r0, #9
  403ec8:	46a2      	mov	sl, r4
  403eca:	f200 86ad 	bhi.w	404c28 <_svfprintf_r+0x130c>
  403ece:	2300      	movs	r3, #0
  403ed0:	461c      	mov	r4, r3
  403ed2:	f81a 3b01 	ldrb.w	r3, [sl], #1
  403ed6:	eb04 0484 	add.w	r4, r4, r4, lsl #2
  403eda:	eb00 0444 	add.w	r4, r0, r4, lsl #1
  403ede:	f1a3 0030 	sub.w	r0, r3, #48	; 0x30
  403ee2:	2809      	cmp	r0, #9
  403ee4:	d9f5      	bls.n	403ed2 <_svfprintf_r+0x5b6>
  403ee6:	940a      	str	r4, [sp, #40]	; 0x28
  403ee8:	e572      	b.n	4039d0 <_svfprintf_r+0xb4>
  403eea:	f04b 0b80 	orr.w	fp, fp, #128	; 0x80
  403eee:	f89a 3000 	ldrb.w	r3, [sl]
  403ef2:	e56b      	b.n	4039cc <_svfprintf_r+0xb0>
  403ef4:	f04b 0b40 	orr.w	fp, fp, #64	; 0x40
  403ef8:	f89a 3000 	ldrb.w	r3, [sl]
  403efc:	e566      	b.n	4039cc <_svfprintf_r+0xb0>
  403efe:	f89a 3000 	ldrb.w	r3, [sl]
  403f02:	2b6c      	cmp	r3, #108	; 0x6c
  403f04:	bf03      	ittte	eq
  403f06:	f89a 3001 	ldrbeq.w	r3, [sl, #1]
  403f0a:	f04b 0b20 	orreq.w	fp, fp, #32
  403f0e:	f10a 0a01 	addeq.w	sl, sl, #1
  403f12:	f04b 0b10 	orrne.w	fp, fp, #16
  403f16:	e559      	b.n	4039cc <_svfprintf_r+0xb0>
  403f18:	2a00      	cmp	r2, #0
  403f1a:	f040 8711 	bne.w	404d40 <_svfprintf_r+0x1424>
  403f1e:	f01b 0f20 	tst.w	fp, #32
  403f22:	f040 84f9 	bne.w	404918 <_svfprintf_r+0xffc>
  403f26:	f01b 0f10 	tst.w	fp, #16
  403f2a:	f040 84ac 	bne.w	404886 <_svfprintf_r+0xf6a>
  403f2e:	f01b 0f40 	tst.w	fp, #64	; 0x40
  403f32:	f000 84a8 	beq.w	404886 <_svfprintf_r+0xf6a>
  403f36:	9a0f      	ldr	r2, [sp, #60]	; 0x3c
  403f38:	6813      	ldr	r3, [r2, #0]
  403f3a:	3204      	adds	r2, #4
  403f3c:	920f      	str	r2, [sp, #60]	; 0x3c
  403f3e:	f8bd 2024 	ldrh.w	r2, [sp, #36]	; 0x24
  403f42:	801a      	strh	r2, [r3, #0]
  403f44:	e511      	b.n	40396a <_svfprintf_r+0x4e>
  403f46:	990f      	ldr	r1, [sp, #60]	; 0x3c
  403f48:	4bb3      	ldr	r3, [pc, #716]	; (404218 <_svfprintf_r+0x8fc>)
  403f4a:	680c      	ldr	r4, [r1, #0]
  403f4c:	9318      	str	r3, [sp, #96]	; 0x60
  403f4e:	2230      	movs	r2, #48	; 0x30
  403f50:	2378      	movs	r3, #120	; 0x78
  403f52:	3104      	adds	r1, #4
  403f54:	f88d 3079 	strb.w	r3, [sp, #121]	; 0x79
  403f58:	9311      	str	r3, [sp, #68]	; 0x44
  403f5a:	f04b 0b02 	orr.w	fp, fp, #2
  403f5e:	910f      	str	r1, [sp, #60]	; 0x3c
  403f60:	2500      	movs	r5, #0
  403f62:	f88d 2078 	strb.w	r2, [sp, #120]	; 0x78
  403f66:	2302      	movs	r3, #2
  403f68:	e5cb      	b.n	403b02 <_svfprintf_r+0x1e6>
  403f6a:	990f      	ldr	r1, [sp, #60]	; 0x3c
  403f6c:	9311      	str	r3, [sp, #68]	; 0x44
  403f6e:	680a      	ldr	r2, [r1, #0]
  403f70:	f88d 20a0 	strb.w	r2, [sp, #160]	; 0xa0
  403f74:	2300      	movs	r3, #0
  403f76:	460a      	mov	r2, r1
  403f78:	461f      	mov	r7, r3
  403f7a:	f88d 3077 	strb.w	r3, [sp, #119]	; 0x77
  403f7e:	3204      	adds	r2, #4
  403f80:	2301      	movs	r3, #1
  403f82:	9308      	str	r3, [sp, #32]
  403f84:	f8cd b01c 	str.w	fp, [sp, #28]
  403f88:	970a      	str	r7, [sp, #40]	; 0x28
  403f8a:	9712      	str	r7, [sp, #72]	; 0x48
  403f8c:	920f      	str	r2, [sp, #60]	; 0x3c
  403f8e:	930e      	str	r3, [sp, #56]	; 0x38
  403f90:	ae28      	add	r6, sp, #160	; 0xa0
  403f92:	e5df      	b.n	403b54 <_svfprintf_r+0x238>
  403f94:	9311      	str	r3, [sp, #68]	; 0x44
  403f96:	2a00      	cmp	r2, #0
  403f98:	f040 86ea 	bne.w	404d70 <_svfprintf_r+0x1454>
  403f9c:	f01b 0f20 	tst.w	fp, #32
  403fa0:	d15d      	bne.n	40405e <_svfprintf_r+0x742>
  403fa2:	f01b 0f10 	tst.w	fp, #16
  403fa6:	f040 8308 	bne.w	4045ba <_svfprintf_r+0xc9e>
  403faa:	f01b 0f40 	tst.w	fp, #64	; 0x40
  403fae:	f000 8304 	beq.w	4045ba <_svfprintf_r+0xc9e>
  403fb2:	990f      	ldr	r1, [sp, #60]	; 0x3c
  403fb4:	f9b1 4000 	ldrsh.w	r4, [r1]
  403fb8:	3104      	adds	r1, #4
  403fba:	17e5      	asrs	r5, r4, #31
  403fbc:	4622      	mov	r2, r4
  403fbe:	462b      	mov	r3, r5
  403fc0:	910f      	str	r1, [sp, #60]	; 0x3c
  403fc2:	2a00      	cmp	r2, #0
  403fc4:	f173 0300 	sbcs.w	r3, r3, #0
  403fc8:	db58      	blt.n	40407c <_svfprintf_r+0x760>
  403fca:	990a      	ldr	r1, [sp, #40]	; 0x28
  403fcc:	f89d 7077 	ldrb.w	r7, [sp, #119]	; 0x77
  403fd0:	1c4a      	adds	r2, r1, #1
  403fd2:	f04f 0301 	mov.w	r3, #1
  403fd6:	f47f ad9b 	bne.w	403b10 <_svfprintf_r+0x1f4>
  403fda:	ea54 0205 	orrs.w	r2, r4, r5
  403fde:	f000 81df 	beq.w	4043a0 <_svfprintf_r+0xa84>
  403fe2:	f8cd b01c 	str.w	fp, [sp, #28]
  403fe6:	2b01      	cmp	r3, #1
  403fe8:	f000 827b 	beq.w	4044e2 <_svfprintf_r+0xbc6>
  403fec:	2b02      	cmp	r3, #2
  403fee:	f040 8206 	bne.w	4043fe <_svfprintf_r+0xae2>
  403ff2:	9818      	ldr	r0, [sp, #96]	; 0x60
  403ff4:	464e      	mov	r6, r9
  403ff6:	0923      	lsrs	r3, r4, #4
  403ff8:	f004 010f 	and.w	r1, r4, #15
  403ffc:	ea43 7305 	orr.w	r3, r3, r5, lsl #28
  404000:	092a      	lsrs	r2, r5, #4
  404002:	461c      	mov	r4, r3
  404004:	4615      	mov	r5, r2
  404006:	5c43      	ldrb	r3, [r0, r1]
  404008:	f806 3d01 	strb.w	r3, [r6, #-1]!
  40400c:	ea54 0305 	orrs.w	r3, r4, r5
  404010:	d1f1      	bne.n	403ff6 <_svfprintf_r+0x6da>
  404012:	eba9 0306 	sub.w	r3, r9, r6
  404016:	930e      	str	r3, [sp, #56]	; 0x38
  404018:	e590      	b.n	403b3c <_svfprintf_r+0x220>
  40401a:	9311      	str	r3, [sp, #68]	; 0x44
  40401c:	2a00      	cmp	r2, #0
  40401e:	f040 86a3 	bne.w	404d68 <_svfprintf_r+0x144c>
  404022:	4b7e      	ldr	r3, [pc, #504]	; (40421c <_svfprintf_r+0x900>)
  404024:	9318      	str	r3, [sp, #96]	; 0x60
  404026:	f01b 0f20 	tst.w	fp, #32
  40402a:	f43f aeef 	beq.w	403e0c <_svfprintf_r+0x4f0>
  40402e:	9d0f      	ldr	r5, [sp, #60]	; 0x3c
  404030:	3507      	adds	r5, #7
  404032:	f025 0307 	bic.w	r3, r5, #7
  404036:	f103 0208 	add.w	r2, r3, #8
  40403a:	f01b 0f01 	tst.w	fp, #1
  40403e:	920f      	str	r2, [sp, #60]	; 0x3c
  404040:	e9d3 4500 	ldrd	r4, r5, [r3]
  404044:	f47f aef4 	bne.w	403e30 <_svfprintf_r+0x514>
  404048:	2302      	movs	r3, #2
  40404a:	e55a      	b.n	403b02 <_svfprintf_r+0x1e6>
  40404c:	9311      	str	r3, [sp, #68]	; 0x44
  40404e:	2a00      	cmp	r2, #0
  404050:	f040 8686 	bne.w	404d60 <_svfprintf_r+0x1444>
  404054:	f04b 0b10 	orr.w	fp, fp, #16
  404058:	f01b 0f20 	tst.w	fp, #32
  40405c:	d0a1      	beq.n	403fa2 <_svfprintf_r+0x686>
  40405e:	9d0f      	ldr	r5, [sp, #60]	; 0x3c
  404060:	3507      	adds	r5, #7
  404062:	f025 0507 	bic.w	r5, r5, #7
  404066:	e9d5 2300 	ldrd	r2, r3, [r5]
  40406a:	2a00      	cmp	r2, #0
  40406c:	f105 0108 	add.w	r1, r5, #8
  404070:	461d      	mov	r5, r3
  404072:	f173 0300 	sbcs.w	r3, r3, #0
  404076:	910f      	str	r1, [sp, #60]	; 0x3c
  404078:	4614      	mov	r4, r2
  40407a:	daa6      	bge.n	403fca <_svfprintf_r+0x6ae>
  40407c:	272d      	movs	r7, #45	; 0x2d
  40407e:	4264      	negs	r4, r4
  404080:	eb65 0545 	sbc.w	r5, r5, r5, lsl #1
  404084:	f88d 7077 	strb.w	r7, [sp, #119]	; 0x77
  404088:	2301      	movs	r3, #1
  40408a:	e53d      	b.n	403b08 <_svfprintf_r+0x1ec>
  40408c:	9311      	str	r3, [sp, #68]	; 0x44
  40408e:	2a00      	cmp	r2, #0
  404090:	f040 8662 	bne.w	404d58 <_svfprintf_r+0x143c>
  404094:	9d0f      	ldr	r5, [sp, #60]	; 0x3c
  404096:	3507      	adds	r5, #7
  404098:	f025 0307 	bic.w	r3, r5, #7
  40409c:	f103 0208 	add.w	r2, r3, #8
  4040a0:	920f      	str	r2, [sp, #60]	; 0x3c
  4040a2:	681a      	ldr	r2, [r3, #0]
  4040a4:	9215      	str	r2, [sp, #84]	; 0x54
  4040a6:	685b      	ldr	r3, [r3, #4]
  4040a8:	9314      	str	r3, [sp, #80]	; 0x50
  4040aa:	9b14      	ldr	r3, [sp, #80]	; 0x50
  4040ac:	9d15      	ldr	r5, [sp, #84]	; 0x54
  4040ae:	f023 4400 	bic.w	r4, r3, #2147483648	; 0x80000000
  4040b2:	4628      	mov	r0, r5
  4040b4:	4621      	mov	r1, r4
  4040b6:	f04f 32ff 	mov.w	r2, #4294967295
  4040ba:	4b59      	ldr	r3, [pc, #356]	; (404220 <_svfprintf_r+0x904>)
  4040bc:	f004 ff1e 	bl	408efc <__aeabi_dcmpun>
  4040c0:	2800      	cmp	r0, #0
  4040c2:	f040 834a 	bne.w	40475a <_svfprintf_r+0xe3e>
  4040c6:	4628      	mov	r0, r5
  4040c8:	4621      	mov	r1, r4
  4040ca:	f04f 32ff 	mov.w	r2, #4294967295
  4040ce:	4b54      	ldr	r3, [pc, #336]	; (404220 <_svfprintf_r+0x904>)
  4040d0:	f004 fef6 	bl	408ec0 <__aeabi_dcmple>
  4040d4:	2800      	cmp	r0, #0
  4040d6:	f040 8340 	bne.w	40475a <_svfprintf_r+0xe3e>
  4040da:	a815      	add	r0, sp, #84	; 0x54
  4040dc:	c80d      	ldmia	r0, {r0, r2, r3}
  4040de:	9914      	ldr	r1, [sp, #80]	; 0x50
  4040e0:	f004 fee4 	bl	408eac <__aeabi_dcmplt>
  4040e4:	2800      	cmp	r0, #0
  4040e6:	f040 8530 	bne.w	404b4a <_svfprintf_r+0x122e>
  4040ea:	f89d 7077 	ldrb.w	r7, [sp, #119]	; 0x77
  4040ee:	4e4d      	ldr	r6, [pc, #308]	; (404224 <_svfprintf_r+0x908>)
  4040f0:	4b4d      	ldr	r3, [pc, #308]	; (404228 <_svfprintf_r+0x90c>)
  4040f2:	f02b 0080 	bic.w	r0, fp, #128	; 0x80
  4040f6:	9007      	str	r0, [sp, #28]
  4040f8:	9811      	ldr	r0, [sp, #68]	; 0x44
  4040fa:	2203      	movs	r2, #3
  4040fc:	2100      	movs	r1, #0
  4040fe:	9208      	str	r2, [sp, #32]
  404100:	910a      	str	r1, [sp, #40]	; 0x28
  404102:	2847      	cmp	r0, #71	; 0x47
  404104:	bfd8      	it	le
  404106:	461e      	movle	r6, r3
  404108:	920e      	str	r2, [sp, #56]	; 0x38
  40410a:	9112      	str	r1, [sp, #72]	; 0x48
  40410c:	e51e      	b.n	403b4c <_svfprintf_r+0x230>
  40410e:	f04b 0b08 	orr.w	fp, fp, #8
  404112:	f89a 3000 	ldrb.w	r3, [sl]
  404116:	e459      	b.n	4039cc <_svfprintf_r+0xb0>
  404118:	f1a3 0030 	sub.w	r0, r3, #48	; 0x30
  40411c:	2300      	movs	r3, #0
  40411e:	461c      	mov	r4, r3
  404120:	f81a 3b01 	ldrb.w	r3, [sl], #1
  404124:	eb04 0484 	add.w	r4, r4, r4, lsl #2
  404128:	eb00 0444 	add.w	r4, r0, r4, lsl #1
  40412c:	f1a3 0030 	sub.w	r0, r3, #48	; 0x30
  404130:	2809      	cmp	r0, #9
  404132:	d9f5      	bls.n	404120 <_svfprintf_r+0x804>
  404134:	940d      	str	r4, [sp, #52]	; 0x34
  404136:	e44b      	b.n	4039d0 <_svfprintf_r+0xb4>
  404138:	f04b 0b10 	orr.w	fp, fp, #16
  40413c:	9311      	str	r3, [sp, #68]	; 0x44
  40413e:	f01b 0320 	ands.w	r3, fp, #32
  404142:	f43f ae1d 	beq.w	403d80 <_svfprintf_r+0x464>
  404146:	9d0f      	ldr	r5, [sp, #60]	; 0x3c
  404148:	3507      	adds	r5, #7
  40414a:	f025 0307 	bic.w	r3, r5, #7
  40414e:	f103 0208 	add.w	r2, r3, #8
  404152:	e9d3 4500 	ldrd	r4, r5, [r3]
  404156:	920f      	str	r2, [sp, #60]	; 0x3c
  404158:	2300      	movs	r3, #0
  40415a:	e4d2      	b.n	403b02 <_svfprintf_r+0x1e6>
  40415c:	9311      	str	r3, [sp, #68]	; 0x44
  40415e:	2a00      	cmp	r2, #0
  404160:	f040 85e7 	bne.w	404d32 <_svfprintf_r+0x1416>
  404164:	9a11      	ldr	r2, [sp, #68]	; 0x44
  404166:	2a00      	cmp	r2, #0
  404168:	f43f aca3 	beq.w	403ab2 <_svfprintf_r+0x196>
  40416c:	2300      	movs	r3, #0
  40416e:	2101      	movs	r1, #1
  404170:	461f      	mov	r7, r3
  404172:	9108      	str	r1, [sp, #32]
  404174:	f88d 20a0 	strb.w	r2, [sp, #160]	; 0xa0
  404178:	f8cd b01c 	str.w	fp, [sp, #28]
  40417c:	f88d 3077 	strb.w	r3, [sp, #119]	; 0x77
  404180:	930a      	str	r3, [sp, #40]	; 0x28
  404182:	9312      	str	r3, [sp, #72]	; 0x48
  404184:	910e      	str	r1, [sp, #56]	; 0x38
  404186:	ae28      	add	r6, sp, #160	; 0xa0
  404188:	e4e4      	b.n	403b54 <_svfprintf_r+0x238>
  40418a:	9c27      	ldr	r4, [sp, #156]	; 0x9c
  40418c:	e534      	b.n	403bf8 <_svfprintf_r+0x2dc>
  40418e:	9b11      	ldr	r3, [sp, #68]	; 0x44
  404190:	2b65      	cmp	r3, #101	; 0x65
  404192:	f340 80a7 	ble.w	4042e4 <_svfprintf_r+0x9c8>
  404196:	a815      	add	r0, sp, #84	; 0x54
  404198:	c80d      	ldmia	r0, {r0, r2, r3}
  40419a:	9914      	ldr	r1, [sp, #80]	; 0x50
  40419c:	f004 fe7c 	bl	408e98 <__aeabi_dcmpeq>
  4041a0:	2800      	cmp	r0, #0
  4041a2:	f000 8150 	beq.w	404446 <_svfprintf_r+0xb2a>
  4041a6:	9b26      	ldr	r3, [sp, #152]	; 0x98
  4041a8:	4a20      	ldr	r2, [pc, #128]	; (40422c <_svfprintf_r+0x910>)
  4041aa:	f8c8 2000 	str.w	r2, [r8]
  4041ae:	3301      	adds	r3, #1
  4041b0:	3401      	adds	r4, #1
  4041b2:	2201      	movs	r2, #1
  4041b4:	2b07      	cmp	r3, #7
  4041b6:	9427      	str	r4, [sp, #156]	; 0x9c
  4041b8:	9326      	str	r3, [sp, #152]	; 0x98
  4041ba:	f8c8 2004 	str.w	r2, [r8, #4]
  4041be:	f300 836a 	bgt.w	404896 <_svfprintf_r+0xf7a>
  4041c2:	f108 0808 	add.w	r8, r8, #8
  4041c6:	9b1f      	ldr	r3, [sp, #124]	; 0x7c
  4041c8:	9a13      	ldr	r2, [sp, #76]	; 0x4c
  4041ca:	9c27      	ldr	r4, [sp, #156]	; 0x9c
  4041cc:	4293      	cmp	r3, r2
  4041ce:	db03      	blt.n	4041d8 <_svfprintf_r+0x8bc>
  4041d0:	9b07      	ldr	r3, [sp, #28]
  4041d2:	07dd      	lsls	r5, r3, #31
  4041d4:	f57f ad82 	bpl.w	403cdc <_svfprintf_r+0x3c0>
  4041d8:	9b26      	ldr	r3, [sp, #152]	; 0x98
  4041da:	9919      	ldr	r1, [sp, #100]	; 0x64
  4041dc:	9a1a      	ldr	r2, [sp, #104]	; 0x68
  4041de:	f8c8 2000 	str.w	r2, [r8]
  4041e2:	3301      	adds	r3, #1
  4041e4:	440c      	add	r4, r1
  4041e6:	2b07      	cmp	r3, #7
  4041e8:	f8c8 1004 	str.w	r1, [r8, #4]
  4041ec:	9427      	str	r4, [sp, #156]	; 0x9c
  4041ee:	9326      	str	r3, [sp, #152]	; 0x98
  4041f0:	f300 839e 	bgt.w	404930 <_svfprintf_r+0x1014>
  4041f4:	f108 0808 	add.w	r8, r8, #8
  4041f8:	9b13      	ldr	r3, [sp, #76]	; 0x4c
  4041fa:	1e5e      	subs	r6, r3, #1
  4041fc:	2e00      	cmp	r6, #0
  4041fe:	f77f ad6d 	ble.w	403cdc <_svfprintf_r+0x3c0>
  404202:	2e10      	cmp	r6, #16
  404204:	9b26      	ldr	r3, [sp, #152]	; 0x98
  404206:	4d0a      	ldr	r5, [pc, #40]	; (404230 <_svfprintf_r+0x914>)
  404208:	f340 81f5 	ble.w	4045f6 <_svfprintf_r+0xcda>
  40420c:	4622      	mov	r2, r4
  40420e:	2710      	movs	r7, #16
  404210:	f8dd b030 	ldr.w	fp, [sp, #48]	; 0x30
  404214:	9c0b      	ldr	r4, [sp, #44]	; 0x2c
  404216:	e013      	b.n	404240 <_svfprintf_r+0x924>
  404218:	004093dc 	.word	0x004093dc
  40421c:	004093c8 	.word	0x004093c8
  404220:	7fefffff 	.word	0x7fefffff
  404224:	004093bc 	.word	0x004093bc
  404228:	004093b8 	.word	0x004093b8
  40422c:	004093f8 	.word	0x004093f8
  404230:	0040940c 	.word	0x0040940c
  404234:	f108 0808 	add.w	r8, r8, #8
  404238:	3e10      	subs	r6, #16
  40423a:	2e10      	cmp	r6, #16
  40423c:	f340 81da 	ble.w	4045f4 <_svfprintf_r+0xcd8>
  404240:	3301      	adds	r3, #1
  404242:	3210      	adds	r2, #16
  404244:	2b07      	cmp	r3, #7
  404246:	9227      	str	r2, [sp, #156]	; 0x9c
  404248:	9326      	str	r3, [sp, #152]	; 0x98
  40424a:	e888 00a0 	stmia.w	r8, {r5, r7}
  40424e:	ddf1      	ble.n	404234 <_svfprintf_r+0x918>
  404250:	aa25      	add	r2, sp, #148	; 0x94
  404252:	4621      	mov	r1, r4
  404254:	4658      	mov	r0, fp
  404256:	f003 ff83 	bl	408160 <__ssprint_r>
  40425a:	2800      	cmp	r0, #0
  40425c:	f47f ac30 	bne.w	403ac0 <_svfprintf_r+0x1a4>
  404260:	9a27      	ldr	r2, [sp, #156]	; 0x9c
  404262:	9b26      	ldr	r3, [sp, #152]	; 0x98
  404264:	46c8      	mov	r8, r9
  404266:	e7e7      	b.n	404238 <_svfprintf_r+0x91c>
  404268:	9b0d      	ldr	r3, [sp, #52]	; 0x34
  40426a:	9a08      	ldr	r2, [sp, #32]
  40426c:	1a9f      	subs	r7, r3, r2
  40426e:	2f00      	cmp	r7, #0
  404270:	f77f ace5 	ble.w	403c3e <_svfprintf_r+0x322>
  404274:	2f10      	cmp	r7, #16
  404276:	9b26      	ldr	r3, [sp, #152]	; 0x98
  404278:	4db6      	ldr	r5, [pc, #728]	; (404554 <_svfprintf_r+0xc38>)
  40427a:	dd27      	ble.n	4042cc <_svfprintf_r+0x9b0>
  40427c:	4642      	mov	r2, r8
  40427e:	4621      	mov	r1, r4
  404280:	46b0      	mov	r8, r6
  404282:	f04f 0b10 	mov.w	fp, #16
  404286:	462e      	mov	r6, r5
  404288:	9c0c      	ldr	r4, [sp, #48]	; 0x30
  40428a:	9d0b      	ldr	r5, [sp, #44]	; 0x2c
  40428c:	e004      	b.n	404298 <_svfprintf_r+0x97c>
  40428e:	3f10      	subs	r7, #16
  404290:	2f10      	cmp	r7, #16
  404292:	f102 0208 	add.w	r2, r2, #8
  404296:	dd15      	ble.n	4042c4 <_svfprintf_r+0x9a8>
  404298:	3301      	adds	r3, #1
  40429a:	3110      	adds	r1, #16
  40429c:	2b07      	cmp	r3, #7
  40429e:	9127      	str	r1, [sp, #156]	; 0x9c
  4042a0:	9326      	str	r3, [sp, #152]	; 0x98
  4042a2:	e882 0840 	stmia.w	r2, {r6, fp}
  4042a6:	ddf2      	ble.n	40428e <_svfprintf_r+0x972>
  4042a8:	aa25      	add	r2, sp, #148	; 0x94
  4042aa:	4629      	mov	r1, r5
  4042ac:	4620      	mov	r0, r4
  4042ae:	f003 ff57 	bl	408160 <__ssprint_r>
  4042b2:	2800      	cmp	r0, #0
  4042b4:	f47f ac04 	bne.w	403ac0 <_svfprintf_r+0x1a4>
  4042b8:	3f10      	subs	r7, #16
  4042ba:	2f10      	cmp	r7, #16
  4042bc:	9927      	ldr	r1, [sp, #156]	; 0x9c
  4042be:	9b26      	ldr	r3, [sp, #152]	; 0x98
  4042c0:	464a      	mov	r2, r9
  4042c2:	dce9      	bgt.n	404298 <_svfprintf_r+0x97c>
  4042c4:	4635      	mov	r5, r6
  4042c6:	460c      	mov	r4, r1
  4042c8:	4646      	mov	r6, r8
  4042ca:	4690      	mov	r8, r2
  4042cc:	3301      	adds	r3, #1
  4042ce:	443c      	add	r4, r7
  4042d0:	2b07      	cmp	r3, #7
  4042d2:	9427      	str	r4, [sp, #156]	; 0x9c
  4042d4:	9326      	str	r3, [sp, #152]	; 0x98
  4042d6:	e888 00a0 	stmia.w	r8, {r5, r7}
  4042da:	f300 8232 	bgt.w	404742 <_svfprintf_r+0xe26>
  4042de:	f108 0808 	add.w	r8, r8, #8
  4042e2:	e4ac      	b.n	403c3e <_svfprintf_r+0x322>
  4042e4:	9b13      	ldr	r3, [sp, #76]	; 0x4c
  4042e6:	9f26      	ldr	r7, [sp, #152]	; 0x98
  4042e8:	2b01      	cmp	r3, #1
  4042ea:	f340 81fe 	ble.w	4046ea <_svfprintf_r+0xdce>
  4042ee:	3701      	adds	r7, #1
  4042f0:	3401      	adds	r4, #1
  4042f2:	2301      	movs	r3, #1
  4042f4:	2f07      	cmp	r7, #7
  4042f6:	9427      	str	r4, [sp, #156]	; 0x9c
  4042f8:	9726      	str	r7, [sp, #152]	; 0x98
  4042fa:	f8c8 6000 	str.w	r6, [r8]
  4042fe:	f8c8 3004 	str.w	r3, [r8, #4]
  404302:	f300 8203 	bgt.w	40470c <_svfprintf_r+0xdf0>
  404306:	f108 0808 	add.w	r8, r8, #8
  40430a:	9a19      	ldr	r2, [sp, #100]	; 0x64
  40430c:	9b1a      	ldr	r3, [sp, #104]	; 0x68
  40430e:	f8c8 3000 	str.w	r3, [r8]
  404312:	3701      	adds	r7, #1
  404314:	4414      	add	r4, r2
  404316:	2f07      	cmp	r7, #7
  404318:	9427      	str	r4, [sp, #156]	; 0x9c
  40431a:	9726      	str	r7, [sp, #152]	; 0x98
  40431c:	f8c8 2004 	str.w	r2, [r8, #4]
  404320:	f300 8200 	bgt.w	404724 <_svfprintf_r+0xe08>
  404324:	f108 0808 	add.w	r8, r8, #8
  404328:	a815      	add	r0, sp, #84	; 0x54
  40432a:	c80d      	ldmia	r0, {r0, r2, r3}
  40432c:	9914      	ldr	r1, [sp, #80]	; 0x50
  40432e:	f004 fdb3 	bl	408e98 <__aeabi_dcmpeq>
  404332:	9b13      	ldr	r3, [sp, #76]	; 0x4c
  404334:	2800      	cmp	r0, #0
  404336:	f040 8101 	bne.w	40453c <_svfprintf_r+0xc20>
  40433a:	3b01      	subs	r3, #1
  40433c:	3701      	adds	r7, #1
  40433e:	3601      	adds	r6, #1
  404340:	441c      	add	r4, r3
  404342:	2f07      	cmp	r7, #7
  404344:	9726      	str	r7, [sp, #152]	; 0x98
  404346:	9427      	str	r4, [sp, #156]	; 0x9c
  404348:	f8c8 6000 	str.w	r6, [r8]
  40434c:	f8c8 3004 	str.w	r3, [r8, #4]
  404350:	f300 8127 	bgt.w	4045a2 <_svfprintf_r+0xc86>
  404354:	f108 0808 	add.w	r8, r8, #8
  404358:	9a1b      	ldr	r2, [sp, #108]	; 0x6c
  40435a:	f8c8 2004 	str.w	r2, [r8, #4]
  40435e:	3701      	adds	r7, #1
  404360:	4414      	add	r4, r2
  404362:	ab21      	add	r3, sp, #132	; 0x84
  404364:	2f07      	cmp	r7, #7
  404366:	9427      	str	r4, [sp, #156]	; 0x9c
  404368:	9726      	str	r7, [sp, #152]	; 0x98
  40436a:	f8c8 3000 	str.w	r3, [r8]
  40436e:	f77f acb3 	ble.w	403cd8 <_svfprintf_r+0x3bc>
  404372:	aa25      	add	r2, sp, #148	; 0x94
  404374:	990b      	ldr	r1, [sp, #44]	; 0x2c
  404376:	980c      	ldr	r0, [sp, #48]	; 0x30
  404378:	f003 fef2 	bl	408160 <__ssprint_r>
  40437c:	2800      	cmp	r0, #0
  40437e:	f47f ab9f 	bne.w	403ac0 <_svfprintf_r+0x1a4>
  404382:	9c27      	ldr	r4, [sp, #156]	; 0x9c
  404384:	46c8      	mov	r8, r9
  404386:	e4a9      	b.n	403cdc <_svfprintf_r+0x3c0>
  404388:	aa25      	add	r2, sp, #148	; 0x94
  40438a:	990b      	ldr	r1, [sp, #44]	; 0x2c
  40438c:	980c      	ldr	r0, [sp, #48]	; 0x30
  40438e:	f003 fee7 	bl	408160 <__ssprint_r>
  404392:	2800      	cmp	r0, #0
  404394:	f43f aceb 	beq.w	403d6e <_svfprintf_r+0x452>
  404398:	f7ff bb92 	b.w	403ac0 <_svfprintf_r+0x1a4>
  40439c:	f8dd b01c 	ldr.w	fp, [sp, #28]
  4043a0:	2b01      	cmp	r3, #1
  4043a2:	f000 8134 	beq.w	40460e <_svfprintf_r+0xcf2>
  4043a6:	2b02      	cmp	r3, #2
  4043a8:	d125      	bne.n	4043f6 <_svfprintf_r+0xada>
  4043aa:	f8cd b01c 	str.w	fp, [sp, #28]
  4043ae:	2400      	movs	r4, #0
  4043b0:	2500      	movs	r5, #0
  4043b2:	e61e      	b.n	403ff2 <_svfprintf_r+0x6d6>
  4043b4:	aa25      	add	r2, sp, #148	; 0x94
  4043b6:	990b      	ldr	r1, [sp, #44]	; 0x2c
  4043b8:	980c      	ldr	r0, [sp, #48]	; 0x30
  4043ba:	f003 fed1 	bl	408160 <__ssprint_r>
  4043be:	2800      	cmp	r0, #0
  4043c0:	f47f ab7e 	bne.w	403ac0 <_svfprintf_r+0x1a4>
  4043c4:	9c27      	ldr	r4, [sp, #156]	; 0x9c
  4043c6:	46c8      	mov	r8, r9
  4043c8:	e475      	b.n	403cb6 <_svfprintf_r+0x39a>
  4043ca:	aa25      	add	r2, sp, #148	; 0x94
  4043cc:	990b      	ldr	r1, [sp, #44]	; 0x2c
  4043ce:	980c      	ldr	r0, [sp, #48]	; 0x30
  4043d0:	f003 fec6 	bl	408160 <__ssprint_r>
  4043d4:	2800      	cmp	r0, #0
  4043d6:	f47f ab73 	bne.w	403ac0 <_svfprintf_r+0x1a4>
  4043da:	9c27      	ldr	r4, [sp, #156]	; 0x9c
  4043dc:	46c8      	mov	r8, r9
  4043de:	e41b      	b.n	403c18 <_svfprintf_r+0x2fc>
  4043e0:	aa25      	add	r2, sp, #148	; 0x94
  4043e2:	990b      	ldr	r1, [sp, #44]	; 0x2c
  4043e4:	980c      	ldr	r0, [sp, #48]	; 0x30
  4043e6:	f003 febb 	bl	408160 <__ssprint_r>
  4043ea:	2800      	cmp	r0, #0
  4043ec:	f47f ab68 	bne.w	403ac0 <_svfprintf_r+0x1a4>
  4043f0:	9c27      	ldr	r4, [sp, #156]	; 0x9c
  4043f2:	46c8      	mov	r8, r9
  4043f4:	e420      	b.n	403c38 <_svfprintf_r+0x31c>
  4043f6:	f8cd b01c 	str.w	fp, [sp, #28]
  4043fa:	2400      	movs	r4, #0
  4043fc:	2500      	movs	r5, #0
  4043fe:	4649      	mov	r1, r9
  404400:	e000      	b.n	404404 <_svfprintf_r+0xae8>
  404402:	4631      	mov	r1, r6
  404404:	08e2      	lsrs	r2, r4, #3
  404406:	ea42 7245 	orr.w	r2, r2, r5, lsl #29
  40440a:	08e8      	lsrs	r0, r5, #3
  40440c:	f004 0307 	and.w	r3, r4, #7
  404410:	4605      	mov	r5, r0
  404412:	4614      	mov	r4, r2
  404414:	3330      	adds	r3, #48	; 0x30
  404416:	ea54 0205 	orrs.w	r2, r4, r5
  40441a:	f801 3c01 	strb.w	r3, [r1, #-1]
  40441e:	f101 36ff 	add.w	r6, r1, #4294967295
  404422:	d1ee      	bne.n	404402 <_svfprintf_r+0xae6>
  404424:	9a07      	ldr	r2, [sp, #28]
  404426:	07d2      	lsls	r2, r2, #31
  404428:	f57f adf3 	bpl.w	404012 <_svfprintf_r+0x6f6>
  40442c:	2b30      	cmp	r3, #48	; 0x30
  40442e:	f43f adf0 	beq.w	404012 <_svfprintf_r+0x6f6>
  404432:	3902      	subs	r1, #2
  404434:	2330      	movs	r3, #48	; 0x30
  404436:	f806 3c01 	strb.w	r3, [r6, #-1]
  40443a:	eba9 0301 	sub.w	r3, r9, r1
  40443e:	930e      	str	r3, [sp, #56]	; 0x38
  404440:	460e      	mov	r6, r1
  404442:	f7ff bb7b 	b.w	403b3c <_svfprintf_r+0x220>
  404446:	991f      	ldr	r1, [sp, #124]	; 0x7c
  404448:	2900      	cmp	r1, #0
  40444a:	f340 822e 	ble.w	4048aa <_svfprintf_r+0xf8e>
  40444e:	9b12      	ldr	r3, [sp, #72]	; 0x48
  404450:	9a13      	ldr	r2, [sp, #76]	; 0x4c
  404452:	4293      	cmp	r3, r2
  404454:	bfa8      	it	ge
  404456:	4613      	movge	r3, r2
  404458:	2b00      	cmp	r3, #0
  40445a:	461f      	mov	r7, r3
  40445c:	dd0d      	ble.n	40447a <_svfprintf_r+0xb5e>
  40445e:	9b26      	ldr	r3, [sp, #152]	; 0x98
  404460:	f8c8 6000 	str.w	r6, [r8]
  404464:	3301      	adds	r3, #1
  404466:	443c      	add	r4, r7
  404468:	2b07      	cmp	r3, #7
  40446a:	9427      	str	r4, [sp, #156]	; 0x9c
  40446c:	f8c8 7004 	str.w	r7, [r8, #4]
  404470:	9326      	str	r3, [sp, #152]	; 0x98
  404472:	f300 831f 	bgt.w	404ab4 <_svfprintf_r+0x1198>
  404476:	f108 0808 	add.w	r8, r8, #8
  40447a:	9b12      	ldr	r3, [sp, #72]	; 0x48
  40447c:	2f00      	cmp	r7, #0
  40447e:	bfa8      	it	ge
  404480:	1bdb      	subge	r3, r3, r7
  404482:	2b00      	cmp	r3, #0
  404484:	461f      	mov	r7, r3
  404486:	f340 80d6 	ble.w	404636 <_svfprintf_r+0xd1a>
  40448a:	2f10      	cmp	r7, #16
  40448c:	9b26      	ldr	r3, [sp, #152]	; 0x98
  40448e:	4d31      	ldr	r5, [pc, #196]	; (404554 <_svfprintf_r+0xc38>)
  404490:	f340 81ed 	ble.w	40486e <_svfprintf_r+0xf52>
  404494:	4642      	mov	r2, r8
  404496:	4621      	mov	r1, r4
  404498:	46b0      	mov	r8, r6
  40449a:	f04f 0b10 	mov.w	fp, #16
  40449e:	462e      	mov	r6, r5
  4044a0:	9c0c      	ldr	r4, [sp, #48]	; 0x30
  4044a2:	9d0b      	ldr	r5, [sp, #44]	; 0x2c
  4044a4:	e004      	b.n	4044b0 <_svfprintf_r+0xb94>
  4044a6:	3208      	adds	r2, #8
  4044a8:	3f10      	subs	r7, #16
  4044aa:	2f10      	cmp	r7, #16
  4044ac:	f340 81db 	ble.w	404866 <_svfprintf_r+0xf4a>
  4044b0:	3301      	adds	r3, #1
  4044b2:	3110      	adds	r1, #16
  4044b4:	2b07      	cmp	r3, #7
  4044b6:	9127      	str	r1, [sp, #156]	; 0x9c
  4044b8:	9326      	str	r3, [sp, #152]	; 0x98
  4044ba:	e882 0840 	stmia.w	r2, {r6, fp}
  4044be:	ddf2      	ble.n	4044a6 <_svfprintf_r+0xb8a>
  4044c0:	aa25      	add	r2, sp, #148	; 0x94
  4044c2:	4629      	mov	r1, r5
  4044c4:	4620      	mov	r0, r4
  4044c6:	f003 fe4b 	bl	408160 <__ssprint_r>
  4044ca:	2800      	cmp	r0, #0
  4044cc:	f47f aaf8 	bne.w	403ac0 <_svfprintf_r+0x1a4>
  4044d0:	9927      	ldr	r1, [sp, #156]	; 0x9c
  4044d2:	9b26      	ldr	r3, [sp, #152]	; 0x98
  4044d4:	464a      	mov	r2, r9
  4044d6:	e7e7      	b.n	4044a8 <_svfprintf_r+0xb8c>
  4044d8:	9b0a      	ldr	r3, [sp, #40]	; 0x28
  4044da:	930e      	str	r3, [sp, #56]	; 0x38
  4044dc:	464e      	mov	r6, r9
  4044de:	f7ff bb2d 	b.w	403b3c <_svfprintf_r+0x220>
  4044e2:	2d00      	cmp	r5, #0
  4044e4:	bf08      	it	eq
  4044e6:	2c0a      	cmpeq	r4, #10
  4044e8:	f0c0 808f 	bcc.w	40460a <_svfprintf_r+0xcee>
  4044ec:	464e      	mov	r6, r9
  4044ee:	4620      	mov	r0, r4
  4044f0:	4629      	mov	r1, r5
  4044f2:	220a      	movs	r2, #10
  4044f4:	2300      	movs	r3, #0
  4044f6:	f004 fd3f 	bl	408f78 <__aeabi_uldivmod>
  4044fa:	3230      	adds	r2, #48	; 0x30
  4044fc:	f806 2d01 	strb.w	r2, [r6, #-1]!
  404500:	4620      	mov	r0, r4
  404502:	4629      	mov	r1, r5
  404504:	2300      	movs	r3, #0
  404506:	220a      	movs	r2, #10
  404508:	f004 fd36 	bl	408f78 <__aeabi_uldivmod>
  40450c:	4604      	mov	r4, r0
  40450e:	460d      	mov	r5, r1
  404510:	ea54 0305 	orrs.w	r3, r4, r5
  404514:	d1eb      	bne.n	4044ee <_svfprintf_r+0xbd2>
  404516:	eba9 0306 	sub.w	r3, r9, r6
  40451a:	930e      	str	r3, [sp, #56]	; 0x38
  40451c:	f7ff bb0e 	b.w	403b3c <_svfprintf_r+0x220>
  404520:	aa25      	add	r2, sp, #148	; 0x94
  404522:	990b      	ldr	r1, [sp, #44]	; 0x2c
  404524:	980c      	ldr	r0, [sp, #48]	; 0x30
  404526:	f003 fe1b 	bl	408160 <__ssprint_r>
  40452a:	2800      	cmp	r0, #0
  40452c:	f47f aac8 	bne.w	403ac0 <_svfprintf_r+0x1a4>
  404530:	f89d 7077 	ldrb.w	r7, [sp, #119]	; 0x77
  404534:	9c27      	ldr	r4, [sp, #156]	; 0x9c
  404536:	46c8      	mov	r8, r9
  404538:	f7ff bb5e 	b.w	403bf8 <_svfprintf_r+0x2dc>
  40453c:	1e5e      	subs	r6, r3, #1
  40453e:	2e00      	cmp	r6, #0
  404540:	f77f af0a 	ble.w	404358 <_svfprintf_r+0xa3c>
  404544:	2e10      	cmp	r6, #16
  404546:	4d03      	ldr	r5, [pc, #12]	; (404554 <_svfprintf_r+0xc38>)
  404548:	dd22      	ble.n	404590 <_svfprintf_r+0xc74>
  40454a:	4622      	mov	r2, r4
  40454c:	f04f 0b10 	mov.w	fp, #16
  404550:	9c0c      	ldr	r4, [sp, #48]	; 0x30
  404552:	e006      	b.n	404562 <_svfprintf_r+0xc46>
  404554:	0040940c 	.word	0x0040940c
  404558:	3e10      	subs	r6, #16
  40455a:	2e10      	cmp	r6, #16
  40455c:	f108 0808 	add.w	r8, r8, #8
  404560:	dd15      	ble.n	40458e <_svfprintf_r+0xc72>
  404562:	3701      	adds	r7, #1
  404564:	3210      	adds	r2, #16
  404566:	2f07      	cmp	r7, #7
  404568:	9227      	str	r2, [sp, #156]	; 0x9c
  40456a:	9726      	str	r7, [sp, #152]	; 0x98
  40456c:	e888 0820 	stmia.w	r8, {r5, fp}
  404570:	ddf2      	ble.n	404558 <_svfprintf_r+0xc3c>
  404572:	aa25      	add	r2, sp, #148	; 0x94
  404574:	990b      	ldr	r1, [sp, #44]	; 0x2c
  404576:	4620      	mov	r0, r4
  404578:	f003 fdf2 	bl	408160 <__ssprint_r>
  40457c:	2800      	cmp	r0, #0
  40457e:	f47f aa9f 	bne.w	403ac0 <_svfprintf_r+0x1a4>
  404582:	3e10      	subs	r6, #16
  404584:	2e10      	cmp	r6, #16
  404586:	9a27      	ldr	r2, [sp, #156]	; 0x9c
  404588:	9f26      	ldr	r7, [sp, #152]	; 0x98
  40458a:	46c8      	mov	r8, r9
  40458c:	dce9      	bgt.n	404562 <_svfprintf_r+0xc46>
  40458e:	4614      	mov	r4, r2
  404590:	3701      	adds	r7, #1
  404592:	4434      	add	r4, r6
  404594:	2f07      	cmp	r7, #7
  404596:	9427      	str	r4, [sp, #156]	; 0x9c
  404598:	9726      	str	r7, [sp, #152]	; 0x98
  40459a:	e888 0060 	stmia.w	r8, {r5, r6}
  40459e:	f77f aed9 	ble.w	404354 <_svfprintf_r+0xa38>
  4045a2:	aa25      	add	r2, sp, #148	; 0x94
  4045a4:	990b      	ldr	r1, [sp, #44]	; 0x2c
  4045a6:	980c      	ldr	r0, [sp, #48]	; 0x30
  4045a8:	f003 fdda 	bl	408160 <__ssprint_r>
  4045ac:	2800      	cmp	r0, #0
  4045ae:	f47f aa87 	bne.w	403ac0 <_svfprintf_r+0x1a4>
  4045b2:	9c27      	ldr	r4, [sp, #156]	; 0x9c
  4045b4:	9f26      	ldr	r7, [sp, #152]	; 0x98
  4045b6:	46c8      	mov	r8, r9
  4045b8:	e6ce      	b.n	404358 <_svfprintf_r+0xa3c>
  4045ba:	9a0f      	ldr	r2, [sp, #60]	; 0x3c
  4045bc:	6814      	ldr	r4, [r2, #0]
  4045be:	4613      	mov	r3, r2
  4045c0:	3304      	adds	r3, #4
  4045c2:	17e5      	asrs	r5, r4, #31
  4045c4:	930f      	str	r3, [sp, #60]	; 0x3c
  4045c6:	4622      	mov	r2, r4
  4045c8:	462b      	mov	r3, r5
  4045ca:	e4fa      	b.n	403fc2 <_svfprintf_r+0x6a6>
  4045cc:	3204      	adds	r2, #4
  4045ce:	681c      	ldr	r4, [r3, #0]
  4045d0:	920f      	str	r2, [sp, #60]	; 0x3c
  4045d2:	2301      	movs	r3, #1
  4045d4:	2500      	movs	r5, #0
  4045d6:	f7ff ba94 	b.w	403b02 <_svfprintf_r+0x1e6>
  4045da:	681c      	ldr	r4, [r3, #0]
  4045dc:	3304      	adds	r3, #4
  4045de:	930f      	str	r3, [sp, #60]	; 0x3c
  4045e0:	2500      	movs	r5, #0
  4045e2:	e421      	b.n	403e28 <_svfprintf_r+0x50c>
  4045e4:	990f      	ldr	r1, [sp, #60]	; 0x3c
  4045e6:	460a      	mov	r2, r1
  4045e8:	3204      	adds	r2, #4
  4045ea:	680c      	ldr	r4, [r1, #0]
  4045ec:	920f      	str	r2, [sp, #60]	; 0x3c
  4045ee:	2500      	movs	r5, #0
  4045f0:	f7ff ba87 	b.w	403b02 <_svfprintf_r+0x1e6>
  4045f4:	4614      	mov	r4, r2
  4045f6:	3301      	adds	r3, #1
  4045f8:	4434      	add	r4, r6
  4045fa:	2b07      	cmp	r3, #7
  4045fc:	9427      	str	r4, [sp, #156]	; 0x9c
  4045fe:	9326      	str	r3, [sp, #152]	; 0x98
  404600:	e888 0060 	stmia.w	r8, {r5, r6}
  404604:	f77f ab68 	ble.w	403cd8 <_svfprintf_r+0x3bc>
  404608:	e6b3      	b.n	404372 <_svfprintf_r+0xa56>
  40460a:	f8dd b01c 	ldr.w	fp, [sp, #28]
  40460e:	f8cd b01c 	str.w	fp, [sp, #28]
  404612:	ae42      	add	r6, sp, #264	; 0x108
  404614:	3430      	adds	r4, #48	; 0x30
  404616:	2301      	movs	r3, #1
  404618:	f806 4d41 	strb.w	r4, [r6, #-65]!
  40461c:	930e      	str	r3, [sp, #56]	; 0x38
  40461e:	f7ff ba8d 	b.w	403b3c <_svfprintf_r+0x220>
  404622:	aa25      	add	r2, sp, #148	; 0x94
  404624:	990b      	ldr	r1, [sp, #44]	; 0x2c
  404626:	980c      	ldr	r0, [sp, #48]	; 0x30
  404628:	f003 fd9a 	bl	408160 <__ssprint_r>
  40462c:	2800      	cmp	r0, #0
  40462e:	f47f aa47 	bne.w	403ac0 <_svfprintf_r+0x1a4>
  404632:	9c27      	ldr	r4, [sp, #156]	; 0x9c
  404634:	46c8      	mov	r8, r9
  404636:	9a1f      	ldr	r2, [sp, #124]	; 0x7c
  404638:	9b13      	ldr	r3, [sp, #76]	; 0x4c
  40463a:	429a      	cmp	r2, r3
  40463c:	db44      	blt.n	4046c8 <_svfprintf_r+0xdac>
  40463e:	9b07      	ldr	r3, [sp, #28]
  404640:	07d9      	lsls	r1, r3, #31
  404642:	d441      	bmi.n	4046c8 <_svfprintf_r+0xdac>
  404644:	9b13      	ldr	r3, [sp, #76]	; 0x4c
  404646:	9812      	ldr	r0, [sp, #72]	; 0x48
  404648:	1a9a      	subs	r2, r3, r2
  40464a:	1a1d      	subs	r5, r3, r0
  40464c:	4295      	cmp	r5, r2
  40464e:	bfa8      	it	ge
  404650:	4615      	movge	r5, r2
  404652:	2d00      	cmp	r5, #0
  404654:	dd0e      	ble.n	404674 <_svfprintf_r+0xd58>
  404656:	9926      	ldr	r1, [sp, #152]	; 0x98
  404658:	f8c8 5004 	str.w	r5, [r8, #4]
  40465c:	3101      	adds	r1, #1
  40465e:	4406      	add	r6, r0
  404660:	442c      	add	r4, r5
  404662:	2907      	cmp	r1, #7
  404664:	f8c8 6000 	str.w	r6, [r8]
  404668:	9427      	str	r4, [sp, #156]	; 0x9c
  40466a:	9126      	str	r1, [sp, #152]	; 0x98
  40466c:	f300 823b 	bgt.w	404ae6 <_svfprintf_r+0x11ca>
  404670:	f108 0808 	add.w	r8, r8, #8
  404674:	2d00      	cmp	r5, #0
  404676:	bfac      	ite	ge
  404678:	1b56      	subge	r6, r2, r5
  40467a:	4616      	movlt	r6, r2
  40467c:	2e00      	cmp	r6, #0
  40467e:	f77f ab2d 	ble.w	403cdc <_svfprintf_r+0x3c0>
  404682:	2e10      	cmp	r6, #16
  404684:	9b26      	ldr	r3, [sp, #152]	; 0x98
  404686:	4db0      	ldr	r5, [pc, #704]	; (404948 <_svfprintf_r+0x102c>)
  404688:	ddb5      	ble.n	4045f6 <_svfprintf_r+0xcda>
  40468a:	4622      	mov	r2, r4
  40468c:	2710      	movs	r7, #16
  40468e:	f8dd b030 	ldr.w	fp, [sp, #48]	; 0x30
  404692:	9c0b      	ldr	r4, [sp, #44]	; 0x2c
  404694:	e004      	b.n	4046a0 <_svfprintf_r+0xd84>
  404696:	f108 0808 	add.w	r8, r8, #8
  40469a:	3e10      	subs	r6, #16
  40469c:	2e10      	cmp	r6, #16
  40469e:	dda9      	ble.n	4045f4 <_svfprintf_r+0xcd8>
  4046a0:	3301      	adds	r3, #1
  4046a2:	3210      	adds	r2, #16
  4046a4:	2b07      	cmp	r3, #7
  4046a6:	9227      	str	r2, [sp, #156]	; 0x9c
  4046a8:	9326      	str	r3, [sp, #152]	; 0x98
  4046aa:	e888 00a0 	stmia.w	r8, {r5, r7}
  4046ae:	ddf2      	ble.n	404696 <_svfprintf_r+0xd7a>
  4046b0:	aa25      	add	r2, sp, #148	; 0x94
  4046b2:	4621      	mov	r1, r4
  4046b4:	4658      	mov	r0, fp
  4046b6:	f003 fd53 	bl	408160 <__ssprint_r>
  4046ba:	2800      	cmp	r0, #0
  4046bc:	f47f aa00 	bne.w	403ac0 <_svfprintf_r+0x1a4>
  4046c0:	9a27      	ldr	r2, [sp, #156]	; 0x9c
  4046c2:	9b26      	ldr	r3, [sp, #152]	; 0x98
  4046c4:	46c8      	mov	r8, r9
  4046c6:	e7e8      	b.n	40469a <_svfprintf_r+0xd7e>
  4046c8:	9b26      	ldr	r3, [sp, #152]	; 0x98
  4046ca:	9819      	ldr	r0, [sp, #100]	; 0x64
  4046cc:	991a      	ldr	r1, [sp, #104]	; 0x68
  4046ce:	f8c8 1000 	str.w	r1, [r8]
  4046d2:	3301      	adds	r3, #1
  4046d4:	4404      	add	r4, r0
  4046d6:	2b07      	cmp	r3, #7
  4046d8:	9427      	str	r4, [sp, #156]	; 0x9c
  4046da:	f8c8 0004 	str.w	r0, [r8, #4]
  4046de:	9326      	str	r3, [sp, #152]	; 0x98
  4046e0:	f300 81f5 	bgt.w	404ace <_svfprintf_r+0x11b2>
  4046e4:	f108 0808 	add.w	r8, r8, #8
  4046e8:	e7ac      	b.n	404644 <_svfprintf_r+0xd28>
  4046ea:	9b07      	ldr	r3, [sp, #28]
  4046ec:	07da      	lsls	r2, r3, #31
  4046ee:	f53f adfe 	bmi.w	4042ee <_svfprintf_r+0x9d2>
  4046f2:	3701      	adds	r7, #1
  4046f4:	3401      	adds	r4, #1
  4046f6:	2301      	movs	r3, #1
  4046f8:	2f07      	cmp	r7, #7
  4046fa:	9427      	str	r4, [sp, #156]	; 0x9c
  4046fc:	9726      	str	r7, [sp, #152]	; 0x98
  4046fe:	f8c8 6000 	str.w	r6, [r8]
  404702:	f8c8 3004 	str.w	r3, [r8, #4]
  404706:	f77f ae25 	ble.w	404354 <_svfprintf_r+0xa38>
  40470a:	e74a      	b.n	4045a2 <_svfprintf_r+0xc86>
  40470c:	aa25      	add	r2, sp, #148	; 0x94
  40470e:	990b      	ldr	r1, [sp, #44]	; 0x2c
  404710:	980c      	ldr	r0, [sp, #48]	; 0x30
  404712:	f003 fd25 	bl	408160 <__ssprint_r>
  404716:	2800      	cmp	r0, #0
  404718:	f47f a9d2 	bne.w	403ac0 <_svfprintf_r+0x1a4>
  40471c:	9c27      	ldr	r4, [sp, #156]	; 0x9c
  40471e:	9f26      	ldr	r7, [sp, #152]	; 0x98
  404720:	46c8      	mov	r8, r9
  404722:	e5f2      	b.n	40430a <_svfprintf_r+0x9ee>
  404724:	aa25      	add	r2, sp, #148	; 0x94
  404726:	990b      	ldr	r1, [sp, #44]	; 0x2c
  404728:	980c      	ldr	r0, [sp, #48]	; 0x30
  40472a:	f003 fd19 	bl	408160 <__ssprint_r>
  40472e:	2800      	cmp	r0, #0
  404730:	f47f a9c6 	bne.w	403ac0 <_svfprintf_r+0x1a4>
  404734:	9c27      	ldr	r4, [sp, #156]	; 0x9c
  404736:	9f26      	ldr	r7, [sp, #152]	; 0x98
  404738:	46c8      	mov	r8, r9
  40473a:	e5f5      	b.n	404328 <_svfprintf_r+0xa0c>
  40473c:	464e      	mov	r6, r9
  40473e:	f7ff b9fd 	b.w	403b3c <_svfprintf_r+0x220>
  404742:	aa25      	add	r2, sp, #148	; 0x94
  404744:	990b      	ldr	r1, [sp, #44]	; 0x2c
  404746:	980c      	ldr	r0, [sp, #48]	; 0x30
  404748:	f003 fd0a 	bl	408160 <__ssprint_r>
  40474c:	2800      	cmp	r0, #0
  40474e:	f47f a9b7 	bne.w	403ac0 <_svfprintf_r+0x1a4>
  404752:	9c27      	ldr	r4, [sp, #156]	; 0x9c
  404754:	46c8      	mov	r8, r9
  404756:	f7ff ba72 	b.w	403c3e <_svfprintf_r+0x322>
  40475a:	9c15      	ldr	r4, [sp, #84]	; 0x54
  40475c:	4622      	mov	r2, r4
  40475e:	4620      	mov	r0, r4
  404760:	9c14      	ldr	r4, [sp, #80]	; 0x50
  404762:	4623      	mov	r3, r4
  404764:	4621      	mov	r1, r4
  404766:	f004 fbc9 	bl	408efc <__aeabi_dcmpun>
  40476a:	2800      	cmp	r0, #0
  40476c:	f040 8286 	bne.w	404c7c <_svfprintf_r+0x1360>
  404770:	9b0a      	ldr	r3, [sp, #40]	; 0x28
  404772:	3301      	adds	r3, #1
  404774:	9b11      	ldr	r3, [sp, #68]	; 0x44
  404776:	f023 0320 	bic.w	r3, r3, #32
  40477a:	930e      	str	r3, [sp, #56]	; 0x38
  40477c:	f000 81e2 	beq.w	404b44 <_svfprintf_r+0x1228>
  404780:	2b47      	cmp	r3, #71	; 0x47
  404782:	f000 811e 	beq.w	4049c2 <_svfprintf_r+0x10a6>
  404786:	f44b 7380 	orr.w	r3, fp, #256	; 0x100
  40478a:	9307      	str	r3, [sp, #28]
  40478c:	9b14      	ldr	r3, [sp, #80]	; 0x50
  40478e:	1e1f      	subs	r7, r3, #0
  404790:	9b15      	ldr	r3, [sp, #84]	; 0x54
  404792:	9308      	str	r3, [sp, #32]
  404794:	bfbb      	ittet	lt
  404796:	463b      	movlt	r3, r7
  404798:	f103 4700 	addlt.w	r7, r3, #2147483648	; 0x80000000
  40479c:	2300      	movge	r3, #0
  40479e:	232d      	movlt	r3, #45	; 0x2d
  4047a0:	9310      	str	r3, [sp, #64]	; 0x40
  4047a2:	9b11      	ldr	r3, [sp, #68]	; 0x44
  4047a4:	2b66      	cmp	r3, #102	; 0x66
  4047a6:	f000 81bb 	beq.w	404b20 <_svfprintf_r+0x1204>
  4047aa:	2b46      	cmp	r3, #70	; 0x46
  4047ac:	f000 80df 	beq.w	40496e <_svfprintf_r+0x1052>
  4047b0:	9b0e      	ldr	r3, [sp, #56]	; 0x38
  4047b2:	9a08      	ldr	r2, [sp, #32]
  4047b4:	2b45      	cmp	r3, #69	; 0x45
  4047b6:	bf0c      	ite	eq
  4047b8:	9b0a      	ldreq	r3, [sp, #40]	; 0x28
  4047ba:	9d0a      	ldrne	r5, [sp, #40]	; 0x28
  4047bc:	a823      	add	r0, sp, #140	; 0x8c
  4047be:	a920      	add	r1, sp, #128	; 0x80
  4047c0:	bf08      	it	eq
  4047c2:	1c5d      	addeq	r5, r3, #1
  4047c4:	9004      	str	r0, [sp, #16]
  4047c6:	9103      	str	r1, [sp, #12]
  4047c8:	a81f      	add	r0, sp, #124	; 0x7c
  4047ca:	2102      	movs	r1, #2
  4047cc:	463b      	mov	r3, r7
  4047ce:	9002      	str	r0, [sp, #8]
  4047d0:	9501      	str	r5, [sp, #4]
  4047d2:	9100      	str	r1, [sp, #0]
  4047d4:	980c      	ldr	r0, [sp, #48]	; 0x30
  4047d6:	f001 faa3 	bl	405d20 <_dtoa_r>
  4047da:	9b11      	ldr	r3, [sp, #68]	; 0x44
  4047dc:	2b67      	cmp	r3, #103	; 0x67
  4047de:	4606      	mov	r6, r0
  4047e0:	f040 81e0 	bne.w	404ba4 <_svfprintf_r+0x1288>
  4047e4:	f01b 0f01 	tst.w	fp, #1
  4047e8:	f000 8246 	beq.w	404c78 <_svfprintf_r+0x135c>
  4047ec:	1974      	adds	r4, r6, r5
  4047ee:	9a16      	ldr	r2, [sp, #88]	; 0x58
  4047f0:	9808      	ldr	r0, [sp, #32]
  4047f2:	9b17      	ldr	r3, [sp, #92]	; 0x5c
  4047f4:	4639      	mov	r1, r7
  4047f6:	f004 fb4f 	bl	408e98 <__aeabi_dcmpeq>
  4047fa:	2800      	cmp	r0, #0
  4047fc:	f040 8165 	bne.w	404aca <_svfprintf_r+0x11ae>
  404800:	9b23      	ldr	r3, [sp, #140]	; 0x8c
  404802:	42a3      	cmp	r3, r4
  404804:	d206      	bcs.n	404814 <_svfprintf_r+0xef8>
  404806:	2130      	movs	r1, #48	; 0x30
  404808:	1c5a      	adds	r2, r3, #1
  40480a:	9223      	str	r2, [sp, #140]	; 0x8c
  40480c:	7019      	strb	r1, [r3, #0]
  40480e:	9b23      	ldr	r3, [sp, #140]	; 0x8c
  404810:	429c      	cmp	r4, r3
  404812:	d8f9      	bhi.n	404808 <_svfprintf_r+0xeec>
  404814:	1b9b      	subs	r3, r3, r6
  404816:	9313      	str	r3, [sp, #76]	; 0x4c
  404818:	9b0e      	ldr	r3, [sp, #56]	; 0x38
  40481a:	2b47      	cmp	r3, #71	; 0x47
  40481c:	f000 80e9 	beq.w	4049f2 <_svfprintf_r+0x10d6>
  404820:	9b11      	ldr	r3, [sp, #68]	; 0x44
  404822:	2b65      	cmp	r3, #101	; 0x65
  404824:	f340 81cd 	ble.w	404bc2 <_svfprintf_r+0x12a6>
  404828:	9b11      	ldr	r3, [sp, #68]	; 0x44
  40482a:	2b66      	cmp	r3, #102	; 0x66
  40482c:	9b1f      	ldr	r3, [sp, #124]	; 0x7c
  40482e:	9312      	str	r3, [sp, #72]	; 0x48
  404830:	f000 819e 	beq.w	404b70 <_svfprintf_r+0x1254>
  404834:	9b13      	ldr	r3, [sp, #76]	; 0x4c
  404836:	9a12      	ldr	r2, [sp, #72]	; 0x48
  404838:	4619      	mov	r1, r3
  40483a:	4291      	cmp	r1, r2
  40483c:	f300 818a 	bgt.w	404b54 <_svfprintf_r+0x1238>
  404840:	f01b 0f01 	tst.w	fp, #1
  404844:	f040 8213 	bne.w	404c6e <_svfprintf_r+0x1352>
  404848:	ea22 73e2 	bic.w	r3, r2, r2, asr #31
  40484c:	9308      	str	r3, [sp, #32]
  40484e:	2367      	movs	r3, #103	; 0x67
  404850:	920e      	str	r2, [sp, #56]	; 0x38
  404852:	9311      	str	r3, [sp, #68]	; 0x44
  404854:	9b10      	ldr	r3, [sp, #64]	; 0x40
  404856:	2b00      	cmp	r3, #0
  404858:	f040 80c4 	bne.w	4049e4 <_svfprintf_r+0x10c8>
  40485c:	930a      	str	r3, [sp, #40]	; 0x28
  40485e:	f89d 7077 	ldrb.w	r7, [sp, #119]	; 0x77
  404862:	f7ff b973 	b.w	403b4c <_svfprintf_r+0x230>
  404866:	4635      	mov	r5, r6
  404868:	460c      	mov	r4, r1
  40486a:	4646      	mov	r6, r8
  40486c:	4690      	mov	r8, r2
  40486e:	3301      	adds	r3, #1
  404870:	443c      	add	r4, r7
  404872:	2b07      	cmp	r3, #7
  404874:	9427      	str	r4, [sp, #156]	; 0x9c
  404876:	9326      	str	r3, [sp, #152]	; 0x98
  404878:	e888 00a0 	stmia.w	r8, {r5, r7}
  40487c:	f73f aed1 	bgt.w	404622 <_svfprintf_r+0xd06>
  404880:	f108 0808 	add.w	r8, r8, #8
  404884:	e6d7      	b.n	404636 <_svfprintf_r+0xd1a>
  404886:	9a0f      	ldr	r2, [sp, #60]	; 0x3c
  404888:	6813      	ldr	r3, [r2, #0]
  40488a:	3204      	adds	r2, #4
  40488c:	920f      	str	r2, [sp, #60]	; 0x3c
  40488e:	9a09      	ldr	r2, [sp, #36]	; 0x24
  404890:	601a      	str	r2, [r3, #0]
  404892:	f7ff b86a 	b.w	40396a <_svfprintf_r+0x4e>
  404896:	aa25      	add	r2, sp, #148	; 0x94
  404898:	990b      	ldr	r1, [sp, #44]	; 0x2c
  40489a:	980c      	ldr	r0, [sp, #48]	; 0x30
  40489c:	f003 fc60 	bl	408160 <__ssprint_r>
  4048a0:	2800      	cmp	r0, #0
  4048a2:	f47f a90d 	bne.w	403ac0 <_svfprintf_r+0x1a4>
  4048a6:	46c8      	mov	r8, r9
  4048a8:	e48d      	b.n	4041c6 <_svfprintf_r+0x8aa>
  4048aa:	9b26      	ldr	r3, [sp, #152]	; 0x98
  4048ac:	4a27      	ldr	r2, [pc, #156]	; (40494c <_svfprintf_r+0x1030>)
  4048ae:	f8c8 2000 	str.w	r2, [r8]
  4048b2:	3301      	adds	r3, #1
  4048b4:	3401      	adds	r4, #1
  4048b6:	2201      	movs	r2, #1
  4048b8:	2b07      	cmp	r3, #7
  4048ba:	9427      	str	r4, [sp, #156]	; 0x9c
  4048bc:	9326      	str	r3, [sp, #152]	; 0x98
  4048be:	f8c8 2004 	str.w	r2, [r8, #4]
  4048c2:	dc72      	bgt.n	4049aa <_svfprintf_r+0x108e>
  4048c4:	f108 0808 	add.w	r8, r8, #8
  4048c8:	b929      	cbnz	r1, 4048d6 <_svfprintf_r+0xfba>
  4048ca:	9b13      	ldr	r3, [sp, #76]	; 0x4c
  4048cc:	b91b      	cbnz	r3, 4048d6 <_svfprintf_r+0xfba>
  4048ce:	9b07      	ldr	r3, [sp, #28]
  4048d0:	07d8      	lsls	r0, r3, #31
  4048d2:	f57f aa03 	bpl.w	403cdc <_svfprintf_r+0x3c0>
  4048d6:	9b26      	ldr	r3, [sp, #152]	; 0x98
  4048d8:	9819      	ldr	r0, [sp, #100]	; 0x64
  4048da:	9a1a      	ldr	r2, [sp, #104]	; 0x68
  4048dc:	f8c8 2000 	str.w	r2, [r8]
  4048e0:	3301      	adds	r3, #1
  4048e2:	4602      	mov	r2, r0
  4048e4:	4422      	add	r2, r4
  4048e6:	2b07      	cmp	r3, #7
  4048e8:	9227      	str	r2, [sp, #156]	; 0x9c
  4048ea:	f8c8 0004 	str.w	r0, [r8, #4]
  4048ee:	9326      	str	r3, [sp, #152]	; 0x98
  4048f0:	f300 818d 	bgt.w	404c0e <_svfprintf_r+0x12f2>
  4048f4:	f108 0808 	add.w	r8, r8, #8
  4048f8:	2900      	cmp	r1, #0
  4048fa:	f2c0 8165 	blt.w	404bc8 <_svfprintf_r+0x12ac>
  4048fe:	9913      	ldr	r1, [sp, #76]	; 0x4c
  404900:	f8c8 6000 	str.w	r6, [r8]
  404904:	3301      	adds	r3, #1
  404906:	188c      	adds	r4, r1, r2
  404908:	2b07      	cmp	r3, #7
  40490a:	9427      	str	r4, [sp, #156]	; 0x9c
  40490c:	9326      	str	r3, [sp, #152]	; 0x98
  40490e:	f8c8 1004 	str.w	r1, [r8, #4]
  404912:	f77f a9e1 	ble.w	403cd8 <_svfprintf_r+0x3bc>
  404916:	e52c      	b.n	404372 <_svfprintf_r+0xa56>
  404918:	9a0f      	ldr	r2, [sp, #60]	; 0x3c
  40491a:	9909      	ldr	r1, [sp, #36]	; 0x24
  40491c:	6813      	ldr	r3, [r2, #0]
  40491e:	17cd      	asrs	r5, r1, #31
  404920:	4608      	mov	r0, r1
  404922:	3204      	adds	r2, #4
  404924:	4629      	mov	r1, r5
  404926:	920f      	str	r2, [sp, #60]	; 0x3c
  404928:	e9c3 0100 	strd	r0, r1, [r3]
  40492c:	f7ff b81d 	b.w	40396a <_svfprintf_r+0x4e>
  404930:	aa25      	add	r2, sp, #148	; 0x94
  404932:	990b      	ldr	r1, [sp, #44]	; 0x2c
  404934:	980c      	ldr	r0, [sp, #48]	; 0x30
  404936:	f003 fc13 	bl	408160 <__ssprint_r>
  40493a:	2800      	cmp	r0, #0
  40493c:	f47f a8c0 	bne.w	403ac0 <_svfprintf_r+0x1a4>
  404940:	9c27      	ldr	r4, [sp, #156]	; 0x9c
  404942:	46c8      	mov	r8, r9
  404944:	e458      	b.n	4041f8 <_svfprintf_r+0x8dc>
  404946:	bf00      	nop
  404948:	0040940c 	.word	0x0040940c
  40494c:	004093f8 	.word	0x004093f8
  404950:	2140      	movs	r1, #64	; 0x40
  404952:	980c      	ldr	r0, [sp, #48]	; 0x30
  404954:	f7fe fa5e 	bl	402e14 <_malloc_r>
  404958:	9a0b      	ldr	r2, [sp, #44]	; 0x2c
  40495a:	6010      	str	r0, [r2, #0]
  40495c:	6110      	str	r0, [r2, #16]
  40495e:	2800      	cmp	r0, #0
  404960:	f000 81f2 	beq.w	404d48 <_svfprintf_r+0x142c>
  404964:	9a0b      	ldr	r2, [sp, #44]	; 0x2c
  404966:	2340      	movs	r3, #64	; 0x40
  404968:	6153      	str	r3, [r2, #20]
  40496a:	f7fe bfee 	b.w	40394a <_svfprintf_r+0x2e>
  40496e:	a823      	add	r0, sp, #140	; 0x8c
  404970:	a920      	add	r1, sp, #128	; 0x80
  404972:	9c0a      	ldr	r4, [sp, #40]	; 0x28
  404974:	9004      	str	r0, [sp, #16]
  404976:	9103      	str	r1, [sp, #12]
  404978:	a81f      	add	r0, sp, #124	; 0x7c
  40497a:	2103      	movs	r1, #3
  40497c:	9002      	str	r0, [sp, #8]
  40497e:	9a08      	ldr	r2, [sp, #32]
  404980:	9401      	str	r4, [sp, #4]
  404982:	463b      	mov	r3, r7
  404984:	9100      	str	r1, [sp, #0]
  404986:	980c      	ldr	r0, [sp, #48]	; 0x30
  404988:	f001 f9ca 	bl	405d20 <_dtoa_r>
  40498c:	4625      	mov	r5, r4
  40498e:	4606      	mov	r6, r0
  404990:	9b11      	ldr	r3, [sp, #68]	; 0x44
  404992:	2b46      	cmp	r3, #70	; 0x46
  404994:	eb06 0405 	add.w	r4, r6, r5
  404998:	f47f af29 	bne.w	4047ee <_svfprintf_r+0xed2>
  40499c:	7833      	ldrb	r3, [r6, #0]
  40499e:	2b30      	cmp	r3, #48	; 0x30
  4049a0:	f000 8178 	beq.w	404c94 <_svfprintf_r+0x1378>
  4049a4:	9d1f      	ldr	r5, [sp, #124]	; 0x7c
  4049a6:	442c      	add	r4, r5
  4049a8:	e721      	b.n	4047ee <_svfprintf_r+0xed2>
  4049aa:	aa25      	add	r2, sp, #148	; 0x94
  4049ac:	990b      	ldr	r1, [sp, #44]	; 0x2c
  4049ae:	980c      	ldr	r0, [sp, #48]	; 0x30
  4049b0:	f003 fbd6 	bl	408160 <__ssprint_r>
  4049b4:	2800      	cmp	r0, #0
  4049b6:	f47f a883 	bne.w	403ac0 <_svfprintf_r+0x1a4>
  4049ba:	991f      	ldr	r1, [sp, #124]	; 0x7c
  4049bc:	9c27      	ldr	r4, [sp, #156]	; 0x9c
  4049be:	46c8      	mov	r8, r9
  4049c0:	e782      	b.n	4048c8 <_svfprintf_r+0xfac>
  4049c2:	9b0a      	ldr	r3, [sp, #40]	; 0x28
  4049c4:	2b00      	cmp	r3, #0
  4049c6:	bf08      	it	eq
  4049c8:	2301      	moveq	r3, #1
  4049ca:	930a      	str	r3, [sp, #40]	; 0x28
  4049cc:	e6db      	b.n	404786 <_svfprintf_r+0xe6a>
  4049ce:	4630      	mov	r0, r6
  4049d0:	940a      	str	r4, [sp, #40]	; 0x28
  4049d2:	f7fe ff35 	bl	403840 <strlen>
  4049d6:	950f      	str	r5, [sp, #60]	; 0x3c
  4049d8:	900e      	str	r0, [sp, #56]	; 0x38
  4049da:	f8cd b01c 	str.w	fp, [sp, #28]
  4049de:	4603      	mov	r3, r0
  4049e0:	f7ff b9f9 	b.w	403dd6 <_svfprintf_r+0x4ba>
  4049e4:	272d      	movs	r7, #45	; 0x2d
  4049e6:	2300      	movs	r3, #0
  4049e8:	f88d 7077 	strb.w	r7, [sp, #119]	; 0x77
  4049ec:	930a      	str	r3, [sp, #40]	; 0x28
  4049ee:	f7ff b8ae 	b.w	403b4e <_svfprintf_r+0x232>
  4049f2:	9b1f      	ldr	r3, [sp, #124]	; 0x7c
  4049f4:	9312      	str	r3, [sp, #72]	; 0x48
  4049f6:	461a      	mov	r2, r3
  4049f8:	3303      	adds	r3, #3
  4049fa:	db04      	blt.n	404a06 <_svfprintf_r+0x10ea>
  4049fc:	9b0a      	ldr	r3, [sp, #40]	; 0x28
  4049fe:	4619      	mov	r1, r3
  404a00:	4291      	cmp	r1, r2
  404a02:	f6bf af17 	bge.w	404834 <_svfprintf_r+0xf18>
  404a06:	9b11      	ldr	r3, [sp, #68]	; 0x44
  404a08:	3b02      	subs	r3, #2
  404a0a:	9311      	str	r3, [sp, #68]	; 0x44
  404a0c:	f89d 3044 	ldrb.w	r3, [sp, #68]	; 0x44
  404a10:	f88d 3084 	strb.w	r3, [sp, #132]	; 0x84
  404a14:	9b12      	ldr	r3, [sp, #72]	; 0x48
  404a16:	3b01      	subs	r3, #1
  404a18:	2b00      	cmp	r3, #0
  404a1a:	931f      	str	r3, [sp, #124]	; 0x7c
  404a1c:	bfbd      	ittte	lt
  404a1e:	9b12      	ldrlt	r3, [sp, #72]	; 0x48
  404a20:	f1c3 0301 	rsblt	r3, r3, #1
  404a24:	222d      	movlt	r2, #45	; 0x2d
  404a26:	222b      	movge	r2, #43	; 0x2b
  404a28:	2b09      	cmp	r3, #9
  404a2a:	f88d 2085 	strb.w	r2, [sp, #133]	; 0x85
  404a2e:	f340 8116 	ble.w	404c5e <_svfprintf_r+0x1342>
  404a32:	f10d 0493 	add.w	r4, sp, #147	; 0x93
  404a36:	4620      	mov	r0, r4
  404a38:	4dab      	ldr	r5, [pc, #684]	; (404ce8 <_svfprintf_r+0x13cc>)
  404a3a:	e000      	b.n	404a3e <_svfprintf_r+0x1122>
  404a3c:	4610      	mov	r0, r2
  404a3e:	fb85 1203 	smull	r1, r2, r5, r3
  404a42:	17d9      	asrs	r1, r3, #31
  404a44:	ebc1 01a2 	rsb	r1, r1, r2, asr #2
  404a48:	eb01 0281 	add.w	r2, r1, r1, lsl #2
  404a4c:	eba3 0242 	sub.w	r2, r3, r2, lsl #1
  404a50:	3230      	adds	r2, #48	; 0x30
  404a52:	2909      	cmp	r1, #9
  404a54:	f800 2c01 	strb.w	r2, [r0, #-1]
  404a58:	460b      	mov	r3, r1
  404a5a:	f100 32ff 	add.w	r2, r0, #4294967295
  404a5e:	dced      	bgt.n	404a3c <_svfprintf_r+0x1120>
  404a60:	3330      	adds	r3, #48	; 0x30
  404a62:	3802      	subs	r0, #2
  404a64:	b2d9      	uxtb	r1, r3
  404a66:	4284      	cmp	r4, r0
  404a68:	f802 1c01 	strb.w	r1, [r2, #-1]
  404a6c:	f240 8165 	bls.w	404d3a <_svfprintf_r+0x141e>
  404a70:	f10d 0086 	add.w	r0, sp, #134	; 0x86
  404a74:	4613      	mov	r3, r2
  404a76:	e001      	b.n	404a7c <_svfprintf_r+0x1160>
  404a78:	f813 1b01 	ldrb.w	r1, [r3], #1
  404a7c:	f800 1b01 	strb.w	r1, [r0], #1
  404a80:	42a3      	cmp	r3, r4
  404a82:	d1f9      	bne.n	404a78 <_svfprintf_r+0x115c>
  404a84:	3301      	adds	r3, #1
  404a86:	1a9b      	subs	r3, r3, r2
  404a88:	f10d 0286 	add.w	r2, sp, #134	; 0x86
  404a8c:	4413      	add	r3, r2
  404a8e:	aa21      	add	r2, sp, #132	; 0x84
  404a90:	1a9b      	subs	r3, r3, r2
  404a92:	9a13      	ldr	r2, [sp, #76]	; 0x4c
  404a94:	931b      	str	r3, [sp, #108]	; 0x6c
  404a96:	2a01      	cmp	r2, #1
  404a98:	4413      	add	r3, r2
  404a9a:	930e      	str	r3, [sp, #56]	; 0x38
  404a9c:	f340 8119 	ble.w	404cd2 <_svfprintf_r+0x13b6>
  404aa0:	9b0e      	ldr	r3, [sp, #56]	; 0x38
  404aa2:	9a19      	ldr	r2, [sp, #100]	; 0x64
  404aa4:	4413      	add	r3, r2
  404aa6:	930e      	str	r3, [sp, #56]	; 0x38
  404aa8:	ea23 73e3 	bic.w	r3, r3, r3, asr #31
  404aac:	9308      	str	r3, [sp, #32]
  404aae:	2300      	movs	r3, #0
  404ab0:	9312      	str	r3, [sp, #72]	; 0x48
  404ab2:	e6cf      	b.n	404854 <_svfprintf_r+0xf38>
  404ab4:	aa25      	add	r2, sp, #148	; 0x94
  404ab6:	990b      	ldr	r1, [sp, #44]	; 0x2c
  404ab8:	980c      	ldr	r0, [sp, #48]	; 0x30
  404aba:	f003 fb51 	bl	408160 <__ssprint_r>
  404abe:	2800      	cmp	r0, #0
  404ac0:	f47e affe 	bne.w	403ac0 <_svfprintf_r+0x1a4>
  404ac4:	9c27      	ldr	r4, [sp, #156]	; 0x9c
  404ac6:	46c8      	mov	r8, r9
  404ac8:	e4d7      	b.n	40447a <_svfprintf_r+0xb5e>
  404aca:	4623      	mov	r3, r4
  404acc:	e6a2      	b.n	404814 <_svfprintf_r+0xef8>
  404ace:	aa25      	add	r2, sp, #148	; 0x94
  404ad0:	990b      	ldr	r1, [sp, #44]	; 0x2c
  404ad2:	980c      	ldr	r0, [sp, #48]	; 0x30
  404ad4:	f003 fb44 	bl	408160 <__ssprint_r>
  404ad8:	2800      	cmp	r0, #0
  404ada:	f47e aff1 	bne.w	403ac0 <_svfprintf_r+0x1a4>
  404ade:	9a1f      	ldr	r2, [sp, #124]	; 0x7c
  404ae0:	9c27      	ldr	r4, [sp, #156]	; 0x9c
  404ae2:	46c8      	mov	r8, r9
  404ae4:	e5ae      	b.n	404644 <_svfprintf_r+0xd28>
  404ae6:	aa25      	add	r2, sp, #148	; 0x94
  404ae8:	990b      	ldr	r1, [sp, #44]	; 0x2c
  404aea:	980c      	ldr	r0, [sp, #48]	; 0x30
  404aec:	f003 fb38 	bl	408160 <__ssprint_r>
  404af0:	2800      	cmp	r0, #0
  404af2:	f47e afe5 	bne.w	403ac0 <_svfprintf_r+0x1a4>
  404af6:	9a1f      	ldr	r2, [sp, #124]	; 0x7c
  404af8:	9b13      	ldr	r3, [sp, #76]	; 0x4c
  404afa:	9c27      	ldr	r4, [sp, #156]	; 0x9c
  404afc:	1a9a      	subs	r2, r3, r2
  404afe:	46c8      	mov	r8, r9
  404b00:	e5b8      	b.n	404674 <_svfprintf_r+0xd58>
  404b02:	9b0a      	ldr	r3, [sp, #40]	; 0x28
  404b04:	9612      	str	r6, [sp, #72]	; 0x48
  404b06:	2b06      	cmp	r3, #6
  404b08:	bf28      	it	cs
  404b0a:	2306      	movcs	r3, #6
  404b0c:	960a      	str	r6, [sp, #40]	; 0x28
  404b0e:	4637      	mov	r7, r6
  404b10:	9308      	str	r3, [sp, #32]
  404b12:	950f      	str	r5, [sp, #60]	; 0x3c
  404b14:	f8cd b01c 	str.w	fp, [sp, #28]
  404b18:	930e      	str	r3, [sp, #56]	; 0x38
  404b1a:	4e74      	ldr	r6, [pc, #464]	; (404cec <_svfprintf_r+0x13d0>)
  404b1c:	f7ff b816 	b.w	403b4c <_svfprintf_r+0x230>
  404b20:	a823      	add	r0, sp, #140	; 0x8c
  404b22:	a920      	add	r1, sp, #128	; 0x80
  404b24:	9d0a      	ldr	r5, [sp, #40]	; 0x28
  404b26:	9004      	str	r0, [sp, #16]
  404b28:	9103      	str	r1, [sp, #12]
  404b2a:	a81f      	add	r0, sp, #124	; 0x7c
  404b2c:	2103      	movs	r1, #3
  404b2e:	9002      	str	r0, [sp, #8]
  404b30:	9a08      	ldr	r2, [sp, #32]
  404b32:	9501      	str	r5, [sp, #4]
  404b34:	463b      	mov	r3, r7
  404b36:	9100      	str	r1, [sp, #0]
  404b38:	980c      	ldr	r0, [sp, #48]	; 0x30
  404b3a:	f001 f8f1 	bl	405d20 <_dtoa_r>
  404b3e:	4606      	mov	r6, r0
  404b40:	1944      	adds	r4, r0, r5
  404b42:	e72b      	b.n	40499c <_svfprintf_r+0x1080>
  404b44:	2306      	movs	r3, #6
  404b46:	930a      	str	r3, [sp, #40]	; 0x28
  404b48:	e61d      	b.n	404786 <_svfprintf_r+0xe6a>
  404b4a:	272d      	movs	r7, #45	; 0x2d
  404b4c:	f88d 7077 	strb.w	r7, [sp, #119]	; 0x77
  404b50:	f7ff bacd 	b.w	4040ee <_svfprintf_r+0x7d2>
  404b54:	9a19      	ldr	r2, [sp, #100]	; 0x64
  404b56:	9b13      	ldr	r3, [sp, #76]	; 0x4c
  404b58:	4413      	add	r3, r2
  404b5a:	9a12      	ldr	r2, [sp, #72]	; 0x48
  404b5c:	930e      	str	r3, [sp, #56]	; 0x38
  404b5e:	2a00      	cmp	r2, #0
  404b60:	f340 80b0 	ble.w	404cc4 <_svfprintf_r+0x13a8>
  404b64:	ea23 73e3 	bic.w	r3, r3, r3, asr #31
  404b68:	9308      	str	r3, [sp, #32]
  404b6a:	2367      	movs	r3, #103	; 0x67
  404b6c:	9311      	str	r3, [sp, #68]	; 0x44
  404b6e:	e671      	b.n	404854 <_svfprintf_r+0xf38>
  404b70:	2b00      	cmp	r3, #0
  404b72:	f340 80c3 	ble.w	404cfc <_svfprintf_r+0x13e0>
  404b76:	9a0a      	ldr	r2, [sp, #40]	; 0x28
  404b78:	2a00      	cmp	r2, #0
  404b7a:	f040 8099 	bne.w	404cb0 <_svfprintf_r+0x1394>
  404b7e:	f01b 0f01 	tst.w	fp, #1
  404b82:	f040 8095 	bne.w	404cb0 <_svfprintf_r+0x1394>
  404b86:	9308      	str	r3, [sp, #32]
  404b88:	930e      	str	r3, [sp, #56]	; 0x38
  404b8a:	e663      	b.n	404854 <_svfprintf_r+0xf38>
  404b8c:	9b0a      	ldr	r3, [sp, #40]	; 0x28
  404b8e:	9308      	str	r3, [sp, #32]
  404b90:	930e      	str	r3, [sp, #56]	; 0x38
  404b92:	900a      	str	r0, [sp, #40]	; 0x28
  404b94:	950f      	str	r5, [sp, #60]	; 0x3c
  404b96:	f8cd b01c 	str.w	fp, [sp, #28]
  404b9a:	9012      	str	r0, [sp, #72]	; 0x48
  404b9c:	f89d 7077 	ldrb.w	r7, [sp, #119]	; 0x77
  404ba0:	f7fe bfd4 	b.w	403b4c <_svfprintf_r+0x230>
  404ba4:	9b11      	ldr	r3, [sp, #68]	; 0x44
  404ba6:	2b47      	cmp	r3, #71	; 0x47
  404ba8:	f47f ae20 	bne.w	4047ec <_svfprintf_r+0xed0>
  404bac:	f01b 0f01 	tst.w	fp, #1
  404bb0:	f47f aeee 	bne.w	404990 <_svfprintf_r+0x1074>
  404bb4:	9b23      	ldr	r3, [sp, #140]	; 0x8c
  404bb6:	1b9b      	subs	r3, r3, r6
  404bb8:	9313      	str	r3, [sp, #76]	; 0x4c
  404bba:	9b0e      	ldr	r3, [sp, #56]	; 0x38
  404bbc:	2b47      	cmp	r3, #71	; 0x47
  404bbe:	f43f af18 	beq.w	4049f2 <_svfprintf_r+0x10d6>
  404bc2:	9b1f      	ldr	r3, [sp, #124]	; 0x7c
  404bc4:	9312      	str	r3, [sp, #72]	; 0x48
  404bc6:	e721      	b.n	404a0c <_svfprintf_r+0x10f0>
  404bc8:	424f      	negs	r7, r1
  404bca:	3110      	adds	r1, #16
  404bcc:	4d48      	ldr	r5, [pc, #288]	; (404cf0 <_svfprintf_r+0x13d4>)
  404bce:	da2f      	bge.n	404c30 <_svfprintf_r+0x1314>
  404bd0:	2410      	movs	r4, #16
  404bd2:	f8dd b030 	ldr.w	fp, [sp, #48]	; 0x30
  404bd6:	e004      	b.n	404be2 <_svfprintf_r+0x12c6>
  404bd8:	f108 0808 	add.w	r8, r8, #8
  404bdc:	3f10      	subs	r7, #16
  404bde:	2f10      	cmp	r7, #16
  404be0:	dd26      	ble.n	404c30 <_svfprintf_r+0x1314>
  404be2:	3301      	adds	r3, #1
  404be4:	3210      	adds	r2, #16
  404be6:	2b07      	cmp	r3, #7
  404be8:	9227      	str	r2, [sp, #156]	; 0x9c
  404bea:	9326      	str	r3, [sp, #152]	; 0x98
  404bec:	f8c8 5000 	str.w	r5, [r8]
  404bf0:	f8c8 4004 	str.w	r4, [r8, #4]
  404bf4:	ddf0      	ble.n	404bd8 <_svfprintf_r+0x12bc>
  404bf6:	aa25      	add	r2, sp, #148	; 0x94
  404bf8:	990b      	ldr	r1, [sp, #44]	; 0x2c
  404bfa:	4658      	mov	r0, fp
  404bfc:	f003 fab0 	bl	408160 <__ssprint_r>
  404c00:	2800      	cmp	r0, #0
  404c02:	f47e af5d 	bne.w	403ac0 <_svfprintf_r+0x1a4>
  404c06:	9a27      	ldr	r2, [sp, #156]	; 0x9c
  404c08:	9b26      	ldr	r3, [sp, #152]	; 0x98
  404c0a:	46c8      	mov	r8, r9
  404c0c:	e7e6      	b.n	404bdc <_svfprintf_r+0x12c0>
  404c0e:	aa25      	add	r2, sp, #148	; 0x94
  404c10:	990b      	ldr	r1, [sp, #44]	; 0x2c
  404c12:	980c      	ldr	r0, [sp, #48]	; 0x30
  404c14:	f003 faa4 	bl	408160 <__ssprint_r>
  404c18:	2800      	cmp	r0, #0
  404c1a:	f47e af51 	bne.w	403ac0 <_svfprintf_r+0x1a4>
  404c1e:	991f      	ldr	r1, [sp, #124]	; 0x7c
  404c20:	9a27      	ldr	r2, [sp, #156]	; 0x9c
  404c22:	9b26      	ldr	r3, [sp, #152]	; 0x98
  404c24:	46c8      	mov	r8, r9
  404c26:	e667      	b.n	4048f8 <_svfprintf_r+0xfdc>
  404c28:	2000      	movs	r0, #0
  404c2a:	900a      	str	r0, [sp, #40]	; 0x28
  404c2c:	f7fe bed0 	b.w	4039d0 <_svfprintf_r+0xb4>
  404c30:	3301      	adds	r3, #1
  404c32:	443a      	add	r2, r7
  404c34:	2b07      	cmp	r3, #7
  404c36:	e888 00a0 	stmia.w	r8, {r5, r7}
  404c3a:	9227      	str	r2, [sp, #156]	; 0x9c
  404c3c:	9326      	str	r3, [sp, #152]	; 0x98
  404c3e:	f108 0808 	add.w	r8, r8, #8
  404c42:	f77f ae5c 	ble.w	4048fe <_svfprintf_r+0xfe2>
  404c46:	aa25      	add	r2, sp, #148	; 0x94
  404c48:	990b      	ldr	r1, [sp, #44]	; 0x2c
  404c4a:	980c      	ldr	r0, [sp, #48]	; 0x30
  404c4c:	f003 fa88 	bl	408160 <__ssprint_r>
  404c50:	2800      	cmp	r0, #0
  404c52:	f47e af35 	bne.w	403ac0 <_svfprintf_r+0x1a4>
  404c56:	9a27      	ldr	r2, [sp, #156]	; 0x9c
  404c58:	9b26      	ldr	r3, [sp, #152]	; 0x98
  404c5a:	46c8      	mov	r8, r9
  404c5c:	e64f      	b.n	4048fe <_svfprintf_r+0xfe2>
  404c5e:	3330      	adds	r3, #48	; 0x30
  404c60:	2230      	movs	r2, #48	; 0x30
  404c62:	f88d 3087 	strb.w	r3, [sp, #135]	; 0x87
  404c66:	f88d 2086 	strb.w	r2, [sp, #134]	; 0x86
  404c6a:	ab22      	add	r3, sp, #136	; 0x88
  404c6c:	e70f      	b.n	404a8e <_svfprintf_r+0x1172>
  404c6e:	9b12      	ldr	r3, [sp, #72]	; 0x48
  404c70:	9a19      	ldr	r2, [sp, #100]	; 0x64
  404c72:	4413      	add	r3, r2
  404c74:	930e      	str	r3, [sp, #56]	; 0x38
  404c76:	e775      	b.n	404b64 <_svfprintf_r+0x1248>
  404c78:	9b23      	ldr	r3, [sp, #140]	; 0x8c
  404c7a:	e5cb      	b.n	404814 <_svfprintf_r+0xef8>
  404c7c:	9b14      	ldr	r3, [sp, #80]	; 0x50
  404c7e:	4e1d      	ldr	r6, [pc, #116]	; (404cf4 <_svfprintf_r+0x13d8>)
  404c80:	2b00      	cmp	r3, #0
  404c82:	bfb6      	itet	lt
  404c84:	272d      	movlt	r7, #45	; 0x2d
  404c86:	f89d 7077 	ldrbge.w	r7, [sp, #119]	; 0x77
  404c8a:	f88d 7077 	strblt.w	r7, [sp, #119]	; 0x77
  404c8e:	4b1a      	ldr	r3, [pc, #104]	; (404cf8 <_svfprintf_r+0x13dc>)
  404c90:	f7ff ba2f 	b.w	4040f2 <_svfprintf_r+0x7d6>
  404c94:	9a16      	ldr	r2, [sp, #88]	; 0x58
  404c96:	9808      	ldr	r0, [sp, #32]
  404c98:	9b17      	ldr	r3, [sp, #92]	; 0x5c
  404c9a:	4639      	mov	r1, r7
  404c9c:	f004 f8fc 	bl	408e98 <__aeabi_dcmpeq>
  404ca0:	2800      	cmp	r0, #0
  404ca2:	f47f ae7f 	bne.w	4049a4 <_svfprintf_r+0x1088>
  404ca6:	f1c5 0501 	rsb	r5, r5, #1
  404caa:	951f      	str	r5, [sp, #124]	; 0x7c
  404cac:	442c      	add	r4, r5
  404cae:	e59e      	b.n	4047ee <_svfprintf_r+0xed2>
  404cb0:	9b12      	ldr	r3, [sp, #72]	; 0x48
  404cb2:	9a19      	ldr	r2, [sp, #100]	; 0x64
  404cb4:	4413      	add	r3, r2
  404cb6:	9a0a      	ldr	r2, [sp, #40]	; 0x28
  404cb8:	441a      	add	r2, r3
  404cba:	ea22 73e2 	bic.w	r3, r2, r2, asr #31
  404cbe:	920e      	str	r2, [sp, #56]	; 0x38
  404cc0:	9308      	str	r3, [sp, #32]
  404cc2:	e5c7      	b.n	404854 <_svfprintf_r+0xf38>
  404cc4:	9b12      	ldr	r3, [sp, #72]	; 0x48
  404cc6:	9a0e      	ldr	r2, [sp, #56]	; 0x38
  404cc8:	f1c3 0301 	rsb	r3, r3, #1
  404ccc:	441a      	add	r2, r3
  404cce:	4613      	mov	r3, r2
  404cd0:	e7d0      	b.n	404c74 <_svfprintf_r+0x1358>
  404cd2:	f01b 0301 	ands.w	r3, fp, #1
  404cd6:	9312      	str	r3, [sp, #72]	; 0x48
  404cd8:	f47f aee2 	bne.w	404aa0 <_svfprintf_r+0x1184>
  404cdc:	9b0e      	ldr	r3, [sp, #56]	; 0x38
  404cde:	ea23 73e3 	bic.w	r3, r3, r3, asr #31
  404ce2:	9308      	str	r3, [sp, #32]
  404ce4:	e5b6      	b.n	404854 <_svfprintf_r+0xf38>
  404ce6:	bf00      	nop
  404ce8:	66666667 	.word	0x66666667
  404cec:	004093f0 	.word	0x004093f0
  404cf0:	0040940c 	.word	0x0040940c
  404cf4:	004093c4 	.word	0x004093c4
  404cf8:	004093c0 	.word	0x004093c0
  404cfc:	9b0a      	ldr	r3, [sp, #40]	; 0x28
  404cfe:	b913      	cbnz	r3, 404d06 <_svfprintf_r+0x13ea>
  404d00:	f01b 0f01 	tst.w	fp, #1
  404d04:	d002      	beq.n	404d0c <_svfprintf_r+0x13f0>
  404d06:	9b19      	ldr	r3, [sp, #100]	; 0x64
  404d08:	3301      	adds	r3, #1
  404d0a:	e7d4      	b.n	404cb6 <_svfprintf_r+0x139a>
  404d0c:	2301      	movs	r3, #1
  404d0e:	e73a      	b.n	404b86 <_svfprintf_r+0x126a>
  404d10:	9d0f      	ldr	r5, [sp, #60]	; 0x3c
  404d12:	f89a 3001 	ldrb.w	r3, [sl, #1]
  404d16:	6828      	ldr	r0, [r5, #0]
  404d18:	ea40 70e0 	orr.w	r0, r0, r0, asr #31
  404d1c:	900a      	str	r0, [sp, #40]	; 0x28
  404d1e:	4628      	mov	r0, r5
  404d20:	3004      	adds	r0, #4
  404d22:	46a2      	mov	sl, r4
  404d24:	900f      	str	r0, [sp, #60]	; 0x3c
  404d26:	f7fe be51 	b.w	4039cc <_svfprintf_r+0xb0>
  404d2a:	f88d 1077 	strb.w	r1, [sp, #119]	; 0x77
  404d2e:	f7ff b867 	b.w	403e00 <_svfprintf_r+0x4e4>
  404d32:	f88d 1077 	strb.w	r1, [sp, #119]	; 0x77
  404d36:	f7ff ba15 	b.w	404164 <_svfprintf_r+0x848>
  404d3a:	f10d 0386 	add.w	r3, sp, #134	; 0x86
  404d3e:	e6a6      	b.n	404a8e <_svfprintf_r+0x1172>
  404d40:	f88d 1077 	strb.w	r1, [sp, #119]	; 0x77
  404d44:	f7ff b8eb 	b.w	403f1e <_svfprintf_r+0x602>
  404d48:	9a0c      	ldr	r2, [sp, #48]	; 0x30
  404d4a:	230c      	movs	r3, #12
  404d4c:	6013      	str	r3, [r2, #0]
  404d4e:	f04f 33ff 	mov.w	r3, #4294967295
  404d52:	9309      	str	r3, [sp, #36]	; 0x24
  404d54:	f7fe bebd 	b.w	403ad2 <_svfprintf_r+0x1b6>
  404d58:	f88d 1077 	strb.w	r1, [sp, #119]	; 0x77
  404d5c:	f7ff b99a 	b.w	404094 <_svfprintf_r+0x778>
  404d60:	f88d 1077 	strb.w	r1, [sp, #119]	; 0x77
  404d64:	f7ff b976 	b.w	404054 <_svfprintf_r+0x738>
  404d68:	f88d 1077 	strb.w	r1, [sp, #119]	; 0x77
  404d6c:	f7ff b959 	b.w	404022 <_svfprintf_r+0x706>
  404d70:	f88d 1077 	strb.w	r1, [sp, #119]	; 0x77
  404d74:	f7ff b912 	b.w	403f9c <_svfprintf_r+0x680>

00404d78 <__sprint_r.part.0>:
  404d78:	e92d 4ff8 	stmdb	sp!, {r3, r4, r5, r6, r7, r8, r9, sl, fp, lr}
  404d7c:	6e4b      	ldr	r3, [r1, #100]	; 0x64
  404d7e:	049c      	lsls	r4, r3, #18
  404d80:	4693      	mov	fp, r2
  404d82:	d52f      	bpl.n	404de4 <__sprint_r.part.0+0x6c>
  404d84:	6893      	ldr	r3, [r2, #8]
  404d86:	6812      	ldr	r2, [r2, #0]
  404d88:	b353      	cbz	r3, 404de0 <__sprint_r.part.0+0x68>
  404d8a:	460e      	mov	r6, r1
  404d8c:	4607      	mov	r7, r0
  404d8e:	f102 0908 	add.w	r9, r2, #8
  404d92:	e919 0420 	ldmdb	r9, {r5, sl}
  404d96:	ea5f 089a 	movs.w	r8, sl, lsr #2
  404d9a:	d017      	beq.n	404dcc <__sprint_r.part.0+0x54>
  404d9c:	3d04      	subs	r5, #4
  404d9e:	2400      	movs	r4, #0
  404da0:	e001      	b.n	404da6 <__sprint_r.part.0+0x2e>
  404da2:	45a0      	cmp	r8, r4
  404da4:	d010      	beq.n	404dc8 <__sprint_r.part.0+0x50>
  404da6:	4632      	mov	r2, r6
  404da8:	f855 1f04 	ldr.w	r1, [r5, #4]!
  404dac:	4638      	mov	r0, r7
  404dae:	f002 f87b 	bl	406ea8 <_fputwc_r>
  404db2:	1c43      	adds	r3, r0, #1
  404db4:	f104 0401 	add.w	r4, r4, #1
  404db8:	d1f3      	bne.n	404da2 <__sprint_r.part.0+0x2a>
  404dba:	2300      	movs	r3, #0
  404dbc:	f8cb 3008 	str.w	r3, [fp, #8]
  404dc0:	f8cb 3004 	str.w	r3, [fp, #4]
  404dc4:	e8bd 8ff8 	ldmia.w	sp!, {r3, r4, r5, r6, r7, r8, r9, sl, fp, pc}
  404dc8:	f8db 3008 	ldr.w	r3, [fp, #8]
  404dcc:	f02a 0a03 	bic.w	sl, sl, #3
  404dd0:	eba3 030a 	sub.w	r3, r3, sl
  404dd4:	f8cb 3008 	str.w	r3, [fp, #8]
  404dd8:	f109 0908 	add.w	r9, r9, #8
  404ddc:	2b00      	cmp	r3, #0
  404dde:	d1d8      	bne.n	404d92 <__sprint_r.part.0+0x1a>
  404de0:	2000      	movs	r0, #0
  404de2:	e7ea      	b.n	404dba <__sprint_r.part.0+0x42>
  404de4:	f002 f9ca 	bl	40717c <__sfvwrite_r>
  404de8:	2300      	movs	r3, #0
  404dea:	f8cb 3008 	str.w	r3, [fp, #8]
  404dee:	f8cb 3004 	str.w	r3, [fp, #4]
  404df2:	e8bd 8ff8 	ldmia.w	sp!, {r3, r4, r5, r6, r7, r8, r9, sl, fp, pc}
  404df6:	bf00      	nop

00404df8 <_vfiprintf_r>:
  404df8:	e92d 4ff0 	stmdb	sp!, {r4, r5, r6, r7, r8, r9, sl, fp, lr}
  404dfc:	b0ad      	sub	sp, #180	; 0xb4
  404dfe:	461d      	mov	r5, r3
  404e00:	468b      	mov	fp, r1
  404e02:	4690      	mov	r8, r2
  404e04:	9307      	str	r3, [sp, #28]
  404e06:	9006      	str	r0, [sp, #24]
  404e08:	b118      	cbz	r0, 404e12 <_vfiprintf_r+0x1a>
  404e0a:	6b83      	ldr	r3, [r0, #56]	; 0x38
  404e0c:	2b00      	cmp	r3, #0
  404e0e:	f000 80f3 	beq.w	404ff8 <_vfiprintf_r+0x200>
  404e12:	f8db 3064 	ldr.w	r3, [fp, #100]	; 0x64
  404e16:	f9bb 000c 	ldrsh.w	r0, [fp, #12]
  404e1a:	07df      	lsls	r7, r3, #31
  404e1c:	b281      	uxth	r1, r0
  404e1e:	d402      	bmi.n	404e26 <_vfiprintf_r+0x2e>
  404e20:	058e      	lsls	r6, r1, #22
  404e22:	f140 80fc 	bpl.w	40501e <_vfiprintf_r+0x226>
  404e26:	048c      	lsls	r4, r1, #18
  404e28:	d40a      	bmi.n	404e40 <_vfiprintf_r+0x48>
  404e2a:	f8db 3064 	ldr.w	r3, [fp, #100]	; 0x64
  404e2e:	f440 5100 	orr.w	r1, r0, #8192	; 0x2000
  404e32:	f423 5300 	bic.w	r3, r3, #8192	; 0x2000
  404e36:	f8ab 100c 	strh.w	r1, [fp, #12]
  404e3a:	f8cb 3064 	str.w	r3, [fp, #100]	; 0x64
  404e3e:	b289      	uxth	r1, r1
  404e40:	0708      	lsls	r0, r1, #28
  404e42:	f140 80b3 	bpl.w	404fac <_vfiprintf_r+0x1b4>
  404e46:	f8db 3010 	ldr.w	r3, [fp, #16]
  404e4a:	2b00      	cmp	r3, #0
  404e4c:	f000 80ae 	beq.w	404fac <_vfiprintf_r+0x1b4>
  404e50:	f001 031a 	and.w	r3, r1, #26
  404e54:	2b0a      	cmp	r3, #10
  404e56:	f000 80b5 	beq.w	404fc4 <_vfiprintf_r+0x1cc>
  404e5a:	2300      	movs	r3, #0
  404e5c:	f10d 0970 	add.w	r9, sp, #112	; 0x70
  404e60:	930b      	str	r3, [sp, #44]	; 0x2c
  404e62:	9311      	str	r3, [sp, #68]	; 0x44
  404e64:	9310      	str	r3, [sp, #64]	; 0x40
  404e66:	9303      	str	r3, [sp, #12]
  404e68:	f8cd 903c 	str.w	r9, [sp, #60]	; 0x3c
  404e6c:	46ca      	mov	sl, r9
  404e6e:	f8cd b010 	str.w	fp, [sp, #16]
  404e72:	f898 3000 	ldrb.w	r3, [r8]
  404e76:	4644      	mov	r4, r8
  404e78:	b1fb      	cbz	r3, 404eba <_vfiprintf_r+0xc2>
  404e7a:	2b25      	cmp	r3, #37	; 0x25
  404e7c:	d102      	bne.n	404e84 <_vfiprintf_r+0x8c>
  404e7e:	e01c      	b.n	404eba <_vfiprintf_r+0xc2>
  404e80:	2b25      	cmp	r3, #37	; 0x25
  404e82:	d003      	beq.n	404e8c <_vfiprintf_r+0x94>
  404e84:	f814 3f01 	ldrb.w	r3, [r4, #1]!
  404e88:	2b00      	cmp	r3, #0
  404e8a:	d1f9      	bne.n	404e80 <_vfiprintf_r+0x88>
  404e8c:	eba4 0508 	sub.w	r5, r4, r8
  404e90:	b19d      	cbz	r5, 404eba <_vfiprintf_r+0xc2>
  404e92:	9b10      	ldr	r3, [sp, #64]	; 0x40
  404e94:	9a11      	ldr	r2, [sp, #68]	; 0x44
  404e96:	f8ca 8000 	str.w	r8, [sl]
  404e9a:	3301      	adds	r3, #1
  404e9c:	442a      	add	r2, r5
  404e9e:	2b07      	cmp	r3, #7
  404ea0:	f8ca 5004 	str.w	r5, [sl, #4]
  404ea4:	9211      	str	r2, [sp, #68]	; 0x44
  404ea6:	9310      	str	r3, [sp, #64]	; 0x40
  404ea8:	dd7a      	ble.n	404fa0 <_vfiprintf_r+0x1a8>
  404eaa:	2a00      	cmp	r2, #0
  404eac:	f040 84b0 	bne.w	405810 <_vfiprintf_r+0xa18>
  404eb0:	9b03      	ldr	r3, [sp, #12]
  404eb2:	9210      	str	r2, [sp, #64]	; 0x40
  404eb4:	442b      	add	r3, r5
  404eb6:	46ca      	mov	sl, r9
  404eb8:	9303      	str	r3, [sp, #12]
  404eba:	7823      	ldrb	r3, [r4, #0]
  404ebc:	2b00      	cmp	r3, #0
  404ebe:	f000 83e0 	beq.w	405682 <_vfiprintf_r+0x88a>
  404ec2:	2000      	movs	r0, #0
  404ec4:	f04f 0300 	mov.w	r3, #0
  404ec8:	f88d 3037 	strb.w	r3, [sp, #55]	; 0x37
  404ecc:	f104 0801 	add.w	r8, r4, #1
  404ed0:	7862      	ldrb	r2, [r4, #1]
  404ed2:	4605      	mov	r5, r0
  404ed4:	4606      	mov	r6, r0
  404ed6:	4603      	mov	r3, r0
  404ed8:	f04f 34ff 	mov.w	r4, #4294967295
  404edc:	f108 0801 	add.w	r8, r8, #1
  404ee0:	f1a2 0120 	sub.w	r1, r2, #32
  404ee4:	2958      	cmp	r1, #88	; 0x58
  404ee6:	f200 82de 	bhi.w	4054a6 <_vfiprintf_r+0x6ae>
  404eea:	e8df f011 	tbh	[pc, r1, lsl #1]
  404eee:	0221      	.short	0x0221
  404ef0:	02dc02dc 	.word	0x02dc02dc
  404ef4:	02dc0229 	.word	0x02dc0229
  404ef8:	02dc02dc 	.word	0x02dc02dc
  404efc:	02dc02dc 	.word	0x02dc02dc
  404f00:	028902dc 	.word	0x028902dc
  404f04:	02dc0295 	.word	0x02dc0295
  404f08:	02bd00a2 	.word	0x02bd00a2
  404f0c:	019f02dc 	.word	0x019f02dc
  404f10:	01a401a4 	.word	0x01a401a4
  404f14:	01a401a4 	.word	0x01a401a4
  404f18:	01a401a4 	.word	0x01a401a4
  404f1c:	01a401a4 	.word	0x01a401a4
  404f20:	02dc01a4 	.word	0x02dc01a4
  404f24:	02dc02dc 	.word	0x02dc02dc
  404f28:	02dc02dc 	.word	0x02dc02dc
  404f2c:	02dc02dc 	.word	0x02dc02dc
  404f30:	02dc02dc 	.word	0x02dc02dc
  404f34:	01b202dc 	.word	0x01b202dc
  404f38:	02dc02dc 	.word	0x02dc02dc
  404f3c:	02dc02dc 	.word	0x02dc02dc
  404f40:	02dc02dc 	.word	0x02dc02dc
  404f44:	02dc02dc 	.word	0x02dc02dc
  404f48:	02dc02dc 	.word	0x02dc02dc
  404f4c:	02dc0197 	.word	0x02dc0197
  404f50:	02dc02dc 	.word	0x02dc02dc
  404f54:	02dc02dc 	.word	0x02dc02dc
  404f58:	02dc019b 	.word	0x02dc019b
  404f5c:	025302dc 	.word	0x025302dc
  404f60:	02dc02dc 	.word	0x02dc02dc
  404f64:	02dc02dc 	.word	0x02dc02dc
  404f68:	02dc02dc 	.word	0x02dc02dc
  404f6c:	02dc02dc 	.word	0x02dc02dc
  404f70:	02dc02dc 	.word	0x02dc02dc
  404f74:	021b025a 	.word	0x021b025a
  404f78:	02dc02dc 	.word	0x02dc02dc
  404f7c:	026e02dc 	.word	0x026e02dc
  404f80:	02dc021b 	.word	0x02dc021b
  404f84:	027302dc 	.word	0x027302dc
  404f88:	01f502dc 	.word	0x01f502dc
  404f8c:	02090182 	.word	0x02090182
  404f90:	02dc02d7 	.word	0x02dc02d7
  404f94:	02dc029a 	.word	0x02dc029a
  404f98:	02dc00a7 	.word	0x02dc00a7
  404f9c:	022e02dc 	.word	0x022e02dc
  404fa0:	f10a 0a08 	add.w	sl, sl, #8
  404fa4:	9b03      	ldr	r3, [sp, #12]
  404fa6:	442b      	add	r3, r5
  404fa8:	9303      	str	r3, [sp, #12]
  404faa:	e786      	b.n	404eba <_vfiprintf_r+0xc2>
  404fac:	4659      	mov	r1, fp
  404fae:	9806      	ldr	r0, [sp, #24]
  404fb0:	f000 fdac 	bl	405b0c <__swsetup_r>
  404fb4:	bb18      	cbnz	r0, 404ffe <_vfiprintf_r+0x206>
  404fb6:	f8bb 100c 	ldrh.w	r1, [fp, #12]
  404fba:	f001 031a 	and.w	r3, r1, #26
  404fbe:	2b0a      	cmp	r3, #10
  404fc0:	f47f af4b 	bne.w	404e5a <_vfiprintf_r+0x62>
  404fc4:	f9bb 300e 	ldrsh.w	r3, [fp, #14]
  404fc8:	2b00      	cmp	r3, #0
  404fca:	f6ff af46 	blt.w	404e5a <_vfiprintf_r+0x62>
  404fce:	f8db 3064 	ldr.w	r3, [fp, #100]	; 0x64
  404fd2:	07db      	lsls	r3, r3, #31
  404fd4:	d405      	bmi.n	404fe2 <_vfiprintf_r+0x1ea>
  404fd6:	058f      	lsls	r7, r1, #22
  404fd8:	d403      	bmi.n	404fe2 <_vfiprintf_r+0x1ea>
  404fda:	f8db 0058 	ldr.w	r0, [fp, #88]	; 0x58
  404fde:	f002 fa91 	bl	407504 <__retarget_lock_release_recursive>
  404fe2:	462b      	mov	r3, r5
  404fe4:	4642      	mov	r2, r8
  404fe6:	4659      	mov	r1, fp
  404fe8:	9806      	ldr	r0, [sp, #24]
  404fea:	f000 fd4d 	bl	405a88 <__sbprintf>
  404fee:	9003      	str	r0, [sp, #12]
  404ff0:	9803      	ldr	r0, [sp, #12]
  404ff2:	b02d      	add	sp, #180	; 0xb4
  404ff4:	e8bd 8ff0 	ldmia.w	sp!, {r4, r5, r6, r7, r8, r9, sl, fp, pc}
  404ff8:	f001 feb4 	bl	406d64 <__sinit>
  404ffc:	e709      	b.n	404e12 <_vfiprintf_r+0x1a>
  404ffe:	f8db 3064 	ldr.w	r3, [fp, #100]	; 0x64
  405002:	07d9      	lsls	r1, r3, #31
  405004:	d404      	bmi.n	405010 <_vfiprintf_r+0x218>
  405006:	f8bb 300c 	ldrh.w	r3, [fp, #12]
  40500a:	059a      	lsls	r2, r3, #22
  40500c:	f140 84aa 	bpl.w	405964 <_vfiprintf_r+0xb6c>
  405010:	f04f 33ff 	mov.w	r3, #4294967295
  405014:	9303      	str	r3, [sp, #12]
  405016:	9803      	ldr	r0, [sp, #12]
  405018:	b02d      	add	sp, #180	; 0xb4
  40501a:	e8bd 8ff0 	ldmia.w	sp!, {r4, r5, r6, r7, r8, r9, sl, fp, pc}
  40501e:	f8db 0058 	ldr.w	r0, [fp, #88]	; 0x58
  405022:	f002 fa6d 	bl	407500 <__retarget_lock_acquire_recursive>
  405026:	f9bb 000c 	ldrsh.w	r0, [fp, #12]
  40502a:	b281      	uxth	r1, r0
  40502c:	e6fb      	b.n	404e26 <_vfiprintf_r+0x2e>
  40502e:	4276      	negs	r6, r6
  405030:	9207      	str	r2, [sp, #28]
  405032:	f043 0304 	orr.w	r3, r3, #4
  405036:	f898 2000 	ldrb.w	r2, [r8]
  40503a:	e74f      	b.n	404edc <_vfiprintf_r+0xe4>
  40503c:	9608      	str	r6, [sp, #32]
  40503e:	069e      	lsls	r6, r3, #26
  405040:	f100 8450 	bmi.w	4058e4 <_vfiprintf_r+0xaec>
  405044:	9907      	ldr	r1, [sp, #28]
  405046:	06dd      	lsls	r5, r3, #27
  405048:	460a      	mov	r2, r1
  40504a:	f100 83ef 	bmi.w	40582c <_vfiprintf_r+0xa34>
  40504e:	0658      	lsls	r0, r3, #25
  405050:	f140 83ec 	bpl.w	40582c <_vfiprintf_r+0xa34>
  405054:	880e      	ldrh	r6, [r1, #0]
  405056:	3104      	adds	r1, #4
  405058:	2700      	movs	r7, #0
  40505a:	2201      	movs	r2, #1
  40505c:	9107      	str	r1, [sp, #28]
  40505e:	f04f 0100 	mov.w	r1, #0
  405062:	f88d 1037 	strb.w	r1, [sp, #55]	; 0x37
  405066:	2500      	movs	r5, #0
  405068:	1c61      	adds	r1, r4, #1
  40506a:	f000 8116 	beq.w	40529a <_vfiprintf_r+0x4a2>
  40506e:	f023 0180 	bic.w	r1, r3, #128	; 0x80
  405072:	9102      	str	r1, [sp, #8]
  405074:	ea56 0107 	orrs.w	r1, r6, r7
  405078:	f040 8114 	bne.w	4052a4 <_vfiprintf_r+0x4ac>
  40507c:	2c00      	cmp	r4, #0
  40507e:	f040 835c 	bne.w	40573a <_vfiprintf_r+0x942>
  405082:	2a00      	cmp	r2, #0
  405084:	f040 83b7 	bne.w	4057f6 <_vfiprintf_r+0x9fe>
  405088:	f013 0301 	ands.w	r3, r3, #1
  40508c:	9305      	str	r3, [sp, #20]
  40508e:	f000 8457 	beq.w	405940 <_vfiprintf_r+0xb48>
  405092:	f10d 0bb0 	add.w	fp, sp, #176	; 0xb0
  405096:	2330      	movs	r3, #48	; 0x30
  405098:	f80b 3d41 	strb.w	r3, [fp, #-65]!
  40509c:	9b05      	ldr	r3, [sp, #20]
  40509e:	42a3      	cmp	r3, r4
  4050a0:	bfb8      	it	lt
  4050a2:	4623      	movlt	r3, r4
  4050a4:	9301      	str	r3, [sp, #4]
  4050a6:	b10d      	cbz	r5, 4050ac <_vfiprintf_r+0x2b4>
  4050a8:	3301      	adds	r3, #1
  4050aa:	9301      	str	r3, [sp, #4]
  4050ac:	9b02      	ldr	r3, [sp, #8]
  4050ae:	f013 0302 	ands.w	r3, r3, #2
  4050b2:	9309      	str	r3, [sp, #36]	; 0x24
  4050b4:	d002      	beq.n	4050bc <_vfiprintf_r+0x2c4>
  4050b6:	9b01      	ldr	r3, [sp, #4]
  4050b8:	3302      	adds	r3, #2
  4050ba:	9301      	str	r3, [sp, #4]
  4050bc:	9b02      	ldr	r3, [sp, #8]
  4050be:	f013 0384 	ands.w	r3, r3, #132	; 0x84
  4050c2:	930a      	str	r3, [sp, #40]	; 0x28
  4050c4:	f040 8217 	bne.w	4054f6 <_vfiprintf_r+0x6fe>
  4050c8:	9b08      	ldr	r3, [sp, #32]
  4050ca:	9a01      	ldr	r2, [sp, #4]
  4050cc:	1a9d      	subs	r5, r3, r2
  4050ce:	2d00      	cmp	r5, #0
  4050d0:	f340 8211 	ble.w	4054f6 <_vfiprintf_r+0x6fe>
  4050d4:	2d10      	cmp	r5, #16
  4050d6:	f340 8490 	ble.w	4059fa <_vfiprintf_r+0xc02>
  4050da:	9b10      	ldr	r3, [sp, #64]	; 0x40
  4050dc:	9a11      	ldr	r2, [sp, #68]	; 0x44
  4050de:	4ec4      	ldr	r6, [pc, #784]	; (4053f0 <_vfiprintf_r+0x5f8>)
  4050e0:	46d6      	mov	lr, sl
  4050e2:	2710      	movs	r7, #16
  4050e4:	46a2      	mov	sl, r4
  4050e6:	4619      	mov	r1, r3
  4050e8:	9c06      	ldr	r4, [sp, #24]
  4050ea:	e007      	b.n	4050fc <_vfiprintf_r+0x304>
  4050ec:	f101 0c02 	add.w	ip, r1, #2
  4050f0:	f10e 0e08 	add.w	lr, lr, #8
  4050f4:	4601      	mov	r1, r0
  4050f6:	3d10      	subs	r5, #16
  4050f8:	2d10      	cmp	r5, #16
  4050fa:	dd11      	ble.n	405120 <_vfiprintf_r+0x328>
  4050fc:	1c48      	adds	r0, r1, #1
  4050fe:	3210      	adds	r2, #16
  405100:	2807      	cmp	r0, #7
  405102:	9211      	str	r2, [sp, #68]	; 0x44
  405104:	e88e 00c0 	stmia.w	lr, {r6, r7}
  405108:	9010      	str	r0, [sp, #64]	; 0x40
  40510a:	ddef      	ble.n	4050ec <_vfiprintf_r+0x2f4>
  40510c:	2a00      	cmp	r2, #0
  40510e:	f040 81e4 	bne.w	4054da <_vfiprintf_r+0x6e2>
  405112:	3d10      	subs	r5, #16
  405114:	2d10      	cmp	r5, #16
  405116:	4611      	mov	r1, r2
  405118:	f04f 0c01 	mov.w	ip, #1
  40511c:	46ce      	mov	lr, r9
  40511e:	dced      	bgt.n	4050fc <_vfiprintf_r+0x304>
  405120:	4654      	mov	r4, sl
  405122:	4661      	mov	r1, ip
  405124:	46f2      	mov	sl, lr
  405126:	442a      	add	r2, r5
  405128:	2907      	cmp	r1, #7
  40512a:	9211      	str	r2, [sp, #68]	; 0x44
  40512c:	f8ca 6000 	str.w	r6, [sl]
  405130:	f8ca 5004 	str.w	r5, [sl, #4]
  405134:	9110      	str	r1, [sp, #64]	; 0x40
  405136:	f300 82ec 	bgt.w	405712 <_vfiprintf_r+0x91a>
  40513a:	f89d 5037 	ldrb.w	r5, [sp, #55]	; 0x37
  40513e:	f10a 0a08 	add.w	sl, sl, #8
  405142:	1c48      	adds	r0, r1, #1
  405144:	2d00      	cmp	r5, #0
  405146:	f040 81de 	bne.w	405506 <_vfiprintf_r+0x70e>
  40514a:	9b09      	ldr	r3, [sp, #36]	; 0x24
  40514c:	2b00      	cmp	r3, #0
  40514e:	f000 81f8 	beq.w	405542 <_vfiprintf_r+0x74a>
  405152:	3202      	adds	r2, #2
  405154:	a90e      	add	r1, sp, #56	; 0x38
  405156:	2302      	movs	r3, #2
  405158:	2807      	cmp	r0, #7
  40515a:	9211      	str	r2, [sp, #68]	; 0x44
  40515c:	9010      	str	r0, [sp, #64]	; 0x40
  40515e:	e88a 000a 	stmia.w	sl, {r1, r3}
  405162:	f340 81ea 	ble.w	40553a <_vfiprintf_r+0x742>
  405166:	2a00      	cmp	r2, #0
  405168:	f040 838c 	bne.w	405884 <_vfiprintf_r+0xa8c>
  40516c:	9b0a      	ldr	r3, [sp, #40]	; 0x28
  40516e:	2b80      	cmp	r3, #128	; 0x80
  405170:	f04f 0001 	mov.w	r0, #1
  405174:	4611      	mov	r1, r2
  405176:	46ca      	mov	sl, r9
  405178:	f040 81e7 	bne.w	40554a <_vfiprintf_r+0x752>
  40517c:	9b08      	ldr	r3, [sp, #32]
  40517e:	9d01      	ldr	r5, [sp, #4]
  405180:	1b5e      	subs	r6, r3, r5
  405182:	2e00      	cmp	r6, #0
  405184:	f340 81e1 	ble.w	40554a <_vfiprintf_r+0x752>
  405188:	2e10      	cmp	r6, #16
  40518a:	4d9a      	ldr	r5, [pc, #616]	; (4053f4 <_vfiprintf_r+0x5fc>)
  40518c:	f340 8450 	ble.w	405a30 <_vfiprintf_r+0xc38>
  405190:	46d4      	mov	ip, sl
  405192:	2710      	movs	r7, #16
  405194:	46a2      	mov	sl, r4
  405196:	9c06      	ldr	r4, [sp, #24]
  405198:	e007      	b.n	4051aa <_vfiprintf_r+0x3b2>
  40519a:	f101 0e02 	add.w	lr, r1, #2
  40519e:	f10c 0c08 	add.w	ip, ip, #8
  4051a2:	4601      	mov	r1, r0
  4051a4:	3e10      	subs	r6, #16
  4051a6:	2e10      	cmp	r6, #16
  4051a8:	dd11      	ble.n	4051ce <_vfiprintf_r+0x3d6>
  4051aa:	1c48      	adds	r0, r1, #1
  4051ac:	3210      	adds	r2, #16
  4051ae:	2807      	cmp	r0, #7
  4051b0:	9211      	str	r2, [sp, #68]	; 0x44
  4051b2:	e88c 00a0 	stmia.w	ip, {r5, r7}
  4051b6:	9010      	str	r0, [sp, #64]	; 0x40
  4051b8:	ddef      	ble.n	40519a <_vfiprintf_r+0x3a2>
  4051ba:	2a00      	cmp	r2, #0
  4051bc:	f040 829d 	bne.w	4056fa <_vfiprintf_r+0x902>
  4051c0:	3e10      	subs	r6, #16
  4051c2:	2e10      	cmp	r6, #16
  4051c4:	f04f 0e01 	mov.w	lr, #1
  4051c8:	4611      	mov	r1, r2
  4051ca:	46cc      	mov	ip, r9
  4051cc:	dced      	bgt.n	4051aa <_vfiprintf_r+0x3b2>
  4051ce:	4654      	mov	r4, sl
  4051d0:	46e2      	mov	sl, ip
  4051d2:	4432      	add	r2, r6
  4051d4:	f1be 0f07 	cmp.w	lr, #7
  4051d8:	9211      	str	r2, [sp, #68]	; 0x44
  4051da:	e88a 0060 	stmia.w	sl, {r5, r6}
  4051de:	f8cd e040 	str.w	lr, [sp, #64]	; 0x40
  4051e2:	f300 8369 	bgt.w	4058b8 <_vfiprintf_r+0xac0>
  4051e6:	f10a 0a08 	add.w	sl, sl, #8
  4051ea:	f10e 0001 	add.w	r0, lr, #1
  4051ee:	4671      	mov	r1, lr
  4051f0:	e1ab      	b.n	40554a <_vfiprintf_r+0x752>
  4051f2:	9608      	str	r6, [sp, #32]
  4051f4:	f013 0220 	ands.w	r2, r3, #32
  4051f8:	f040 838c 	bne.w	405914 <_vfiprintf_r+0xb1c>
  4051fc:	f013 0110 	ands.w	r1, r3, #16
  405200:	f040 831a 	bne.w	405838 <_vfiprintf_r+0xa40>
  405204:	f013 0240 	ands.w	r2, r3, #64	; 0x40
  405208:	f000 8316 	beq.w	405838 <_vfiprintf_r+0xa40>
  40520c:	9807      	ldr	r0, [sp, #28]
  40520e:	460a      	mov	r2, r1
  405210:	4601      	mov	r1, r0
  405212:	3104      	adds	r1, #4
  405214:	8806      	ldrh	r6, [r0, #0]
  405216:	9107      	str	r1, [sp, #28]
  405218:	2700      	movs	r7, #0
  40521a:	e720      	b.n	40505e <_vfiprintf_r+0x266>
  40521c:	9608      	str	r6, [sp, #32]
  40521e:	f043 0310 	orr.w	r3, r3, #16
  405222:	e7e7      	b.n	4051f4 <_vfiprintf_r+0x3fc>
  405224:	9608      	str	r6, [sp, #32]
  405226:	f043 0310 	orr.w	r3, r3, #16
  40522a:	e708      	b.n	40503e <_vfiprintf_r+0x246>
  40522c:	f043 0380 	orr.w	r3, r3, #128	; 0x80
  405230:	f898 2000 	ldrb.w	r2, [r8]
  405234:	e652      	b.n	404edc <_vfiprintf_r+0xe4>
  405236:	f1a2 0130 	sub.w	r1, r2, #48	; 0x30
  40523a:	2600      	movs	r6, #0
  40523c:	f818 2b01 	ldrb.w	r2, [r8], #1
  405240:	eb06 0686 	add.w	r6, r6, r6, lsl #2
  405244:	eb01 0646 	add.w	r6, r1, r6, lsl #1
  405248:	f1a2 0130 	sub.w	r1, r2, #48	; 0x30
  40524c:	2909      	cmp	r1, #9
  40524e:	d9f5      	bls.n	40523c <_vfiprintf_r+0x444>
  405250:	e646      	b.n	404ee0 <_vfiprintf_r+0xe8>
  405252:	9608      	str	r6, [sp, #32]
  405254:	2800      	cmp	r0, #0
  405256:	f040 8408 	bne.w	405a6a <_vfiprintf_r+0xc72>
  40525a:	f043 0310 	orr.w	r3, r3, #16
  40525e:	069e      	lsls	r6, r3, #26
  405260:	f100 834c 	bmi.w	4058fc <_vfiprintf_r+0xb04>
  405264:	06dd      	lsls	r5, r3, #27
  405266:	f100 82f3 	bmi.w	405850 <_vfiprintf_r+0xa58>
  40526a:	0658      	lsls	r0, r3, #25
  40526c:	f140 82f0 	bpl.w	405850 <_vfiprintf_r+0xa58>
  405270:	9d07      	ldr	r5, [sp, #28]
  405272:	f9b5 6000 	ldrsh.w	r6, [r5]
  405276:	462a      	mov	r2, r5
  405278:	17f7      	asrs	r7, r6, #31
  40527a:	3204      	adds	r2, #4
  40527c:	4630      	mov	r0, r6
  40527e:	4639      	mov	r1, r7
  405280:	9207      	str	r2, [sp, #28]
  405282:	2800      	cmp	r0, #0
  405284:	f171 0200 	sbcs.w	r2, r1, #0
  405288:	f2c0 835d 	blt.w	405946 <_vfiprintf_r+0xb4e>
  40528c:	1c61      	adds	r1, r4, #1
  40528e:	f89d 5037 	ldrb.w	r5, [sp, #55]	; 0x37
  405292:	f04f 0201 	mov.w	r2, #1
  405296:	f47f aeea 	bne.w	40506e <_vfiprintf_r+0x276>
  40529a:	ea56 0107 	orrs.w	r1, r6, r7
  40529e:	f000 824d 	beq.w	40573c <_vfiprintf_r+0x944>
  4052a2:	9302      	str	r3, [sp, #8]
  4052a4:	2a01      	cmp	r2, #1
  4052a6:	f000 828c 	beq.w	4057c2 <_vfiprintf_r+0x9ca>
  4052aa:	2a02      	cmp	r2, #2
  4052ac:	f040 825c 	bne.w	405768 <_vfiprintf_r+0x970>
  4052b0:	980b      	ldr	r0, [sp, #44]	; 0x2c
  4052b2:	46cb      	mov	fp, r9
  4052b4:	0933      	lsrs	r3, r6, #4
  4052b6:	f006 010f 	and.w	r1, r6, #15
  4052ba:	ea43 7307 	orr.w	r3, r3, r7, lsl #28
  4052be:	093a      	lsrs	r2, r7, #4
  4052c0:	461e      	mov	r6, r3
  4052c2:	4617      	mov	r7, r2
  4052c4:	5c43      	ldrb	r3, [r0, r1]
  4052c6:	f80b 3d01 	strb.w	r3, [fp, #-1]!
  4052ca:	ea56 0307 	orrs.w	r3, r6, r7
  4052ce:	d1f1      	bne.n	4052b4 <_vfiprintf_r+0x4bc>
  4052d0:	eba9 030b 	sub.w	r3, r9, fp
  4052d4:	9305      	str	r3, [sp, #20]
  4052d6:	e6e1      	b.n	40509c <_vfiprintf_r+0x2a4>
  4052d8:	2800      	cmp	r0, #0
  4052da:	f040 83c0 	bne.w	405a5e <_vfiprintf_r+0xc66>
  4052de:	0699      	lsls	r1, r3, #26
  4052e0:	f100 8367 	bmi.w	4059b2 <_vfiprintf_r+0xbba>
  4052e4:	06da      	lsls	r2, r3, #27
  4052e6:	f100 80f1 	bmi.w	4054cc <_vfiprintf_r+0x6d4>
  4052ea:	065b      	lsls	r3, r3, #25
  4052ec:	f140 80ee 	bpl.w	4054cc <_vfiprintf_r+0x6d4>
  4052f0:	9a07      	ldr	r2, [sp, #28]
  4052f2:	6813      	ldr	r3, [r2, #0]
  4052f4:	3204      	adds	r2, #4
  4052f6:	9207      	str	r2, [sp, #28]
  4052f8:	f8bd 200c 	ldrh.w	r2, [sp, #12]
  4052fc:	801a      	strh	r2, [r3, #0]
  4052fe:	e5b8      	b.n	404e72 <_vfiprintf_r+0x7a>
  405300:	9807      	ldr	r0, [sp, #28]
  405302:	4a3d      	ldr	r2, [pc, #244]	; (4053f8 <_vfiprintf_r+0x600>)
  405304:	9608      	str	r6, [sp, #32]
  405306:	920b      	str	r2, [sp, #44]	; 0x2c
  405308:	6806      	ldr	r6, [r0, #0]
  40530a:	2278      	movs	r2, #120	; 0x78
  40530c:	2130      	movs	r1, #48	; 0x30
  40530e:	3004      	adds	r0, #4
  405310:	f88d 2039 	strb.w	r2, [sp, #57]	; 0x39
  405314:	f043 0302 	orr.w	r3, r3, #2
  405318:	9007      	str	r0, [sp, #28]
  40531a:	2700      	movs	r7, #0
  40531c:	f88d 1038 	strb.w	r1, [sp, #56]	; 0x38
  405320:	2202      	movs	r2, #2
  405322:	e69c      	b.n	40505e <_vfiprintf_r+0x266>
  405324:	9608      	str	r6, [sp, #32]
  405326:	2800      	cmp	r0, #0
  405328:	d099      	beq.n	40525e <_vfiprintf_r+0x466>
  40532a:	f88d 5037 	strb.w	r5, [sp, #55]	; 0x37
  40532e:	e796      	b.n	40525e <_vfiprintf_r+0x466>
  405330:	f898 2000 	ldrb.w	r2, [r8]
  405334:	2d00      	cmp	r5, #0
  405336:	f47f add1 	bne.w	404edc <_vfiprintf_r+0xe4>
  40533a:	2001      	movs	r0, #1
  40533c:	2520      	movs	r5, #32
  40533e:	e5cd      	b.n	404edc <_vfiprintf_r+0xe4>
  405340:	f043 0301 	orr.w	r3, r3, #1
  405344:	f898 2000 	ldrb.w	r2, [r8]
  405348:	e5c8      	b.n	404edc <_vfiprintf_r+0xe4>
  40534a:	9608      	str	r6, [sp, #32]
  40534c:	2800      	cmp	r0, #0
  40534e:	f040 8393 	bne.w	405a78 <_vfiprintf_r+0xc80>
  405352:	4929      	ldr	r1, [pc, #164]	; (4053f8 <_vfiprintf_r+0x600>)
  405354:	910b      	str	r1, [sp, #44]	; 0x2c
  405356:	069f      	lsls	r7, r3, #26
  405358:	f100 82e8 	bmi.w	40592c <_vfiprintf_r+0xb34>
  40535c:	9807      	ldr	r0, [sp, #28]
  40535e:	06de      	lsls	r6, r3, #27
  405360:	4601      	mov	r1, r0
  405362:	f100 8270 	bmi.w	405846 <_vfiprintf_r+0xa4e>
  405366:	065d      	lsls	r5, r3, #25
  405368:	f140 826d 	bpl.w	405846 <_vfiprintf_r+0xa4e>
  40536c:	3104      	adds	r1, #4
  40536e:	8806      	ldrh	r6, [r0, #0]
  405370:	9107      	str	r1, [sp, #28]
  405372:	2700      	movs	r7, #0
  405374:	07d8      	lsls	r0, r3, #31
  405376:	f140 8222 	bpl.w	4057be <_vfiprintf_r+0x9c6>
  40537a:	ea56 0107 	orrs.w	r1, r6, r7
  40537e:	f000 821e 	beq.w	4057be <_vfiprintf_r+0x9c6>
  405382:	2130      	movs	r1, #48	; 0x30
  405384:	f88d 2039 	strb.w	r2, [sp, #57]	; 0x39
  405388:	f043 0302 	orr.w	r3, r3, #2
  40538c:	f88d 1038 	strb.w	r1, [sp, #56]	; 0x38
  405390:	2202      	movs	r2, #2
  405392:	e664      	b.n	40505e <_vfiprintf_r+0x266>
  405394:	9608      	str	r6, [sp, #32]
  405396:	2800      	cmp	r0, #0
  405398:	f040 836b 	bne.w	405a72 <_vfiprintf_r+0xc7a>
  40539c:	4917      	ldr	r1, [pc, #92]	; (4053fc <_vfiprintf_r+0x604>)
  40539e:	910b      	str	r1, [sp, #44]	; 0x2c
  4053a0:	e7d9      	b.n	405356 <_vfiprintf_r+0x55e>
  4053a2:	9907      	ldr	r1, [sp, #28]
  4053a4:	9608      	str	r6, [sp, #32]
  4053a6:	680a      	ldr	r2, [r1, #0]
  4053a8:	f88d 2048 	strb.w	r2, [sp, #72]	; 0x48
  4053ac:	f04f 0000 	mov.w	r0, #0
  4053b0:	460a      	mov	r2, r1
  4053b2:	f88d 0037 	strb.w	r0, [sp, #55]	; 0x37
  4053b6:	3204      	adds	r2, #4
  4053b8:	2001      	movs	r0, #1
  4053ba:	9001      	str	r0, [sp, #4]
  4053bc:	9207      	str	r2, [sp, #28]
  4053be:	9005      	str	r0, [sp, #20]
  4053c0:	f10d 0b48 	add.w	fp, sp, #72	; 0x48
  4053c4:	9302      	str	r3, [sp, #8]
  4053c6:	2400      	movs	r4, #0
  4053c8:	e670      	b.n	4050ac <_vfiprintf_r+0x2b4>
  4053ca:	f043 0340 	orr.w	r3, r3, #64	; 0x40
  4053ce:	f898 2000 	ldrb.w	r2, [r8]
  4053d2:	e583      	b.n	404edc <_vfiprintf_r+0xe4>
  4053d4:	f898 2000 	ldrb.w	r2, [r8]
  4053d8:	2a6c      	cmp	r2, #108	; 0x6c
  4053da:	bf03      	ittte	eq
  4053dc:	f898 2001 	ldrbeq.w	r2, [r8, #1]
  4053e0:	f043 0320 	orreq.w	r3, r3, #32
  4053e4:	f108 0801 	addeq.w	r8, r8, #1
  4053e8:	f043 0310 	orrne.w	r3, r3, #16
  4053ec:	e576      	b.n	404edc <_vfiprintf_r+0xe4>
  4053ee:	bf00      	nop
  4053f0:	0040941c 	.word	0x0040941c
  4053f4:	0040942c 	.word	0x0040942c
  4053f8:	004093dc 	.word	0x004093dc
  4053fc:	004093c8 	.word	0x004093c8
  405400:	9907      	ldr	r1, [sp, #28]
  405402:	680e      	ldr	r6, [r1, #0]
  405404:	460a      	mov	r2, r1
  405406:	2e00      	cmp	r6, #0
  405408:	f102 0204 	add.w	r2, r2, #4
  40540c:	f6ff ae0f 	blt.w	40502e <_vfiprintf_r+0x236>
  405410:	9207      	str	r2, [sp, #28]
  405412:	f898 2000 	ldrb.w	r2, [r8]
  405416:	e561      	b.n	404edc <_vfiprintf_r+0xe4>
  405418:	f898 2000 	ldrb.w	r2, [r8]
  40541c:	2001      	movs	r0, #1
  40541e:	252b      	movs	r5, #43	; 0x2b
  405420:	e55c      	b.n	404edc <_vfiprintf_r+0xe4>
  405422:	9907      	ldr	r1, [sp, #28]
  405424:	9608      	str	r6, [sp, #32]
  405426:	f8d1 b000 	ldr.w	fp, [r1]
  40542a:	f04f 0200 	mov.w	r2, #0
  40542e:	f88d 2037 	strb.w	r2, [sp, #55]	; 0x37
  405432:	1d0e      	adds	r6, r1, #4
  405434:	f1bb 0f00 	cmp.w	fp, #0
  405438:	f000 82e5 	beq.w	405a06 <_vfiprintf_r+0xc0e>
  40543c:	1c67      	adds	r7, r4, #1
  40543e:	f000 82c4 	beq.w	4059ca <_vfiprintf_r+0xbd2>
  405442:	4622      	mov	r2, r4
  405444:	2100      	movs	r1, #0
  405446:	4658      	mov	r0, fp
  405448:	9301      	str	r3, [sp, #4]
  40544a:	f002 f8f1 	bl	407630 <memchr>
  40544e:	9b01      	ldr	r3, [sp, #4]
  405450:	2800      	cmp	r0, #0
  405452:	f000 82e5 	beq.w	405a20 <_vfiprintf_r+0xc28>
  405456:	eba0 020b 	sub.w	r2, r0, fp
  40545a:	9205      	str	r2, [sp, #20]
  40545c:	9607      	str	r6, [sp, #28]
  40545e:	9302      	str	r3, [sp, #8]
  405460:	f89d 5037 	ldrb.w	r5, [sp, #55]	; 0x37
  405464:	2400      	movs	r4, #0
  405466:	e619      	b.n	40509c <_vfiprintf_r+0x2a4>
  405468:	f898 2000 	ldrb.w	r2, [r8]
  40546c:	2a2a      	cmp	r2, #42	; 0x2a
  40546e:	f108 0701 	add.w	r7, r8, #1
  405472:	f000 82e9 	beq.w	405a48 <_vfiprintf_r+0xc50>
  405476:	f1a2 0130 	sub.w	r1, r2, #48	; 0x30
  40547a:	2909      	cmp	r1, #9
  40547c:	46b8      	mov	r8, r7
  40547e:	f04f 0400 	mov.w	r4, #0
  405482:	f63f ad2d 	bhi.w	404ee0 <_vfiprintf_r+0xe8>
  405486:	f818 2b01 	ldrb.w	r2, [r8], #1
  40548a:	eb04 0484 	add.w	r4, r4, r4, lsl #2
  40548e:	eb01 0444 	add.w	r4, r1, r4, lsl #1
  405492:	f1a2 0130 	sub.w	r1, r2, #48	; 0x30
  405496:	2909      	cmp	r1, #9
  405498:	d9f5      	bls.n	405486 <_vfiprintf_r+0x68e>
  40549a:	e521      	b.n	404ee0 <_vfiprintf_r+0xe8>
  40549c:	f043 0320 	orr.w	r3, r3, #32
  4054a0:	f898 2000 	ldrb.w	r2, [r8]
  4054a4:	e51a      	b.n	404edc <_vfiprintf_r+0xe4>
  4054a6:	9608      	str	r6, [sp, #32]
  4054a8:	2800      	cmp	r0, #0
  4054aa:	f040 82db 	bne.w	405a64 <_vfiprintf_r+0xc6c>
  4054ae:	2a00      	cmp	r2, #0
  4054b0:	f000 80e7 	beq.w	405682 <_vfiprintf_r+0x88a>
  4054b4:	2101      	movs	r1, #1
  4054b6:	f88d 2048 	strb.w	r2, [sp, #72]	; 0x48
  4054ba:	f04f 0200 	mov.w	r2, #0
  4054be:	9101      	str	r1, [sp, #4]
  4054c0:	f88d 2037 	strb.w	r2, [sp, #55]	; 0x37
  4054c4:	9105      	str	r1, [sp, #20]
  4054c6:	f10d 0b48 	add.w	fp, sp, #72	; 0x48
  4054ca:	e77b      	b.n	4053c4 <_vfiprintf_r+0x5cc>
  4054cc:	9a07      	ldr	r2, [sp, #28]
  4054ce:	6813      	ldr	r3, [r2, #0]
  4054d0:	3204      	adds	r2, #4
  4054d2:	9207      	str	r2, [sp, #28]
  4054d4:	9a03      	ldr	r2, [sp, #12]
  4054d6:	601a      	str	r2, [r3, #0]
  4054d8:	e4cb      	b.n	404e72 <_vfiprintf_r+0x7a>
  4054da:	aa0f      	add	r2, sp, #60	; 0x3c
  4054dc:	9904      	ldr	r1, [sp, #16]
  4054de:	4620      	mov	r0, r4
  4054e0:	f7ff fc4a 	bl	404d78 <__sprint_r.part.0>
  4054e4:	2800      	cmp	r0, #0
  4054e6:	f040 8139 	bne.w	40575c <_vfiprintf_r+0x964>
  4054ea:	9910      	ldr	r1, [sp, #64]	; 0x40
  4054ec:	9a11      	ldr	r2, [sp, #68]	; 0x44
  4054ee:	f101 0c01 	add.w	ip, r1, #1
  4054f2:	46ce      	mov	lr, r9
  4054f4:	e5ff      	b.n	4050f6 <_vfiprintf_r+0x2fe>
  4054f6:	9910      	ldr	r1, [sp, #64]	; 0x40
  4054f8:	9a11      	ldr	r2, [sp, #68]	; 0x44
  4054fa:	1c48      	adds	r0, r1, #1
  4054fc:	f89d 5037 	ldrb.w	r5, [sp, #55]	; 0x37
  405500:	2d00      	cmp	r5, #0
  405502:	f43f ae22 	beq.w	40514a <_vfiprintf_r+0x352>
  405506:	3201      	adds	r2, #1
  405508:	f10d 0537 	add.w	r5, sp, #55	; 0x37
  40550c:	2101      	movs	r1, #1
  40550e:	2807      	cmp	r0, #7
  405510:	9211      	str	r2, [sp, #68]	; 0x44
  405512:	9010      	str	r0, [sp, #64]	; 0x40
  405514:	f8ca 5000 	str.w	r5, [sl]
  405518:	f8ca 1004 	str.w	r1, [sl, #4]
  40551c:	f340 8108 	ble.w	405730 <_vfiprintf_r+0x938>
  405520:	2a00      	cmp	r2, #0
  405522:	f040 81bc 	bne.w	40589e <_vfiprintf_r+0xaa6>
  405526:	9b09      	ldr	r3, [sp, #36]	; 0x24
  405528:	2b00      	cmp	r3, #0
  40552a:	f43f ae1f 	beq.w	40516c <_vfiprintf_r+0x374>
  40552e:	ab0e      	add	r3, sp, #56	; 0x38
  405530:	2202      	movs	r2, #2
  405532:	4608      	mov	r0, r1
  405534:	931c      	str	r3, [sp, #112]	; 0x70
  405536:	921d      	str	r2, [sp, #116]	; 0x74
  405538:	46ca      	mov	sl, r9
  40553a:	4601      	mov	r1, r0
  40553c:	f10a 0a08 	add.w	sl, sl, #8
  405540:	3001      	adds	r0, #1
  405542:	9b0a      	ldr	r3, [sp, #40]	; 0x28
  405544:	2b80      	cmp	r3, #128	; 0x80
  405546:	f43f ae19 	beq.w	40517c <_vfiprintf_r+0x384>
  40554a:	9b05      	ldr	r3, [sp, #20]
  40554c:	1ae4      	subs	r4, r4, r3
  40554e:	2c00      	cmp	r4, #0
  405550:	dd2e      	ble.n	4055b0 <_vfiprintf_r+0x7b8>
  405552:	2c10      	cmp	r4, #16
  405554:	4db3      	ldr	r5, [pc, #716]	; (405824 <_vfiprintf_r+0xa2c>)
  405556:	dd1e      	ble.n	405596 <_vfiprintf_r+0x79e>
  405558:	46d6      	mov	lr, sl
  40555a:	2610      	movs	r6, #16
  40555c:	9f06      	ldr	r7, [sp, #24]
  40555e:	f8dd a010 	ldr.w	sl, [sp, #16]
  405562:	e006      	b.n	405572 <_vfiprintf_r+0x77a>
  405564:	1c88      	adds	r0, r1, #2
  405566:	f10e 0e08 	add.w	lr, lr, #8
  40556a:	4619      	mov	r1, r3
  40556c:	3c10      	subs	r4, #16
  40556e:	2c10      	cmp	r4, #16
  405570:	dd10      	ble.n	405594 <_vfiprintf_r+0x79c>
  405572:	1c4b      	adds	r3, r1, #1
  405574:	3210      	adds	r2, #16
  405576:	2b07      	cmp	r3, #7
  405578:	9211      	str	r2, [sp, #68]	; 0x44
  40557a:	e88e 0060 	stmia.w	lr, {r5, r6}
  40557e:	9310      	str	r3, [sp, #64]	; 0x40
  405580:	ddf0      	ble.n	405564 <_vfiprintf_r+0x76c>
  405582:	2a00      	cmp	r2, #0
  405584:	d165      	bne.n	405652 <_vfiprintf_r+0x85a>
  405586:	3c10      	subs	r4, #16
  405588:	2c10      	cmp	r4, #16
  40558a:	f04f 0001 	mov.w	r0, #1
  40558e:	4611      	mov	r1, r2
  405590:	46ce      	mov	lr, r9
  405592:	dcee      	bgt.n	405572 <_vfiprintf_r+0x77a>
  405594:	46f2      	mov	sl, lr
  405596:	4422      	add	r2, r4
  405598:	2807      	cmp	r0, #7
  40559a:	9211      	str	r2, [sp, #68]	; 0x44
  40559c:	f8ca 5000 	str.w	r5, [sl]
  4055a0:	f8ca 4004 	str.w	r4, [sl, #4]
  4055a4:	9010      	str	r0, [sp, #64]	; 0x40
  4055a6:	f300 8085 	bgt.w	4056b4 <_vfiprintf_r+0x8bc>
  4055aa:	f10a 0a08 	add.w	sl, sl, #8
  4055ae:	3001      	adds	r0, #1
  4055b0:	9905      	ldr	r1, [sp, #20]
  4055b2:	f8ca b000 	str.w	fp, [sl]
  4055b6:	440a      	add	r2, r1
  4055b8:	2807      	cmp	r0, #7
  4055ba:	9211      	str	r2, [sp, #68]	; 0x44
  4055bc:	f8ca 1004 	str.w	r1, [sl, #4]
  4055c0:	9010      	str	r0, [sp, #64]	; 0x40
  4055c2:	f340 8082 	ble.w	4056ca <_vfiprintf_r+0x8d2>
  4055c6:	2a00      	cmp	r2, #0
  4055c8:	f040 8118 	bne.w	4057fc <_vfiprintf_r+0xa04>
  4055cc:	9b02      	ldr	r3, [sp, #8]
  4055ce:	9210      	str	r2, [sp, #64]	; 0x40
  4055d0:	0758      	lsls	r0, r3, #29
  4055d2:	d535      	bpl.n	405640 <_vfiprintf_r+0x848>
  4055d4:	9b08      	ldr	r3, [sp, #32]
  4055d6:	9901      	ldr	r1, [sp, #4]
  4055d8:	1a5c      	subs	r4, r3, r1
  4055da:	2c00      	cmp	r4, #0
  4055dc:	f340 80e7 	ble.w	4057ae <_vfiprintf_r+0x9b6>
  4055e0:	46ca      	mov	sl, r9
  4055e2:	2c10      	cmp	r4, #16
  4055e4:	f340 8218 	ble.w	405a18 <_vfiprintf_r+0xc20>
  4055e8:	9910      	ldr	r1, [sp, #64]	; 0x40
  4055ea:	4e8f      	ldr	r6, [pc, #572]	; (405828 <_vfiprintf_r+0xa30>)
  4055ec:	9f06      	ldr	r7, [sp, #24]
  4055ee:	f8dd b010 	ldr.w	fp, [sp, #16]
  4055f2:	2510      	movs	r5, #16
  4055f4:	e006      	b.n	405604 <_vfiprintf_r+0x80c>
  4055f6:	1c88      	adds	r0, r1, #2
  4055f8:	f10a 0a08 	add.w	sl, sl, #8
  4055fc:	4619      	mov	r1, r3
  4055fe:	3c10      	subs	r4, #16
  405600:	2c10      	cmp	r4, #16
  405602:	dd11      	ble.n	405628 <_vfiprintf_r+0x830>
  405604:	1c4b      	adds	r3, r1, #1
  405606:	3210      	adds	r2, #16
  405608:	2b07      	cmp	r3, #7
  40560a:	9211      	str	r2, [sp, #68]	; 0x44
  40560c:	f8ca 6000 	str.w	r6, [sl]
  405610:	f8ca 5004 	str.w	r5, [sl, #4]
  405614:	9310      	str	r3, [sp, #64]	; 0x40
  405616:	ddee      	ble.n	4055f6 <_vfiprintf_r+0x7fe>
  405618:	bb42      	cbnz	r2, 40566c <_vfiprintf_r+0x874>
  40561a:	3c10      	subs	r4, #16
  40561c:	2c10      	cmp	r4, #16
  40561e:	f04f 0001 	mov.w	r0, #1
  405622:	4611      	mov	r1, r2
  405624:	46ca      	mov	sl, r9
  405626:	dced      	bgt.n	405604 <_vfiprintf_r+0x80c>
  405628:	4422      	add	r2, r4
  40562a:	2807      	cmp	r0, #7
  40562c:	9211      	str	r2, [sp, #68]	; 0x44
  40562e:	f8ca 6000 	str.w	r6, [sl]
  405632:	f8ca 4004 	str.w	r4, [sl, #4]
  405636:	9010      	str	r0, [sp, #64]	; 0x40
  405638:	dd51      	ble.n	4056de <_vfiprintf_r+0x8e6>
  40563a:	2a00      	cmp	r2, #0
  40563c:	f040 819b 	bne.w	405976 <_vfiprintf_r+0xb7e>
  405640:	9b03      	ldr	r3, [sp, #12]
  405642:	9a08      	ldr	r2, [sp, #32]
  405644:	9901      	ldr	r1, [sp, #4]
  405646:	428a      	cmp	r2, r1
  405648:	bfac      	ite	ge
  40564a:	189b      	addge	r3, r3, r2
  40564c:	185b      	addlt	r3, r3, r1
  40564e:	9303      	str	r3, [sp, #12]
  405650:	e04e      	b.n	4056f0 <_vfiprintf_r+0x8f8>
  405652:	aa0f      	add	r2, sp, #60	; 0x3c
  405654:	4651      	mov	r1, sl
  405656:	4638      	mov	r0, r7
  405658:	f7ff fb8e 	bl	404d78 <__sprint_r.part.0>
  40565c:	2800      	cmp	r0, #0
  40565e:	f040 813f 	bne.w	4058e0 <_vfiprintf_r+0xae8>
  405662:	9910      	ldr	r1, [sp, #64]	; 0x40
  405664:	9a11      	ldr	r2, [sp, #68]	; 0x44
  405666:	1c48      	adds	r0, r1, #1
  405668:	46ce      	mov	lr, r9
  40566a:	e77f      	b.n	40556c <_vfiprintf_r+0x774>
  40566c:	aa0f      	add	r2, sp, #60	; 0x3c
  40566e:	4659      	mov	r1, fp
  405670:	4638      	mov	r0, r7
  405672:	f7ff fb81 	bl	404d78 <__sprint_r.part.0>
  405676:	b960      	cbnz	r0, 405692 <_vfiprintf_r+0x89a>
  405678:	9910      	ldr	r1, [sp, #64]	; 0x40
  40567a:	9a11      	ldr	r2, [sp, #68]	; 0x44
  40567c:	1c48      	adds	r0, r1, #1
  40567e:	46ca      	mov	sl, r9
  405680:	e7bd      	b.n	4055fe <_vfiprintf_r+0x806>
  405682:	9b11      	ldr	r3, [sp, #68]	; 0x44
  405684:	f8dd b010 	ldr.w	fp, [sp, #16]
  405688:	2b00      	cmp	r3, #0
  40568a:	f040 81d4 	bne.w	405a36 <_vfiprintf_r+0xc3e>
  40568e:	2300      	movs	r3, #0
  405690:	9310      	str	r3, [sp, #64]	; 0x40
  405692:	f8db 3064 	ldr.w	r3, [fp, #100]	; 0x64
  405696:	f013 0f01 	tst.w	r3, #1
  40569a:	f8bb 300c 	ldrh.w	r3, [fp, #12]
  40569e:	d102      	bne.n	4056a6 <_vfiprintf_r+0x8ae>
  4056a0:	059a      	lsls	r2, r3, #22
  4056a2:	f140 80de 	bpl.w	405862 <_vfiprintf_r+0xa6a>
  4056a6:	065b      	lsls	r3, r3, #25
  4056a8:	f53f acb2 	bmi.w	405010 <_vfiprintf_r+0x218>
  4056ac:	9803      	ldr	r0, [sp, #12]
  4056ae:	b02d      	add	sp, #180	; 0xb4
  4056b0:	e8bd 8ff0 	ldmia.w	sp!, {r4, r5, r6, r7, r8, r9, sl, fp, pc}
  4056b4:	2a00      	cmp	r2, #0
  4056b6:	f040 8106 	bne.w	4058c6 <_vfiprintf_r+0xace>
  4056ba:	9a05      	ldr	r2, [sp, #20]
  4056bc:	921d      	str	r2, [sp, #116]	; 0x74
  4056be:	2301      	movs	r3, #1
  4056c0:	9211      	str	r2, [sp, #68]	; 0x44
  4056c2:	f8cd b070 	str.w	fp, [sp, #112]	; 0x70
  4056c6:	9310      	str	r3, [sp, #64]	; 0x40
  4056c8:	46ca      	mov	sl, r9
  4056ca:	f10a 0a08 	add.w	sl, sl, #8
  4056ce:	9b02      	ldr	r3, [sp, #8]
  4056d0:	0759      	lsls	r1, r3, #29
  4056d2:	d504      	bpl.n	4056de <_vfiprintf_r+0x8e6>
  4056d4:	9b08      	ldr	r3, [sp, #32]
  4056d6:	9901      	ldr	r1, [sp, #4]
  4056d8:	1a5c      	subs	r4, r3, r1
  4056da:	2c00      	cmp	r4, #0
  4056dc:	dc81      	bgt.n	4055e2 <_vfiprintf_r+0x7ea>
  4056de:	9b03      	ldr	r3, [sp, #12]
  4056e0:	9908      	ldr	r1, [sp, #32]
  4056e2:	9801      	ldr	r0, [sp, #4]
  4056e4:	4281      	cmp	r1, r0
  4056e6:	bfac      	ite	ge
  4056e8:	185b      	addge	r3, r3, r1
  4056ea:	181b      	addlt	r3, r3, r0
  4056ec:	9303      	str	r3, [sp, #12]
  4056ee:	bb72      	cbnz	r2, 40574e <_vfiprintf_r+0x956>
  4056f0:	2300      	movs	r3, #0
  4056f2:	9310      	str	r3, [sp, #64]	; 0x40
  4056f4:	46ca      	mov	sl, r9
  4056f6:	f7ff bbbc 	b.w	404e72 <_vfiprintf_r+0x7a>
  4056fa:	aa0f      	add	r2, sp, #60	; 0x3c
  4056fc:	9904      	ldr	r1, [sp, #16]
  4056fe:	4620      	mov	r0, r4
  405700:	f7ff fb3a 	bl	404d78 <__sprint_r.part.0>
  405704:	bb50      	cbnz	r0, 40575c <_vfiprintf_r+0x964>
  405706:	9910      	ldr	r1, [sp, #64]	; 0x40
  405708:	9a11      	ldr	r2, [sp, #68]	; 0x44
  40570a:	f101 0e01 	add.w	lr, r1, #1
  40570e:	46cc      	mov	ip, r9
  405710:	e548      	b.n	4051a4 <_vfiprintf_r+0x3ac>
  405712:	2a00      	cmp	r2, #0
  405714:	f040 8140 	bne.w	405998 <_vfiprintf_r+0xba0>
  405718:	f89d 1037 	ldrb.w	r1, [sp, #55]	; 0x37
  40571c:	2900      	cmp	r1, #0
  40571e:	f000 811b 	beq.w	405958 <_vfiprintf_r+0xb60>
  405722:	2201      	movs	r2, #1
  405724:	f10d 0137 	add.w	r1, sp, #55	; 0x37
  405728:	4610      	mov	r0, r2
  40572a:	921d      	str	r2, [sp, #116]	; 0x74
  40572c:	911c      	str	r1, [sp, #112]	; 0x70
  40572e:	46ca      	mov	sl, r9
  405730:	4601      	mov	r1, r0
  405732:	f10a 0a08 	add.w	sl, sl, #8
  405736:	3001      	adds	r0, #1
  405738:	e507      	b.n	40514a <_vfiprintf_r+0x352>
  40573a:	9b02      	ldr	r3, [sp, #8]
  40573c:	2a01      	cmp	r2, #1
  40573e:	f000 8098 	beq.w	405872 <_vfiprintf_r+0xa7a>
  405742:	2a02      	cmp	r2, #2
  405744:	d10d      	bne.n	405762 <_vfiprintf_r+0x96a>
  405746:	9302      	str	r3, [sp, #8]
  405748:	2600      	movs	r6, #0
  40574a:	2700      	movs	r7, #0
  40574c:	e5b0      	b.n	4052b0 <_vfiprintf_r+0x4b8>
  40574e:	aa0f      	add	r2, sp, #60	; 0x3c
  405750:	9904      	ldr	r1, [sp, #16]
  405752:	9806      	ldr	r0, [sp, #24]
  405754:	f7ff fb10 	bl	404d78 <__sprint_r.part.0>
  405758:	2800      	cmp	r0, #0
  40575a:	d0c9      	beq.n	4056f0 <_vfiprintf_r+0x8f8>
  40575c:	f8dd b010 	ldr.w	fp, [sp, #16]
  405760:	e797      	b.n	405692 <_vfiprintf_r+0x89a>
  405762:	9302      	str	r3, [sp, #8]
  405764:	2600      	movs	r6, #0
  405766:	2700      	movs	r7, #0
  405768:	4649      	mov	r1, r9
  40576a:	e000      	b.n	40576e <_vfiprintf_r+0x976>
  40576c:	4659      	mov	r1, fp
  40576e:	08f2      	lsrs	r2, r6, #3
  405770:	ea42 7247 	orr.w	r2, r2, r7, lsl #29
  405774:	08f8      	lsrs	r0, r7, #3
  405776:	f006 0307 	and.w	r3, r6, #7
  40577a:	4607      	mov	r7, r0
  40577c:	4616      	mov	r6, r2
  40577e:	3330      	adds	r3, #48	; 0x30
  405780:	ea56 0207 	orrs.w	r2, r6, r7
  405784:	f801 3c01 	strb.w	r3, [r1, #-1]
  405788:	f101 3bff 	add.w	fp, r1, #4294967295
  40578c:	d1ee      	bne.n	40576c <_vfiprintf_r+0x974>
  40578e:	9a02      	ldr	r2, [sp, #8]
  405790:	07d6      	lsls	r6, r2, #31
  405792:	f57f ad9d 	bpl.w	4052d0 <_vfiprintf_r+0x4d8>
  405796:	2b30      	cmp	r3, #48	; 0x30
  405798:	f43f ad9a 	beq.w	4052d0 <_vfiprintf_r+0x4d8>
  40579c:	3902      	subs	r1, #2
  40579e:	2330      	movs	r3, #48	; 0x30
  4057a0:	f80b 3c01 	strb.w	r3, [fp, #-1]
  4057a4:	eba9 0301 	sub.w	r3, r9, r1
  4057a8:	9305      	str	r3, [sp, #20]
  4057aa:	468b      	mov	fp, r1
  4057ac:	e476      	b.n	40509c <_vfiprintf_r+0x2a4>
  4057ae:	9b03      	ldr	r3, [sp, #12]
  4057b0:	9a08      	ldr	r2, [sp, #32]
  4057b2:	428a      	cmp	r2, r1
  4057b4:	bfac      	ite	ge
  4057b6:	189b      	addge	r3, r3, r2
  4057b8:	185b      	addlt	r3, r3, r1
  4057ba:	9303      	str	r3, [sp, #12]
  4057bc:	e798      	b.n	4056f0 <_vfiprintf_r+0x8f8>
  4057be:	2202      	movs	r2, #2
  4057c0:	e44d      	b.n	40505e <_vfiprintf_r+0x266>
  4057c2:	2f00      	cmp	r7, #0
  4057c4:	bf08      	it	eq
  4057c6:	2e0a      	cmpeq	r6, #10
  4057c8:	d352      	bcc.n	405870 <_vfiprintf_r+0xa78>
  4057ca:	46cb      	mov	fp, r9
  4057cc:	4630      	mov	r0, r6
  4057ce:	4639      	mov	r1, r7
  4057d0:	220a      	movs	r2, #10
  4057d2:	2300      	movs	r3, #0
  4057d4:	f003 fbd0 	bl	408f78 <__aeabi_uldivmod>
  4057d8:	3230      	adds	r2, #48	; 0x30
  4057da:	f80b 2d01 	strb.w	r2, [fp, #-1]!
  4057de:	4630      	mov	r0, r6
  4057e0:	4639      	mov	r1, r7
  4057e2:	2300      	movs	r3, #0
  4057e4:	220a      	movs	r2, #10
  4057e6:	f003 fbc7 	bl	408f78 <__aeabi_uldivmod>
  4057ea:	4606      	mov	r6, r0
  4057ec:	460f      	mov	r7, r1
  4057ee:	ea56 0307 	orrs.w	r3, r6, r7
  4057f2:	d1eb      	bne.n	4057cc <_vfiprintf_r+0x9d4>
  4057f4:	e56c      	b.n	4052d0 <_vfiprintf_r+0x4d8>
  4057f6:	9405      	str	r4, [sp, #20]
  4057f8:	46cb      	mov	fp, r9
  4057fa:	e44f      	b.n	40509c <_vfiprintf_r+0x2a4>
  4057fc:	aa0f      	add	r2, sp, #60	; 0x3c
  4057fe:	9904      	ldr	r1, [sp, #16]
  405800:	9806      	ldr	r0, [sp, #24]
  405802:	f7ff fab9 	bl	404d78 <__sprint_r.part.0>
  405806:	2800      	cmp	r0, #0
  405808:	d1a8      	bne.n	40575c <_vfiprintf_r+0x964>
  40580a:	9a11      	ldr	r2, [sp, #68]	; 0x44
  40580c:	46ca      	mov	sl, r9
  40580e:	e75e      	b.n	4056ce <_vfiprintf_r+0x8d6>
  405810:	aa0f      	add	r2, sp, #60	; 0x3c
  405812:	9904      	ldr	r1, [sp, #16]
  405814:	9806      	ldr	r0, [sp, #24]
  405816:	f7ff faaf 	bl	404d78 <__sprint_r.part.0>
  40581a:	2800      	cmp	r0, #0
  40581c:	d19e      	bne.n	40575c <_vfiprintf_r+0x964>
  40581e:	46ca      	mov	sl, r9
  405820:	f7ff bbc0 	b.w	404fa4 <_vfiprintf_r+0x1ac>
  405824:	0040942c 	.word	0x0040942c
  405828:	0040941c 	.word	0x0040941c
  40582c:	3104      	adds	r1, #4
  40582e:	6816      	ldr	r6, [r2, #0]
  405830:	9107      	str	r1, [sp, #28]
  405832:	2201      	movs	r2, #1
  405834:	2700      	movs	r7, #0
  405836:	e412      	b.n	40505e <_vfiprintf_r+0x266>
  405838:	9807      	ldr	r0, [sp, #28]
  40583a:	4601      	mov	r1, r0
  40583c:	3104      	adds	r1, #4
  40583e:	6806      	ldr	r6, [r0, #0]
  405840:	9107      	str	r1, [sp, #28]
  405842:	2700      	movs	r7, #0
  405844:	e40b      	b.n	40505e <_vfiprintf_r+0x266>
  405846:	680e      	ldr	r6, [r1, #0]
  405848:	3104      	adds	r1, #4
  40584a:	9107      	str	r1, [sp, #28]
  40584c:	2700      	movs	r7, #0
  40584e:	e591      	b.n	405374 <_vfiprintf_r+0x57c>
  405850:	9907      	ldr	r1, [sp, #28]
  405852:	680e      	ldr	r6, [r1, #0]
  405854:	460a      	mov	r2, r1
  405856:	17f7      	asrs	r7, r6, #31
  405858:	3204      	adds	r2, #4
  40585a:	9207      	str	r2, [sp, #28]
  40585c:	4630      	mov	r0, r6
  40585e:	4639      	mov	r1, r7
  405860:	e50f      	b.n	405282 <_vfiprintf_r+0x48a>
  405862:	f8db 0058 	ldr.w	r0, [fp, #88]	; 0x58
  405866:	f001 fe4d 	bl	407504 <__retarget_lock_release_recursive>
  40586a:	f8bb 300c 	ldrh.w	r3, [fp, #12]
  40586e:	e71a      	b.n	4056a6 <_vfiprintf_r+0x8ae>
  405870:	9b02      	ldr	r3, [sp, #8]
  405872:	9302      	str	r3, [sp, #8]
  405874:	f10d 0bb0 	add.w	fp, sp, #176	; 0xb0
  405878:	3630      	adds	r6, #48	; 0x30
  40587a:	2301      	movs	r3, #1
  40587c:	f80b 6d41 	strb.w	r6, [fp, #-65]!
  405880:	9305      	str	r3, [sp, #20]
  405882:	e40b      	b.n	40509c <_vfiprintf_r+0x2a4>
  405884:	aa0f      	add	r2, sp, #60	; 0x3c
  405886:	9904      	ldr	r1, [sp, #16]
  405888:	9806      	ldr	r0, [sp, #24]
  40588a:	f7ff fa75 	bl	404d78 <__sprint_r.part.0>
  40588e:	2800      	cmp	r0, #0
  405890:	f47f af64 	bne.w	40575c <_vfiprintf_r+0x964>
  405894:	9910      	ldr	r1, [sp, #64]	; 0x40
  405896:	9a11      	ldr	r2, [sp, #68]	; 0x44
  405898:	1c48      	adds	r0, r1, #1
  40589a:	46ca      	mov	sl, r9
  40589c:	e651      	b.n	405542 <_vfiprintf_r+0x74a>
  40589e:	aa0f      	add	r2, sp, #60	; 0x3c
  4058a0:	9904      	ldr	r1, [sp, #16]
  4058a2:	9806      	ldr	r0, [sp, #24]
  4058a4:	f7ff fa68 	bl	404d78 <__sprint_r.part.0>
  4058a8:	2800      	cmp	r0, #0
  4058aa:	f47f af57 	bne.w	40575c <_vfiprintf_r+0x964>
  4058ae:	9910      	ldr	r1, [sp, #64]	; 0x40
  4058b0:	9a11      	ldr	r2, [sp, #68]	; 0x44
  4058b2:	1c48      	adds	r0, r1, #1
  4058b4:	46ca      	mov	sl, r9
  4058b6:	e448      	b.n	40514a <_vfiprintf_r+0x352>
  4058b8:	2a00      	cmp	r2, #0
  4058ba:	f040 8091 	bne.w	4059e0 <_vfiprintf_r+0xbe8>
  4058be:	2001      	movs	r0, #1
  4058c0:	4611      	mov	r1, r2
  4058c2:	46ca      	mov	sl, r9
  4058c4:	e641      	b.n	40554a <_vfiprintf_r+0x752>
  4058c6:	aa0f      	add	r2, sp, #60	; 0x3c
  4058c8:	9904      	ldr	r1, [sp, #16]
  4058ca:	9806      	ldr	r0, [sp, #24]
  4058cc:	f7ff fa54 	bl	404d78 <__sprint_r.part.0>
  4058d0:	2800      	cmp	r0, #0
  4058d2:	f47f af43 	bne.w	40575c <_vfiprintf_r+0x964>
  4058d6:	9810      	ldr	r0, [sp, #64]	; 0x40
  4058d8:	9a11      	ldr	r2, [sp, #68]	; 0x44
  4058da:	3001      	adds	r0, #1
  4058dc:	46ca      	mov	sl, r9
  4058de:	e667      	b.n	4055b0 <_vfiprintf_r+0x7b8>
  4058e0:	46d3      	mov	fp, sl
  4058e2:	e6d6      	b.n	405692 <_vfiprintf_r+0x89a>
  4058e4:	9e07      	ldr	r6, [sp, #28]
  4058e6:	3607      	adds	r6, #7
  4058e8:	f026 0207 	bic.w	r2, r6, #7
  4058ec:	f102 0108 	add.w	r1, r2, #8
  4058f0:	e9d2 6700 	ldrd	r6, r7, [r2]
  4058f4:	9107      	str	r1, [sp, #28]
  4058f6:	2201      	movs	r2, #1
  4058f8:	f7ff bbb1 	b.w	40505e <_vfiprintf_r+0x266>
  4058fc:	9e07      	ldr	r6, [sp, #28]
  4058fe:	3607      	adds	r6, #7
  405900:	f026 0607 	bic.w	r6, r6, #7
  405904:	e9d6 0100 	ldrd	r0, r1, [r6]
  405908:	f106 0208 	add.w	r2, r6, #8
  40590c:	9207      	str	r2, [sp, #28]
  40590e:	4606      	mov	r6, r0
  405910:	460f      	mov	r7, r1
  405912:	e4b6      	b.n	405282 <_vfiprintf_r+0x48a>
  405914:	9e07      	ldr	r6, [sp, #28]
  405916:	3607      	adds	r6, #7
  405918:	f026 0207 	bic.w	r2, r6, #7
  40591c:	f102 0108 	add.w	r1, r2, #8
  405920:	e9d2 6700 	ldrd	r6, r7, [r2]
  405924:	9107      	str	r1, [sp, #28]
  405926:	2200      	movs	r2, #0
  405928:	f7ff bb99 	b.w	40505e <_vfiprintf_r+0x266>
  40592c:	9e07      	ldr	r6, [sp, #28]
  40592e:	3607      	adds	r6, #7
  405930:	f026 0107 	bic.w	r1, r6, #7
  405934:	f101 0008 	add.w	r0, r1, #8
  405938:	9007      	str	r0, [sp, #28]
  40593a:	e9d1 6700 	ldrd	r6, r7, [r1]
  40593e:	e519      	b.n	405374 <_vfiprintf_r+0x57c>
  405940:	46cb      	mov	fp, r9
  405942:	f7ff bbab 	b.w	40509c <_vfiprintf_r+0x2a4>
  405946:	252d      	movs	r5, #45	; 0x2d
  405948:	4276      	negs	r6, r6
  40594a:	eb67 0747 	sbc.w	r7, r7, r7, lsl #1
  40594e:	f88d 5037 	strb.w	r5, [sp, #55]	; 0x37
  405952:	2201      	movs	r2, #1
  405954:	f7ff bb88 	b.w	405068 <_vfiprintf_r+0x270>
  405958:	9b09      	ldr	r3, [sp, #36]	; 0x24
  40595a:	b9b3      	cbnz	r3, 40598a <_vfiprintf_r+0xb92>
  40595c:	4611      	mov	r1, r2
  40595e:	2001      	movs	r0, #1
  405960:	46ca      	mov	sl, r9
  405962:	e5f2      	b.n	40554a <_vfiprintf_r+0x752>
  405964:	f8db 0058 	ldr.w	r0, [fp, #88]	; 0x58
  405968:	f001 fdcc 	bl	407504 <__retarget_lock_release_recursive>
  40596c:	f04f 33ff 	mov.w	r3, #4294967295
  405970:	9303      	str	r3, [sp, #12]
  405972:	f7ff bb50 	b.w	405016 <_vfiprintf_r+0x21e>
  405976:	aa0f      	add	r2, sp, #60	; 0x3c
  405978:	9904      	ldr	r1, [sp, #16]
  40597a:	9806      	ldr	r0, [sp, #24]
  40597c:	f7ff f9fc 	bl	404d78 <__sprint_r.part.0>
  405980:	2800      	cmp	r0, #0
  405982:	f47f aeeb 	bne.w	40575c <_vfiprintf_r+0x964>
  405986:	9a11      	ldr	r2, [sp, #68]	; 0x44
  405988:	e6a9      	b.n	4056de <_vfiprintf_r+0x8e6>
  40598a:	ab0e      	add	r3, sp, #56	; 0x38
  40598c:	2202      	movs	r2, #2
  40598e:	931c      	str	r3, [sp, #112]	; 0x70
  405990:	921d      	str	r2, [sp, #116]	; 0x74
  405992:	2001      	movs	r0, #1
  405994:	46ca      	mov	sl, r9
  405996:	e5d0      	b.n	40553a <_vfiprintf_r+0x742>
  405998:	aa0f      	add	r2, sp, #60	; 0x3c
  40599a:	9904      	ldr	r1, [sp, #16]
  40599c:	9806      	ldr	r0, [sp, #24]
  40599e:	f7ff f9eb 	bl	404d78 <__sprint_r.part.0>
  4059a2:	2800      	cmp	r0, #0
  4059a4:	f47f aeda 	bne.w	40575c <_vfiprintf_r+0x964>
  4059a8:	9910      	ldr	r1, [sp, #64]	; 0x40
  4059aa:	9a11      	ldr	r2, [sp, #68]	; 0x44
  4059ac:	1c48      	adds	r0, r1, #1
  4059ae:	46ca      	mov	sl, r9
  4059b0:	e5a4      	b.n	4054fc <_vfiprintf_r+0x704>
  4059b2:	9a07      	ldr	r2, [sp, #28]
  4059b4:	9903      	ldr	r1, [sp, #12]
  4059b6:	6813      	ldr	r3, [r2, #0]
  4059b8:	17cd      	asrs	r5, r1, #31
  4059ba:	4608      	mov	r0, r1
  4059bc:	3204      	adds	r2, #4
  4059be:	4629      	mov	r1, r5
  4059c0:	9207      	str	r2, [sp, #28]
  4059c2:	e9c3 0100 	strd	r0, r1, [r3]
  4059c6:	f7ff ba54 	b.w	404e72 <_vfiprintf_r+0x7a>
  4059ca:	4658      	mov	r0, fp
  4059cc:	9607      	str	r6, [sp, #28]
  4059ce:	9302      	str	r3, [sp, #8]
  4059d0:	f7fd ff36 	bl	403840 <strlen>
  4059d4:	2400      	movs	r4, #0
  4059d6:	9005      	str	r0, [sp, #20]
  4059d8:	f89d 5037 	ldrb.w	r5, [sp, #55]	; 0x37
  4059dc:	f7ff bb5e 	b.w	40509c <_vfiprintf_r+0x2a4>
  4059e0:	aa0f      	add	r2, sp, #60	; 0x3c
  4059e2:	9904      	ldr	r1, [sp, #16]
  4059e4:	9806      	ldr	r0, [sp, #24]
  4059e6:	f7ff f9c7 	bl	404d78 <__sprint_r.part.0>
  4059ea:	2800      	cmp	r0, #0
  4059ec:	f47f aeb6 	bne.w	40575c <_vfiprintf_r+0x964>
  4059f0:	9910      	ldr	r1, [sp, #64]	; 0x40
  4059f2:	9a11      	ldr	r2, [sp, #68]	; 0x44
  4059f4:	1c48      	adds	r0, r1, #1
  4059f6:	46ca      	mov	sl, r9
  4059f8:	e5a7      	b.n	40554a <_vfiprintf_r+0x752>
  4059fa:	9910      	ldr	r1, [sp, #64]	; 0x40
  4059fc:	9a11      	ldr	r2, [sp, #68]	; 0x44
  4059fe:	4e20      	ldr	r6, [pc, #128]	; (405a80 <_vfiprintf_r+0xc88>)
  405a00:	3101      	adds	r1, #1
  405a02:	f7ff bb90 	b.w	405126 <_vfiprintf_r+0x32e>
  405a06:	2c06      	cmp	r4, #6
  405a08:	bf28      	it	cs
  405a0a:	2406      	movcs	r4, #6
  405a0c:	9405      	str	r4, [sp, #20]
  405a0e:	9607      	str	r6, [sp, #28]
  405a10:	9401      	str	r4, [sp, #4]
  405a12:	f8df b070 	ldr.w	fp, [pc, #112]	; 405a84 <_vfiprintf_r+0xc8c>
  405a16:	e4d5      	b.n	4053c4 <_vfiprintf_r+0x5cc>
  405a18:	9810      	ldr	r0, [sp, #64]	; 0x40
  405a1a:	4e19      	ldr	r6, [pc, #100]	; (405a80 <_vfiprintf_r+0xc88>)
  405a1c:	3001      	adds	r0, #1
  405a1e:	e603      	b.n	405628 <_vfiprintf_r+0x830>
  405a20:	9405      	str	r4, [sp, #20]
  405a22:	f89d 5037 	ldrb.w	r5, [sp, #55]	; 0x37
  405a26:	9607      	str	r6, [sp, #28]
  405a28:	9302      	str	r3, [sp, #8]
  405a2a:	4604      	mov	r4, r0
  405a2c:	f7ff bb36 	b.w	40509c <_vfiprintf_r+0x2a4>
  405a30:	4686      	mov	lr, r0
  405a32:	f7ff bbce 	b.w	4051d2 <_vfiprintf_r+0x3da>
  405a36:	9806      	ldr	r0, [sp, #24]
  405a38:	aa0f      	add	r2, sp, #60	; 0x3c
  405a3a:	4659      	mov	r1, fp
  405a3c:	f7ff f99c 	bl	404d78 <__sprint_r.part.0>
  405a40:	2800      	cmp	r0, #0
  405a42:	f43f ae24 	beq.w	40568e <_vfiprintf_r+0x896>
  405a46:	e624      	b.n	405692 <_vfiprintf_r+0x89a>
  405a48:	9907      	ldr	r1, [sp, #28]
  405a4a:	f898 2001 	ldrb.w	r2, [r8, #1]
  405a4e:	680c      	ldr	r4, [r1, #0]
  405a50:	3104      	adds	r1, #4
  405a52:	ea44 74e4 	orr.w	r4, r4, r4, asr #31
  405a56:	46b8      	mov	r8, r7
  405a58:	9107      	str	r1, [sp, #28]
  405a5a:	f7ff ba3f 	b.w	404edc <_vfiprintf_r+0xe4>
  405a5e:	f88d 5037 	strb.w	r5, [sp, #55]	; 0x37
  405a62:	e43c      	b.n	4052de <_vfiprintf_r+0x4e6>
  405a64:	f88d 5037 	strb.w	r5, [sp, #55]	; 0x37
  405a68:	e521      	b.n	4054ae <_vfiprintf_r+0x6b6>
  405a6a:	f88d 5037 	strb.w	r5, [sp, #55]	; 0x37
  405a6e:	f7ff bbf4 	b.w	40525a <_vfiprintf_r+0x462>
  405a72:	f88d 5037 	strb.w	r5, [sp, #55]	; 0x37
  405a76:	e491      	b.n	40539c <_vfiprintf_r+0x5a4>
  405a78:	f88d 5037 	strb.w	r5, [sp, #55]	; 0x37
  405a7c:	e469      	b.n	405352 <_vfiprintf_r+0x55a>
  405a7e:	bf00      	nop
  405a80:	0040941c 	.word	0x0040941c
  405a84:	004093f0 	.word	0x004093f0

00405a88 <__sbprintf>:
  405a88:	e92d 41f0 	stmdb	sp!, {r4, r5, r6, r7, r8, lr}
  405a8c:	460c      	mov	r4, r1
  405a8e:	f5ad 6d8d 	sub.w	sp, sp, #1128	; 0x468
  405a92:	8989      	ldrh	r1, [r1, #12]
  405a94:	6e66      	ldr	r6, [r4, #100]	; 0x64
  405a96:	89e5      	ldrh	r5, [r4, #14]
  405a98:	9619      	str	r6, [sp, #100]	; 0x64
  405a9a:	f021 0102 	bic.w	r1, r1, #2
  405a9e:	4606      	mov	r6, r0
  405aa0:	69e0      	ldr	r0, [r4, #28]
  405aa2:	f8ad 100c 	strh.w	r1, [sp, #12]
  405aa6:	4617      	mov	r7, r2
  405aa8:	f44f 6180 	mov.w	r1, #1024	; 0x400
  405aac:	6a62      	ldr	r2, [r4, #36]	; 0x24
  405aae:	f8ad 500e 	strh.w	r5, [sp, #14]
  405ab2:	4698      	mov	r8, r3
  405ab4:	ad1a      	add	r5, sp, #104	; 0x68
  405ab6:	2300      	movs	r3, #0
  405ab8:	9007      	str	r0, [sp, #28]
  405aba:	a816      	add	r0, sp, #88	; 0x58
  405abc:	9209      	str	r2, [sp, #36]	; 0x24
  405abe:	9306      	str	r3, [sp, #24]
  405ac0:	9500      	str	r5, [sp, #0]
  405ac2:	9504      	str	r5, [sp, #16]
  405ac4:	9102      	str	r1, [sp, #8]
  405ac6:	9105      	str	r1, [sp, #20]
  405ac8:	f001 fd16 	bl	4074f8 <__retarget_lock_init_recursive>
  405acc:	4643      	mov	r3, r8
  405ace:	463a      	mov	r2, r7
  405ad0:	4669      	mov	r1, sp
  405ad2:	4630      	mov	r0, r6
  405ad4:	f7ff f990 	bl	404df8 <_vfiprintf_r>
  405ad8:	1e05      	subs	r5, r0, #0
  405ada:	db07      	blt.n	405aec <__sbprintf+0x64>
  405adc:	4630      	mov	r0, r6
  405ade:	4669      	mov	r1, sp
  405ae0:	f001 f8e8 	bl	406cb4 <_fflush_r>
  405ae4:	2800      	cmp	r0, #0
  405ae6:	bf18      	it	ne
  405ae8:	f04f 35ff 	movne.w	r5, #4294967295
  405aec:	f8bd 300c 	ldrh.w	r3, [sp, #12]
  405af0:	065b      	lsls	r3, r3, #25
  405af2:	d503      	bpl.n	405afc <__sbprintf+0x74>
  405af4:	89a3      	ldrh	r3, [r4, #12]
  405af6:	f043 0340 	orr.w	r3, r3, #64	; 0x40
  405afa:	81a3      	strh	r3, [r4, #12]
  405afc:	9816      	ldr	r0, [sp, #88]	; 0x58
  405afe:	f001 fcfd 	bl	4074fc <__retarget_lock_close_recursive>
  405b02:	4628      	mov	r0, r5
  405b04:	f50d 6d8d 	add.w	sp, sp, #1128	; 0x468
  405b08:	e8bd 81f0 	ldmia.w	sp!, {r4, r5, r6, r7, r8, pc}

00405b0c <__swsetup_r>:
  405b0c:	b538      	push	{r3, r4, r5, lr}
  405b0e:	4b30      	ldr	r3, [pc, #192]	; (405bd0 <__swsetup_r+0xc4>)
  405b10:	681b      	ldr	r3, [r3, #0]
  405b12:	4605      	mov	r5, r0
  405b14:	460c      	mov	r4, r1
  405b16:	b113      	cbz	r3, 405b1e <__swsetup_r+0x12>
  405b18:	6b9a      	ldr	r2, [r3, #56]	; 0x38
  405b1a:	2a00      	cmp	r2, #0
  405b1c:	d038      	beq.n	405b90 <__swsetup_r+0x84>
  405b1e:	f9b4 200c 	ldrsh.w	r2, [r4, #12]
  405b22:	b293      	uxth	r3, r2
  405b24:	0718      	lsls	r0, r3, #28
  405b26:	d50c      	bpl.n	405b42 <__swsetup_r+0x36>
  405b28:	6920      	ldr	r0, [r4, #16]
  405b2a:	b1a8      	cbz	r0, 405b58 <__swsetup_r+0x4c>
  405b2c:	f013 0201 	ands.w	r2, r3, #1
  405b30:	d01e      	beq.n	405b70 <__swsetup_r+0x64>
  405b32:	6963      	ldr	r3, [r4, #20]
  405b34:	2200      	movs	r2, #0
  405b36:	425b      	negs	r3, r3
  405b38:	61a3      	str	r3, [r4, #24]
  405b3a:	60a2      	str	r2, [r4, #8]
  405b3c:	b1f0      	cbz	r0, 405b7c <__swsetup_r+0x70>
  405b3e:	2000      	movs	r0, #0
  405b40:	bd38      	pop	{r3, r4, r5, pc}
  405b42:	06d9      	lsls	r1, r3, #27
  405b44:	d53c      	bpl.n	405bc0 <__swsetup_r+0xb4>
  405b46:	0758      	lsls	r0, r3, #29
  405b48:	d426      	bmi.n	405b98 <__swsetup_r+0x8c>
  405b4a:	6920      	ldr	r0, [r4, #16]
  405b4c:	f042 0308 	orr.w	r3, r2, #8
  405b50:	81a3      	strh	r3, [r4, #12]
  405b52:	b29b      	uxth	r3, r3
  405b54:	2800      	cmp	r0, #0
  405b56:	d1e9      	bne.n	405b2c <__swsetup_r+0x20>
  405b58:	f403 7220 	and.w	r2, r3, #640	; 0x280
  405b5c:	f5b2 7f00 	cmp.w	r2, #512	; 0x200
  405b60:	d0e4      	beq.n	405b2c <__swsetup_r+0x20>
  405b62:	4628      	mov	r0, r5
  405b64:	4621      	mov	r1, r4
  405b66:	f001 fcfd 	bl	407564 <__smakebuf_r>
  405b6a:	89a3      	ldrh	r3, [r4, #12]
  405b6c:	6920      	ldr	r0, [r4, #16]
  405b6e:	e7dd      	b.n	405b2c <__swsetup_r+0x20>
  405b70:	0799      	lsls	r1, r3, #30
  405b72:	bf58      	it	pl
  405b74:	6962      	ldrpl	r2, [r4, #20]
  405b76:	60a2      	str	r2, [r4, #8]
  405b78:	2800      	cmp	r0, #0
  405b7a:	d1e0      	bne.n	405b3e <__swsetup_r+0x32>
  405b7c:	f9b4 300c 	ldrsh.w	r3, [r4, #12]
  405b80:	061a      	lsls	r2, r3, #24
  405b82:	d5dd      	bpl.n	405b40 <__swsetup_r+0x34>
  405b84:	f043 0340 	orr.w	r3, r3, #64	; 0x40
  405b88:	81a3      	strh	r3, [r4, #12]
  405b8a:	f04f 30ff 	mov.w	r0, #4294967295
  405b8e:	bd38      	pop	{r3, r4, r5, pc}
  405b90:	4618      	mov	r0, r3
  405b92:	f001 f8e7 	bl	406d64 <__sinit>
  405b96:	e7c2      	b.n	405b1e <__swsetup_r+0x12>
  405b98:	6b21      	ldr	r1, [r4, #48]	; 0x30
  405b9a:	b151      	cbz	r1, 405bb2 <__swsetup_r+0xa6>
  405b9c:	f104 0340 	add.w	r3, r4, #64	; 0x40
  405ba0:	4299      	cmp	r1, r3
  405ba2:	d004      	beq.n	405bae <__swsetup_r+0xa2>
  405ba4:	4628      	mov	r0, r5
  405ba6:	f001 fa03 	bl	406fb0 <_free_r>
  405baa:	f9b4 200c 	ldrsh.w	r2, [r4, #12]
  405bae:	2300      	movs	r3, #0
  405bb0:	6323      	str	r3, [r4, #48]	; 0x30
  405bb2:	2300      	movs	r3, #0
  405bb4:	6920      	ldr	r0, [r4, #16]
  405bb6:	6063      	str	r3, [r4, #4]
  405bb8:	f022 0224 	bic.w	r2, r2, #36	; 0x24
  405bbc:	6020      	str	r0, [r4, #0]
  405bbe:	e7c5      	b.n	405b4c <__swsetup_r+0x40>
  405bc0:	f042 0240 	orr.w	r2, r2, #64	; 0x40
  405bc4:	2309      	movs	r3, #9
  405bc6:	602b      	str	r3, [r5, #0]
  405bc8:	f04f 30ff 	mov.w	r0, #4294967295
  405bcc:	81a2      	strh	r2, [r4, #12]
  405bce:	bd38      	pop	{r3, r4, r5, pc}
  405bd0:	2040000c 	.word	0x2040000c

00405bd4 <register_fini>:
  405bd4:	4b02      	ldr	r3, [pc, #8]	; (405be0 <register_fini+0xc>)
  405bd6:	b113      	cbz	r3, 405bde <register_fini+0xa>
  405bd8:	4802      	ldr	r0, [pc, #8]	; (405be4 <register_fini+0x10>)
  405bda:	f000 b805 	b.w	405be8 <atexit>
  405bde:	4770      	bx	lr
  405be0:	00000000 	.word	0x00000000
  405be4:	00406dd5 	.word	0x00406dd5

00405be8 <atexit>:
  405be8:	2300      	movs	r3, #0
  405bea:	4601      	mov	r1, r0
  405bec:	461a      	mov	r2, r3
  405bee:	4618      	mov	r0, r3
  405bf0:	f002 bbda 	b.w	4083a8 <__register_exitproc>

00405bf4 <quorem>:
  405bf4:	6902      	ldr	r2, [r0, #16]
  405bf6:	690b      	ldr	r3, [r1, #16]
  405bf8:	4293      	cmp	r3, r2
  405bfa:	f300 808d 	bgt.w	405d18 <quorem+0x124>
  405bfe:	e92d 4ff0 	stmdb	sp!, {r4, r5, r6, r7, r8, r9, sl, fp, lr}
  405c02:	f103 38ff 	add.w	r8, r3, #4294967295
  405c06:	f101 0714 	add.w	r7, r1, #20
  405c0a:	f100 0b14 	add.w	fp, r0, #20
  405c0e:	f857 2028 	ldr.w	r2, [r7, r8, lsl #2]
  405c12:	f85b 3028 	ldr.w	r3, [fp, r8, lsl #2]
  405c16:	ea4f 0488 	mov.w	r4, r8, lsl #2
  405c1a:	b083      	sub	sp, #12
  405c1c:	3201      	adds	r2, #1
  405c1e:	fbb3 f9f2 	udiv	r9, r3, r2
  405c22:	eb0b 0304 	add.w	r3, fp, r4
  405c26:	9400      	str	r4, [sp, #0]
  405c28:	eb07 0a04 	add.w	sl, r7, r4
  405c2c:	9301      	str	r3, [sp, #4]
  405c2e:	f1b9 0f00 	cmp.w	r9, #0
  405c32:	d039      	beq.n	405ca8 <quorem+0xb4>
  405c34:	2500      	movs	r5, #0
  405c36:	462e      	mov	r6, r5
  405c38:	46bc      	mov	ip, r7
  405c3a:	46de      	mov	lr, fp
  405c3c:	f85c 4b04 	ldr.w	r4, [ip], #4
  405c40:	f8de 3000 	ldr.w	r3, [lr]
  405c44:	b2a2      	uxth	r2, r4
  405c46:	fb09 5502 	mla	r5, r9, r2, r5
  405c4a:	0c22      	lsrs	r2, r4, #16
  405c4c:	0c2c      	lsrs	r4, r5, #16
  405c4e:	fb09 4202 	mla	r2, r9, r2, r4
  405c52:	b2ad      	uxth	r5, r5
  405c54:	1b75      	subs	r5, r6, r5
  405c56:	b296      	uxth	r6, r2
  405c58:	ebc6 4613 	rsb	r6, r6, r3, lsr #16
  405c5c:	fa15 f383 	uxtah	r3, r5, r3
  405c60:	eb06 4623 	add.w	r6, r6, r3, asr #16
  405c64:	b29b      	uxth	r3, r3
  405c66:	ea43 4306 	orr.w	r3, r3, r6, lsl #16
  405c6a:	45e2      	cmp	sl, ip
  405c6c:	ea4f 4512 	mov.w	r5, r2, lsr #16
  405c70:	f84e 3b04 	str.w	r3, [lr], #4
  405c74:	ea4f 4626 	mov.w	r6, r6, asr #16
  405c78:	d2e0      	bcs.n	405c3c <quorem+0x48>
  405c7a:	9b00      	ldr	r3, [sp, #0]
  405c7c:	f85b 3003 	ldr.w	r3, [fp, r3]
  405c80:	b993      	cbnz	r3, 405ca8 <quorem+0xb4>
  405c82:	9c01      	ldr	r4, [sp, #4]
  405c84:	1f23      	subs	r3, r4, #4
  405c86:	459b      	cmp	fp, r3
  405c88:	d20c      	bcs.n	405ca4 <quorem+0xb0>
  405c8a:	f854 3c04 	ldr.w	r3, [r4, #-4]
  405c8e:	b94b      	cbnz	r3, 405ca4 <quorem+0xb0>
  405c90:	f1a4 0308 	sub.w	r3, r4, #8
  405c94:	e002      	b.n	405c9c <quorem+0xa8>
  405c96:	681a      	ldr	r2, [r3, #0]
  405c98:	3b04      	subs	r3, #4
  405c9a:	b91a      	cbnz	r2, 405ca4 <quorem+0xb0>
  405c9c:	459b      	cmp	fp, r3
  405c9e:	f108 38ff 	add.w	r8, r8, #4294967295
  405ca2:	d3f8      	bcc.n	405c96 <quorem+0xa2>
  405ca4:	f8c0 8010 	str.w	r8, [r0, #16]
  405ca8:	4604      	mov	r4, r0
  405caa:	f001 ff73 	bl	407b94 <__mcmp>
  405cae:	2800      	cmp	r0, #0
  405cb0:	db2e      	blt.n	405d10 <quorem+0x11c>
  405cb2:	f109 0901 	add.w	r9, r9, #1
  405cb6:	465d      	mov	r5, fp
  405cb8:	2300      	movs	r3, #0
  405cba:	f857 1b04 	ldr.w	r1, [r7], #4
  405cbe:	6828      	ldr	r0, [r5, #0]
  405cc0:	b28a      	uxth	r2, r1
  405cc2:	1a9a      	subs	r2, r3, r2
  405cc4:	0c0b      	lsrs	r3, r1, #16
  405cc6:	fa12 f280 	uxtah	r2, r2, r0
  405cca:	ebc3 4310 	rsb	r3, r3, r0, lsr #16
  405cce:	eb03 4322 	add.w	r3, r3, r2, asr #16
  405cd2:	b292      	uxth	r2, r2
  405cd4:	ea42 4203 	orr.w	r2, r2, r3, lsl #16
  405cd8:	45ba      	cmp	sl, r7
  405cda:	f845 2b04 	str.w	r2, [r5], #4
  405cde:	ea4f 4323 	mov.w	r3, r3, asr #16
  405ce2:	d2ea      	bcs.n	405cba <quorem+0xc6>
  405ce4:	f85b 2028 	ldr.w	r2, [fp, r8, lsl #2]
  405ce8:	eb0b 0388 	add.w	r3, fp, r8, lsl #2
  405cec:	b982      	cbnz	r2, 405d10 <quorem+0x11c>
  405cee:	1f1a      	subs	r2, r3, #4
  405cf0:	4593      	cmp	fp, r2
  405cf2:	d20b      	bcs.n	405d0c <quorem+0x118>
  405cf4:	f853 2c04 	ldr.w	r2, [r3, #-4]
  405cf8:	b942      	cbnz	r2, 405d0c <quorem+0x118>
  405cfa:	3b08      	subs	r3, #8
  405cfc:	e002      	b.n	405d04 <quorem+0x110>
  405cfe:	681a      	ldr	r2, [r3, #0]
  405d00:	3b04      	subs	r3, #4
  405d02:	b91a      	cbnz	r2, 405d0c <quorem+0x118>
  405d04:	459b      	cmp	fp, r3
  405d06:	f108 38ff 	add.w	r8, r8, #4294967295
  405d0a:	d3f8      	bcc.n	405cfe <quorem+0x10a>
  405d0c:	f8c4 8010 	str.w	r8, [r4, #16]
  405d10:	4648      	mov	r0, r9
  405d12:	b003      	add	sp, #12
  405d14:	e8bd 8ff0 	ldmia.w	sp!, {r4, r5, r6, r7, r8, r9, sl, fp, pc}
  405d18:	2000      	movs	r0, #0
  405d1a:	4770      	bx	lr
  405d1c:	0000      	movs	r0, r0
	...

00405d20 <_dtoa_r>:
  405d20:	e92d 4ff0 	stmdb	sp!, {r4, r5, r6, r7, r8, r9, sl, fp, lr}
  405d24:	6c01      	ldr	r1, [r0, #64]	; 0x40
  405d26:	b09b      	sub	sp, #108	; 0x6c
  405d28:	4604      	mov	r4, r0
  405d2a:	9e27      	ldr	r6, [sp, #156]	; 0x9c
  405d2c:	4692      	mov	sl, r2
  405d2e:	469b      	mov	fp, r3
  405d30:	b141      	cbz	r1, 405d44 <_dtoa_r+0x24>
  405d32:	6c42      	ldr	r2, [r0, #68]	; 0x44
  405d34:	604a      	str	r2, [r1, #4]
  405d36:	2301      	movs	r3, #1
  405d38:	4093      	lsls	r3, r2
  405d3a:	608b      	str	r3, [r1, #8]
  405d3c:	f001 fd52 	bl	4077e4 <_Bfree>
  405d40:	2300      	movs	r3, #0
  405d42:	6423      	str	r3, [r4, #64]	; 0x40
  405d44:	f1bb 0f00 	cmp.w	fp, #0
  405d48:	465d      	mov	r5, fp
  405d4a:	db35      	blt.n	405db8 <_dtoa_r+0x98>
  405d4c:	2300      	movs	r3, #0
  405d4e:	6033      	str	r3, [r6, #0]
  405d50:	4b9d      	ldr	r3, [pc, #628]	; (405fc8 <_dtoa_r+0x2a8>)
  405d52:	43ab      	bics	r3, r5
  405d54:	d015      	beq.n	405d82 <_dtoa_r+0x62>
  405d56:	4650      	mov	r0, sl
  405d58:	4659      	mov	r1, fp
  405d5a:	2200      	movs	r2, #0
  405d5c:	2300      	movs	r3, #0
  405d5e:	f003 f89b 	bl	408e98 <__aeabi_dcmpeq>
  405d62:	4680      	mov	r8, r0
  405d64:	2800      	cmp	r0, #0
  405d66:	d02d      	beq.n	405dc4 <_dtoa_r+0xa4>
  405d68:	9a26      	ldr	r2, [sp, #152]	; 0x98
  405d6a:	2301      	movs	r3, #1
  405d6c:	6013      	str	r3, [r2, #0]
  405d6e:	9b28      	ldr	r3, [sp, #160]	; 0xa0
  405d70:	2b00      	cmp	r3, #0
  405d72:	f000 80bd 	beq.w	405ef0 <_dtoa_r+0x1d0>
  405d76:	4895      	ldr	r0, [pc, #596]	; (405fcc <_dtoa_r+0x2ac>)
  405d78:	6018      	str	r0, [r3, #0]
  405d7a:	3801      	subs	r0, #1
  405d7c:	b01b      	add	sp, #108	; 0x6c
  405d7e:	e8bd 8ff0 	ldmia.w	sp!, {r4, r5, r6, r7, r8, r9, sl, fp, pc}
  405d82:	9a26      	ldr	r2, [sp, #152]	; 0x98
  405d84:	f242 730f 	movw	r3, #9999	; 0x270f
  405d88:	6013      	str	r3, [r2, #0]
  405d8a:	f1ba 0f00 	cmp.w	sl, #0
  405d8e:	d10d      	bne.n	405dac <_dtoa_r+0x8c>
  405d90:	f3c5 0513 	ubfx	r5, r5, #0, #20
  405d94:	b955      	cbnz	r5, 405dac <_dtoa_r+0x8c>
  405d96:	9b28      	ldr	r3, [sp, #160]	; 0xa0
  405d98:	488d      	ldr	r0, [pc, #564]	; (405fd0 <_dtoa_r+0x2b0>)
  405d9a:	2b00      	cmp	r3, #0
  405d9c:	d0ee      	beq.n	405d7c <_dtoa_r+0x5c>
  405d9e:	f100 0308 	add.w	r3, r0, #8
  405da2:	9a28      	ldr	r2, [sp, #160]	; 0xa0
  405da4:	6013      	str	r3, [r2, #0]
  405da6:	b01b      	add	sp, #108	; 0x6c
  405da8:	e8bd 8ff0 	ldmia.w	sp!, {r4, r5, r6, r7, r8, r9, sl, fp, pc}
  405dac:	9b28      	ldr	r3, [sp, #160]	; 0xa0
  405dae:	4889      	ldr	r0, [pc, #548]	; (405fd4 <_dtoa_r+0x2b4>)
  405db0:	2b00      	cmp	r3, #0
  405db2:	d0e3      	beq.n	405d7c <_dtoa_r+0x5c>
  405db4:	1cc3      	adds	r3, r0, #3
  405db6:	e7f4      	b.n	405da2 <_dtoa_r+0x82>
  405db8:	2301      	movs	r3, #1
  405dba:	f02b 4500 	bic.w	r5, fp, #2147483648	; 0x80000000
  405dbe:	6033      	str	r3, [r6, #0]
  405dc0:	46ab      	mov	fp, r5
  405dc2:	e7c5      	b.n	405d50 <_dtoa_r+0x30>
  405dc4:	aa18      	add	r2, sp, #96	; 0x60
  405dc6:	ab19      	add	r3, sp, #100	; 0x64
  405dc8:	9201      	str	r2, [sp, #4]
  405dca:	9300      	str	r3, [sp, #0]
  405dcc:	4652      	mov	r2, sl
  405dce:	465b      	mov	r3, fp
  405dd0:	4620      	mov	r0, r4
  405dd2:	f001 ff7f 	bl	407cd4 <__d2b>
  405dd6:	0d2b      	lsrs	r3, r5, #20
  405dd8:	4681      	mov	r9, r0
  405dda:	d071      	beq.n	405ec0 <_dtoa_r+0x1a0>
  405ddc:	f3cb 0213 	ubfx	r2, fp, #0, #20
  405de0:	f042 517f 	orr.w	r1, r2, #1069547520	; 0x3fc00000
  405de4:	9f18      	ldr	r7, [sp, #96]	; 0x60
  405de6:	f8cd 8050 	str.w	r8, [sp, #80]	; 0x50
  405dea:	4650      	mov	r0, sl
  405dec:	f2a3 36ff 	subw	r6, r3, #1023	; 0x3ff
  405df0:	f441 1140 	orr.w	r1, r1, #3145728	; 0x300000
  405df4:	2200      	movs	r2, #0
  405df6:	4b78      	ldr	r3, [pc, #480]	; (405fd8 <_dtoa_r+0x2b8>)
  405df8:	f002 fc32 	bl	408660 <__aeabi_dsub>
  405dfc:	a36c      	add	r3, pc, #432	; (adr r3, 405fb0 <_dtoa_r+0x290>)
  405dfe:	e9d3 2300 	ldrd	r2, r3, [r3]
  405e02:	f002 fde1 	bl	4089c8 <__aeabi_dmul>
  405e06:	a36c      	add	r3, pc, #432	; (adr r3, 405fb8 <_dtoa_r+0x298>)
  405e08:	e9d3 2300 	ldrd	r2, r3, [r3]
  405e0c:	f002 fc2a 	bl	408664 <__adddf3>
  405e10:	e9cd 0102 	strd	r0, r1, [sp, #8]
  405e14:	4630      	mov	r0, r6
  405e16:	f002 fd71 	bl	4088fc <__aeabi_i2d>
  405e1a:	a369      	add	r3, pc, #420	; (adr r3, 405fc0 <_dtoa_r+0x2a0>)
  405e1c:	e9d3 2300 	ldrd	r2, r3, [r3]
  405e20:	f002 fdd2 	bl	4089c8 <__aeabi_dmul>
  405e24:	4602      	mov	r2, r0
  405e26:	460b      	mov	r3, r1
  405e28:	e9dd 0102 	ldrd	r0, r1, [sp, #8]
  405e2c:	f002 fc1a 	bl	408664 <__adddf3>
  405e30:	e9cd 0104 	strd	r0, r1, [sp, #16]
  405e34:	f003 f878 	bl	408f28 <__aeabi_d2iz>
  405e38:	2200      	movs	r2, #0
  405e3a:	9002      	str	r0, [sp, #8]
  405e3c:	2300      	movs	r3, #0
  405e3e:	e9dd 0104 	ldrd	r0, r1, [sp, #16]
  405e42:	f003 f833 	bl	408eac <__aeabi_dcmplt>
  405e46:	2800      	cmp	r0, #0
  405e48:	f040 8173 	bne.w	406132 <_dtoa_r+0x412>
  405e4c:	9d02      	ldr	r5, [sp, #8]
  405e4e:	2d16      	cmp	r5, #22
  405e50:	f200 815d 	bhi.w	40610e <_dtoa_r+0x3ee>
  405e54:	4b61      	ldr	r3, [pc, #388]	; (405fdc <_dtoa_r+0x2bc>)
  405e56:	eb03 03c5 	add.w	r3, r3, r5, lsl #3
  405e5a:	e9d3 0100 	ldrd	r0, r1, [r3]
  405e5e:	4652      	mov	r2, sl
  405e60:	465b      	mov	r3, fp
  405e62:	f003 f841 	bl	408ee8 <__aeabi_dcmpgt>
  405e66:	2800      	cmp	r0, #0
  405e68:	f000 81c5 	beq.w	4061f6 <_dtoa_r+0x4d6>
  405e6c:	1e6b      	subs	r3, r5, #1
  405e6e:	9302      	str	r3, [sp, #8]
  405e70:	2300      	movs	r3, #0
  405e72:	930e      	str	r3, [sp, #56]	; 0x38
  405e74:	1bbf      	subs	r7, r7, r6
  405e76:	1e7b      	subs	r3, r7, #1
  405e78:	9306      	str	r3, [sp, #24]
  405e7a:	f100 8154 	bmi.w	406126 <_dtoa_r+0x406>
  405e7e:	2300      	movs	r3, #0
  405e80:	9308      	str	r3, [sp, #32]
  405e82:	9b02      	ldr	r3, [sp, #8]
  405e84:	2b00      	cmp	r3, #0
  405e86:	f2c0 8145 	blt.w	406114 <_dtoa_r+0x3f4>
  405e8a:	9a06      	ldr	r2, [sp, #24]
  405e8c:	930d      	str	r3, [sp, #52]	; 0x34
  405e8e:	4611      	mov	r1, r2
  405e90:	4419      	add	r1, r3
  405e92:	2300      	movs	r3, #0
  405e94:	9106      	str	r1, [sp, #24]
  405e96:	930c      	str	r3, [sp, #48]	; 0x30
  405e98:	9b24      	ldr	r3, [sp, #144]	; 0x90
  405e9a:	2b09      	cmp	r3, #9
  405e9c:	d82a      	bhi.n	405ef4 <_dtoa_r+0x1d4>
  405e9e:	2b05      	cmp	r3, #5
  405ea0:	f340 865b 	ble.w	406b5a <_dtoa_r+0xe3a>
  405ea4:	3b04      	subs	r3, #4
  405ea6:	9324      	str	r3, [sp, #144]	; 0x90
  405ea8:	2500      	movs	r5, #0
  405eaa:	9b24      	ldr	r3, [sp, #144]	; 0x90
  405eac:	3b02      	subs	r3, #2
  405eae:	2b03      	cmp	r3, #3
  405eb0:	f200 8642 	bhi.w	406b38 <_dtoa_r+0xe18>
  405eb4:	e8df f013 	tbh	[pc, r3, lsl #1]
  405eb8:	02c903d4 	.word	0x02c903d4
  405ebc:	046103df 	.word	0x046103df
  405ec0:	9f18      	ldr	r7, [sp, #96]	; 0x60
  405ec2:	9e19      	ldr	r6, [sp, #100]	; 0x64
  405ec4:	443e      	add	r6, r7
  405ec6:	f206 4332 	addw	r3, r6, #1074	; 0x432
  405eca:	2b20      	cmp	r3, #32
  405ecc:	f340 818e 	ble.w	4061ec <_dtoa_r+0x4cc>
  405ed0:	f1c3 0340 	rsb	r3, r3, #64	; 0x40
  405ed4:	f206 4012 	addw	r0, r6, #1042	; 0x412
  405ed8:	409d      	lsls	r5, r3
  405eda:	fa2a f000 	lsr.w	r0, sl, r0
  405ede:	4328      	orrs	r0, r5
  405ee0:	f002 fcfc 	bl	4088dc <__aeabi_ui2d>
  405ee4:	2301      	movs	r3, #1
  405ee6:	3e01      	subs	r6, #1
  405ee8:	f1a1 71f8 	sub.w	r1, r1, #32505856	; 0x1f00000
  405eec:	9314      	str	r3, [sp, #80]	; 0x50
  405eee:	e781      	b.n	405df4 <_dtoa_r+0xd4>
  405ef0:	483b      	ldr	r0, [pc, #236]	; (405fe0 <_dtoa_r+0x2c0>)
  405ef2:	e743      	b.n	405d7c <_dtoa_r+0x5c>
  405ef4:	2100      	movs	r1, #0
  405ef6:	6461      	str	r1, [r4, #68]	; 0x44
  405ef8:	4620      	mov	r0, r4
  405efa:	9125      	str	r1, [sp, #148]	; 0x94
  405efc:	f001 fc4c 	bl	407798 <_Balloc>
  405f00:	f04f 33ff 	mov.w	r3, #4294967295
  405f04:	930a      	str	r3, [sp, #40]	; 0x28
  405f06:	9a25      	ldr	r2, [sp, #148]	; 0x94
  405f08:	930f      	str	r3, [sp, #60]	; 0x3c
  405f0a:	2301      	movs	r3, #1
  405f0c:	9004      	str	r0, [sp, #16]
  405f0e:	6420      	str	r0, [r4, #64]	; 0x40
  405f10:	9224      	str	r2, [sp, #144]	; 0x90
  405f12:	930b      	str	r3, [sp, #44]	; 0x2c
  405f14:	9b19      	ldr	r3, [sp, #100]	; 0x64
  405f16:	2b00      	cmp	r3, #0
  405f18:	f2c0 80d9 	blt.w	4060ce <_dtoa_r+0x3ae>
  405f1c:	9a02      	ldr	r2, [sp, #8]
  405f1e:	2a0e      	cmp	r2, #14
  405f20:	f300 80d5 	bgt.w	4060ce <_dtoa_r+0x3ae>
  405f24:	4b2d      	ldr	r3, [pc, #180]	; (405fdc <_dtoa_r+0x2bc>)
  405f26:	eb03 03c2 	add.w	r3, r3, r2, lsl #3
  405f2a:	e9d3 2300 	ldrd	r2, r3, [r3]
  405f2e:	e9cd 2308 	strd	r2, r3, [sp, #32]
  405f32:	9b25      	ldr	r3, [sp, #148]	; 0x94
  405f34:	2b00      	cmp	r3, #0
  405f36:	f2c0 83ba 	blt.w	4066ae <_dtoa_r+0x98e>
  405f3a:	e9dd 5608 	ldrd	r5, r6, [sp, #32]
  405f3e:	4650      	mov	r0, sl
  405f40:	462a      	mov	r2, r5
  405f42:	4633      	mov	r3, r6
  405f44:	4659      	mov	r1, fp
  405f46:	f002 fe69 	bl	408c1c <__aeabi_ddiv>
  405f4a:	f002 ffed 	bl	408f28 <__aeabi_d2iz>
  405f4e:	4680      	mov	r8, r0
  405f50:	f002 fcd4 	bl	4088fc <__aeabi_i2d>
  405f54:	462a      	mov	r2, r5
  405f56:	4633      	mov	r3, r6
  405f58:	f002 fd36 	bl	4089c8 <__aeabi_dmul>
  405f5c:	460b      	mov	r3, r1
  405f5e:	4602      	mov	r2, r0
  405f60:	4659      	mov	r1, fp
  405f62:	4650      	mov	r0, sl
  405f64:	f002 fb7c 	bl	408660 <__aeabi_dsub>
  405f68:	9d04      	ldr	r5, [sp, #16]
  405f6a:	f108 0330 	add.w	r3, r8, #48	; 0x30
  405f6e:	702b      	strb	r3, [r5, #0]
  405f70:	9b0a      	ldr	r3, [sp, #40]	; 0x28
  405f72:	2b01      	cmp	r3, #1
  405f74:	4606      	mov	r6, r0
  405f76:	460f      	mov	r7, r1
  405f78:	f105 0501 	add.w	r5, r5, #1
  405f7c:	d068      	beq.n	406050 <_dtoa_r+0x330>
  405f7e:	2200      	movs	r2, #0
  405f80:	4b18      	ldr	r3, [pc, #96]	; (405fe4 <_dtoa_r+0x2c4>)
  405f82:	f002 fd21 	bl	4089c8 <__aeabi_dmul>
  405f86:	2200      	movs	r2, #0
  405f88:	2300      	movs	r3, #0
  405f8a:	4606      	mov	r6, r0
  405f8c:	460f      	mov	r7, r1
  405f8e:	f002 ff83 	bl	408e98 <__aeabi_dcmpeq>
  405f92:	2800      	cmp	r0, #0
  405f94:	f040 8088 	bne.w	4060a8 <_dtoa_r+0x388>
  405f98:	f8cd 902c 	str.w	r9, [sp, #44]	; 0x2c
  405f9c:	f04f 0a00 	mov.w	sl, #0
  405fa0:	f8df b040 	ldr.w	fp, [pc, #64]	; 405fe4 <_dtoa_r+0x2c4>
  405fa4:	940c      	str	r4, [sp, #48]	; 0x30
  405fa6:	e9dd 8908 	ldrd	r8, r9, [sp, #32]
  405faa:	e028      	b.n	405ffe <_dtoa_r+0x2de>
  405fac:	f3af 8000 	nop.w
  405fb0:	636f4361 	.word	0x636f4361
  405fb4:	3fd287a7 	.word	0x3fd287a7
  405fb8:	8b60c8b3 	.word	0x8b60c8b3
  405fbc:	3fc68a28 	.word	0x3fc68a28
  405fc0:	509f79fb 	.word	0x509f79fb
  405fc4:	3fd34413 	.word	0x3fd34413
  405fc8:	7ff00000 	.word	0x7ff00000
  405fcc:	004093f9 	.word	0x004093f9
  405fd0:	0040943c 	.word	0x0040943c
  405fd4:	00409448 	.word	0x00409448
  405fd8:	3ff80000 	.word	0x3ff80000
  405fdc:	00409488 	.word	0x00409488
  405fe0:	004093f8 	.word	0x004093f8
  405fe4:	40240000 	.word	0x40240000
  405fe8:	f002 fcee 	bl	4089c8 <__aeabi_dmul>
  405fec:	2200      	movs	r2, #0
  405fee:	2300      	movs	r3, #0
  405ff0:	4606      	mov	r6, r0
  405ff2:	460f      	mov	r7, r1
  405ff4:	f002 ff50 	bl	408e98 <__aeabi_dcmpeq>
  405ff8:	2800      	cmp	r0, #0
  405ffa:	f040 83c1 	bne.w	406780 <_dtoa_r+0xa60>
  405ffe:	4642      	mov	r2, r8
  406000:	464b      	mov	r3, r9
  406002:	4630      	mov	r0, r6
  406004:	4639      	mov	r1, r7
  406006:	f002 fe09 	bl	408c1c <__aeabi_ddiv>
  40600a:	f002 ff8d 	bl	408f28 <__aeabi_d2iz>
  40600e:	4604      	mov	r4, r0
  406010:	f002 fc74 	bl	4088fc <__aeabi_i2d>
  406014:	4642      	mov	r2, r8
  406016:	464b      	mov	r3, r9
  406018:	f002 fcd6 	bl	4089c8 <__aeabi_dmul>
  40601c:	4602      	mov	r2, r0
  40601e:	460b      	mov	r3, r1
  406020:	4630      	mov	r0, r6
  406022:	4639      	mov	r1, r7
  406024:	f002 fb1c 	bl	408660 <__aeabi_dsub>
  406028:	f104 0e30 	add.w	lr, r4, #48	; 0x30
  40602c:	9e04      	ldr	r6, [sp, #16]
  40602e:	f805 eb01 	strb.w	lr, [r5], #1
  406032:	eba5 0e06 	sub.w	lr, r5, r6
  406036:	9e0a      	ldr	r6, [sp, #40]	; 0x28
  406038:	45b6      	cmp	lr, r6
  40603a:	e9cd 0106 	strd	r0, r1, [sp, #24]
  40603e:	4652      	mov	r2, sl
  406040:	465b      	mov	r3, fp
  406042:	d1d1      	bne.n	405fe8 <_dtoa_r+0x2c8>
  406044:	46a0      	mov	r8, r4
  406046:	f8dd 902c 	ldr.w	r9, [sp, #44]	; 0x2c
  40604a:	9c0c      	ldr	r4, [sp, #48]	; 0x30
  40604c:	4606      	mov	r6, r0
  40604e:	460f      	mov	r7, r1
  406050:	4632      	mov	r2, r6
  406052:	463b      	mov	r3, r7
  406054:	4630      	mov	r0, r6
  406056:	4639      	mov	r1, r7
  406058:	f002 fb04 	bl	408664 <__adddf3>
  40605c:	4606      	mov	r6, r0
  40605e:	460f      	mov	r7, r1
  406060:	4602      	mov	r2, r0
  406062:	460b      	mov	r3, r1
  406064:	e9dd 0108 	ldrd	r0, r1, [sp, #32]
  406068:	f002 ff20 	bl	408eac <__aeabi_dcmplt>
  40606c:	b948      	cbnz	r0, 406082 <_dtoa_r+0x362>
  40606e:	4632      	mov	r2, r6
  406070:	463b      	mov	r3, r7
  406072:	e9dd 0108 	ldrd	r0, r1, [sp, #32]
  406076:	f002 ff0f 	bl	408e98 <__aeabi_dcmpeq>
  40607a:	b1a8      	cbz	r0, 4060a8 <_dtoa_r+0x388>
  40607c:	f018 0f01 	tst.w	r8, #1
  406080:	d012      	beq.n	4060a8 <_dtoa_r+0x388>
  406082:	f815 8c01 	ldrb.w	r8, [r5, #-1]
  406086:	9a04      	ldr	r2, [sp, #16]
  406088:	1e6b      	subs	r3, r5, #1
  40608a:	e004      	b.n	406096 <_dtoa_r+0x376>
  40608c:	429a      	cmp	r2, r3
  40608e:	f000 8401 	beq.w	406894 <_dtoa_r+0xb74>
  406092:	f813 8d01 	ldrb.w	r8, [r3, #-1]!
  406096:	f1b8 0f39 	cmp.w	r8, #57	; 0x39
  40609a:	f103 0501 	add.w	r5, r3, #1
  40609e:	d0f5      	beq.n	40608c <_dtoa_r+0x36c>
  4060a0:	f108 0801 	add.w	r8, r8, #1
  4060a4:	f883 8000 	strb.w	r8, [r3]
  4060a8:	4649      	mov	r1, r9
  4060aa:	4620      	mov	r0, r4
  4060ac:	f001 fb9a 	bl	4077e4 <_Bfree>
  4060b0:	2200      	movs	r2, #0
  4060b2:	9b02      	ldr	r3, [sp, #8]
  4060b4:	702a      	strb	r2, [r5, #0]
  4060b6:	9a26      	ldr	r2, [sp, #152]	; 0x98
  4060b8:	3301      	adds	r3, #1
  4060ba:	6013      	str	r3, [r2, #0]
  4060bc:	9b28      	ldr	r3, [sp, #160]	; 0xa0
  4060be:	2b00      	cmp	r3, #0
  4060c0:	f000 839e 	beq.w	406800 <_dtoa_r+0xae0>
  4060c4:	9804      	ldr	r0, [sp, #16]
  4060c6:	601d      	str	r5, [r3, #0]
  4060c8:	b01b      	add	sp, #108	; 0x6c
  4060ca:	e8bd 8ff0 	ldmia.w	sp!, {r4, r5, r6, r7, r8, r9, sl, fp, pc}
  4060ce:	9a0b      	ldr	r2, [sp, #44]	; 0x2c
  4060d0:	2a00      	cmp	r2, #0
  4060d2:	d03e      	beq.n	406152 <_dtoa_r+0x432>
  4060d4:	9a24      	ldr	r2, [sp, #144]	; 0x90
  4060d6:	2a01      	cmp	r2, #1
  4060d8:	f340 8311 	ble.w	4066fe <_dtoa_r+0x9de>
  4060dc:	9b0a      	ldr	r3, [sp, #40]	; 0x28
  4060de:	9a0c      	ldr	r2, [sp, #48]	; 0x30
  4060e0:	1e5f      	subs	r7, r3, #1
  4060e2:	42ba      	cmp	r2, r7
  4060e4:	f2c0 838f 	blt.w	406806 <_dtoa_r+0xae6>
  4060e8:	1bd7      	subs	r7, r2, r7
  4060ea:	9b0a      	ldr	r3, [sp, #40]	; 0x28
  4060ec:	2b00      	cmp	r3, #0
  4060ee:	f2c0 848b 	blt.w	406a08 <_dtoa_r+0xce8>
  4060f2:	9d08      	ldr	r5, [sp, #32]
  4060f4:	9b0a      	ldr	r3, [sp, #40]	; 0x28
  4060f6:	9a08      	ldr	r2, [sp, #32]
  4060f8:	441a      	add	r2, r3
  4060fa:	9208      	str	r2, [sp, #32]
  4060fc:	9a06      	ldr	r2, [sp, #24]
  4060fe:	2101      	movs	r1, #1
  406100:	441a      	add	r2, r3
  406102:	4620      	mov	r0, r4
  406104:	9206      	str	r2, [sp, #24]
  406106:	f001 fc07 	bl	407918 <__i2b>
  40610a:	4606      	mov	r6, r0
  40610c:	e024      	b.n	406158 <_dtoa_r+0x438>
  40610e:	2301      	movs	r3, #1
  406110:	930e      	str	r3, [sp, #56]	; 0x38
  406112:	e6af      	b.n	405e74 <_dtoa_r+0x154>
  406114:	9a08      	ldr	r2, [sp, #32]
  406116:	9b02      	ldr	r3, [sp, #8]
  406118:	1ad2      	subs	r2, r2, r3
  40611a:	425b      	negs	r3, r3
  40611c:	930c      	str	r3, [sp, #48]	; 0x30
  40611e:	2300      	movs	r3, #0
  406120:	9208      	str	r2, [sp, #32]
  406122:	930d      	str	r3, [sp, #52]	; 0x34
  406124:	e6b8      	b.n	405e98 <_dtoa_r+0x178>
  406126:	f1c7 0301 	rsb	r3, r7, #1
  40612a:	9308      	str	r3, [sp, #32]
  40612c:	2300      	movs	r3, #0
  40612e:	9306      	str	r3, [sp, #24]
  406130:	e6a7      	b.n	405e82 <_dtoa_r+0x162>
  406132:	9d02      	ldr	r5, [sp, #8]
  406134:	4628      	mov	r0, r5
  406136:	f002 fbe1 	bl	4088fc <__aeabi_i2d>
  40613a:	4602      	mov	r2, r0
  40613c:	460b      	mov	r3, r1
  40613e:	e9dd 0104 	ldrd	r0, r1, [sp, #16]
  406142:	f002 fea9 	bl	408e98 <__aeabi_dcmpeq>
  406146:	2800      	cmp	r0, #0
  406148:	f47f ae80 	bne.w	405e4c <_dtoa_r+0x12c>
  40614c:	1e6b      	subs	r3, r5, #1
  40614e:	9302      	str	r3, [sp, #8]
  406150:	e67c      	b.n	405e4c <_dtoa_r+0x12c>
  406152:	9f0c      	ldr	r7, [sp, #48]	; 0x30
  406154:	9d08      	ldr	r5, [sp, #32]
  406156:	9e0b      	ldr	r6, [sp, #44]	; 0x2c
  406158:	2d00      	cmp	r5, #0
  40615a:	dd0c      	ble.n	406176 <_dtoa_r+0x456>
  40615c:	9906      	ldr	r1, [sp, #24]
  40615e:	2900      	cmp	r1, #0
  406160:	460b      	mov	r3, r1
  406162:	dd08      	ble.n	406176 <_dtoa_r+0x456>
  406164:	42a9      	cmp	r1, r5
  406166:	9a08      	ldr	r2, [sp, #32]
  406168:	bfa8      	it	ge
  40616a:	462b      	movge	r3, r5
  40616c:	1ad2      	subs	r2, r2, r3
  40616e:	1aed      	subs	r5, r5, r3
  406170:	1acb      	subs	r3, r1, r3
  406172:	9208      	str	r2, [sp, #32]
  406174:	9306      	str	r3, [sp, #24]
  406176:	9b0c      	ldr	r3, [sp, #48]	; 0x30
  406178:	b1d3      	cbz	r3, 4061b0 <_dtoa_r+0x490>
  40617a:	9b0b      	ldr	r3, [sp, #44]	; 0x2c
  40617c:	2b00      	cmp	r3, #0
  40617e:	f000 82b7 	beq.w	4066f0 <_dtoa_r+0x9d0>
  406182:	2f00      	cmp	r7, #0
  406184:	dd10      	ble.n	4061a8 <_dtoa_r+0x488>
  406186:	4631      	mov	r1, r6
  406188:	463a      	mov	r2, r7
  40618a:	4620      	mov	r0, r4
  40618c:	f001 fc60 	bl	407a50 <__pow5mult>
  406190:	464a      	mov	r2, r9
  406192:	4601      	mov	r1, r0
  406194:	4606      	mov	r6, r0
  406196:	4620      	mov	r0, r4
  406198:	f001 fbc8 	bl	40792c <__multiply>
  40619c:	4649      	mov	r1, r9
  40619e:	4680      	mov	r8, r0
  4061a0:	4620      	mov	r0, r4
  4061a2:	f001 fb1f 	bl	4077e4 <_Bfree>
  4061a6:	46c1      	mov	r9, r8
  4061a8:	9b0c      	ldr	r3, [sp, #48]	; 0x30
  4061aa:	1bda      	subs	r2, r3, r7
  4061ac:	f040 82a1 	bne.w	4066f2 <_dtoa_r+0x9d2>
  4061b0:	2101      	movs	r1, #1
  4061b2:	4620      	mov	r0, r4
  4061b4:	f001 fbb0 	bl	407918 <__i2b>
  4061b8:	9b0d      	ldr	r3, [sp, #52]	; 0x34
  4061ba:	2b00      	cmp	r3, #0
  4061bc:	4680      	mov	r8, r0
  4061be:	dd1c      	ble.n	4061fa <_dtoa_r+0x4da>
  4061c0:	4601      	mov	r1, r0
  4061c2:	461a      	mov	r2, r3
  4061c4:	4620      	mov	r0, r4
  4061c6:	f001 fc43 	bl	407a50 <__pow5mult>
  4061ca:	9b24      	ldr	r3, [sp, #144]	; 0x90
  4061cc:	2b01      	cmp	r3, #1
  4061ce:	4680      	mov	r8, r0
  4061d0:	f340 8254 	ble.w	40667c <_dtoa_r+0x95c>
  4061d4:	2300      	movs	r3, #0
  4061d6:	930c      	str	r3, [sp, #48]	; 0x30
  4061d8:	f8d8 3010 	ldr.w	r3, [r8, #16]
  4061dc:	eb08 0383 	add.w	r3, r8, r3, lsl #2
  4061e0:	6918      	ldr	r0, [r3, #16]
  4061e2:	f001 fb49 	bl	407878 <__hi0bits>
  4061e6:	f1c0 0020 	rsb	r0, r0, #32
  4061ea:	e010      	b.n	40620e <_dtoa_r+0x4ee>
  4061ec:	f1c3 0520 	rsb	r5, r3, #32
  4061f0:	fa0a f005 	lsl.w	r0, sl, r5
  4061f4:	e674      	b.n	405ee0 <_dtoa_r+0x1c0>
  4061f6:	900e      	str	r0, [sp, #56]	; 0x38
  4061f8:	e63c      	b.n	405e74 <_dtoa_r+0x154>
  4061fa:	9b24      	ldr	r3, [sp, #144]	; 0x90
  4061fc:	2b01      	cmp	r3, #1
  4061fe:	f340 8287 	ble.w	406710 <_dtoa_r+0x9f0>
  406202:	2300      	movs	r3, #0
  406204:	930c      	str	r3, [sp, #48]	; 0x30
  406206:	9b0d      	ldr	r3, [sp, #52]	; 0x34
  406208:	2001      	movs	r0, #1
  40620a:	2b00      	cmp	r3, #0
  40620c:	d1e4      	bne.n	4061d8 <_dtoa_r+0x4b8>
  40620e:	9a06      	ldr	r2, [sp, #24]
  406210:	4410      	add	r0, r2
  406212:	f010 001f 	ands.w	r0, r0, #31
  406216:	f000 80a1 	beq.w	40635c <_dtoa_r+0x63c>
  40621a:	f1c0 0320 	rsb	r3, r0, #32
  40621e:	2b04      	cmp	r3, #4
  406220:	f340 849e 	ble.w	406b60 <_dtoa_r+0xe40>
  406224:	9b08      	ldr	r3, [sp, #32]
  406226:	f1c0 001c 	rsb	r0, r0, #28
  40622a:	4403      	add	r3, r0
  40622c:	9308      	str	r3, [sp, #32]
  40622e:	4613      	mov	r3, r2
  406230:	4403      	add	r3, r0
  406232:	4405      	add	r5, r0
  406234:	9306      	str	r3, [sp, #24]
  406236:	9b08      	ldr	r3, [sp, #32]
  406238:	2b00      	cmp	r3, #0
  40623a:	dd05      	ble.n	406248 <_dtoa_r+0x528>
  40623c:	4649      	mov	r1, r9
  40623e:	461a      	mov	r2, r3
  406240:	4620      	mov	r0, r4
  406242:	f001 fc55 	bl	407af0 <__lshift>
  406246:	4681      	mov	r9, r0
  406248:	9b06      	ldr	r3, [sp, #24]
  40624a:	2b00      	cmp	r3, #0
  40624c:	dd05      	ble.n	40625a <_dtoa_r+0x53a>
  40624e:	4641      	mov	r1, r8
  406250:	461a      	mov	r2, r3
  406252:	4620      	mov	r0, r4
  406254:	f001 fc4c 	bl	407af0 <__lshift>
  406258:	4680      	mov	r8, r0
  40625a:	9b0e      	ldr	r3, [sp, #56]	; 0x38
  40625c:	2b00      	cmp	r3, #0
  40625e:	f040 8086 	bne.w	40636e <_dtoa_r+0x64e>
  406262:	9b0a      	ldr	r3, [sp, #40]	; 0x28
  406264:	2b00      	cmp	r3, #0
  406266:	f340 8266 	ble.w	406736 <_dtoa_r+0xa16>
  40626a:	9b0b      	ldr	r3, [sp, #44]	; 0x2c
  40626c:	2b00      	cmp	r3, #0
  40626e:	f000 8098 	beq.w	4063a2 <_dtoa_r+0x682>
  406272:	2d00      	cmp	r5, #0
  406274:	dd05      	ble.n	406282 <_dtoa_r+0x562>
  406276:	4631      	mov	r1, r6
  406278:	462a      	mov	r2, r5
  40627a:	4620      	mov	r0, r4
  40627c:	f001 fc38 	bl	407af0 <__lshift>
  406280:	4606      	mov	r6, r0
  406282:	9b0c      	ldr	r3, [sp, #48]	; 0x30
  406284:	2b00      	cmp	r3, #0
  406286:	f040 8337 	bne.w	4068f8 <_dtoa_r+0xbd8>
  40628a:	9606      	str	r6, [sp, #24]
  40628c:	9b0a      	ldr	r3, [sp, #40]	; 0x28
  40628e:	9a04      	ldr	r2, [sp, #16]
  406290:	f8dd b018 	ldr.w	fp, [sp, #24]
  406294:	3b01      	subs	r3, #1
  406296:	18d3      	adds	r3, r2, r3
  406298:	930b      	str	r3, [sp, #44]	; 0x2c
  40629a:	f00a 0301 	and.w	r3, sl, #1
  40629e:	930c      	str	r3, [sp, #48]	; 0x30
  4062a0:	4617      	mov	r7, r2
  4062a2:	46c2      	mov	sl, r8
  4062a4:	4651      	mov	r1, sl
  4062a6:	4648      	mov	r0, r9
  4062a8:	f7ff fca4 	bl	405bf4 <quorem>
  4062ac:	4631      	mov	r1, r6
  4062ae:	4605      	mov	r5, r0
  4062b0:	4648      	mov	r0, r9
  4062b2:	f001 fc6f 	bl	407b94 <__mcmp>
  4062b6:	465a      	mov	r2, fp
  4062b8:	900a      	str	r0, [sp, #40]	; 0x28
  4062ba:	4651      	mov	r1, sl
  4062bc:	4620      	mov	r0, r4
  4062be:	f001 fc85 	bl	407bcc <__mdiff>
  4062c2:	68c2      	ldr	r2, [r0, #12]
  4062c4:	4680      	mov	r8, r0
  4062c6:	f105 0330 	add.w	r3, r5, #48	; 0x30
  4062ca:	2a00      	cmp	r2, #0
  4062cc:	f040 822b 	bne.w	406726 <_dtoa_r+0xa06>
  4062d0:	4601      	mov	r1, r0
  4062d2:	4648      	mov	r0, r9
  4062d4:	9308      	str	r3, [sp, #32]
  4062d6:	f001 fc5d 	bl	407b94 <__mcmp>
  4062da:	4641      	mov	r1, r8
  4062dc:	9006      	str	r0, [sp, #24]
  4062de:	4620      	mov	r0, r4
  4062e0:	f001 fa80 	bl	4077e4 <_Bfree>
  4062e4:	9a06      	ldr	r2, [sp, #24]
  4062e6:	9b08      	ldr	r3, [sp, #32]
  4062e8:	b932      	cbnz	r2, 4062f8 <_dtoa_r+0x5d8>
  4062ea:	9924      	ldr	r1, [sp, #144]	; 0x90
  4062ec:	b921      	cbnz	r1, 4062f8 <_dtoa_r+0x5d8>
  4062ee:	9a0c      	ldr	r2, [sp, #48]	; 0x30
  4062f0:	2a00      	cmp	r2, #0
  4062f2:	f000 83ef 	beq.w	406ad4 <_dtoa_r+0xdb4>
  4062f6:	9a24      	ldr	r2, [sp, #144]	; 0x90
  4062f8:	990a      	ldr	r1, [sp, #40]	; 0x28
  4062fa:	2900      	cmp	r1, #0
  4062fc:	f2c0 829f 	blt.w	40683e <_dtoa_r+0xb1e>
  406300:	d105      	bne.n	40630e <_dtoa_r+0x5ee>
  406302:	9924      	ldr	r1, [sp, #144]	; 0x90
  406304:	b919      	cbnz	r1, 40630e <_dtoa_r+0x5ee>
  406306:	990c      	ldr	r1, [sp, #48]	; 0x30
  406308:	2900      	cmp	r1, #0
  40630a:	f000 8298 	beq.w	40683e <_dtoa_r+0xb1e>
  40630e:	2a00      	cmp	r2, #0
  406310:	f300 8306 	bgt.w	406920 <_dtoa_r+0xc00>
  406314:	9a0b      	ldr	r2, [sp, #44]	; 0x2c
  406316:	703b      	strb	r3, [r7, #0]
  406318:	f107 0801 	add.w	r8, r7, #1
  40631c:	4297      	cmp	r7, r2
  40631e:	4645      	mov	r5, r8
  406320:	f000 830c 	beq.w	40693c <_dtoa_r+0xc1c>
  406324:	4649      	mov	r1, r9
  406326:	2300      	movs	r3, #0
  406328:	220a      	movs	r2, #10
  40632a:	4620      	mov	r0, r4
  40632c:	f001 fa64 	bl	4077f8 <__multadd>
  406330:	455e      	cmp	r6, fp
  406332:	4681      	mov	r9, r0
  406334:	4631      	mov	r1, r6
  406336:	f04f 0300 	mov.w	r3, #0
  40633a:	f04f 020a 	mov.w	r2, #10
  40633e:	4620      	mov	r0, r4
  406340:	f000 81eb 	beq.w	40671a <_dtoa_r+0x9fa>
  406344:	f001 fa58 	bl	4077f8 <__multadd>
  406348:	4659      	mov	r1, fp
  40634a:	4606      	mov	r6, r0
  40634c:	2300      	movs	r3, #0
  40634e:	220a      	movs	r2, #10
  406350:	4620      	mov	r0, r4
  406352:	f001 fa51 	bl	4077f8 <__multadd>
  406356:	4647      	mov	r7, r8
  406358:	4683      	mov	fp, r0
  40635a:	e7a3      	b.n	4062a4 <_dtoa_r+0x584>
  40635c:	201c      	movs	r0, #28
  40635e:	9b08      	ldr	r3, [sp, #32]
  406360:	4403      	add	r3, r0
  406362:	9308      	str	r3, [sp, #32]
  406364:	9b06      	ldr	r3, [sp, #24]
  406366:	4403      	add	r3, r0
  406368:	4405      	add	r5, r0
  40636a:	9306      	str	r3, [sp, #24]
  40636c:	e763      	b.n	406236 <_dtoa_r+0x516>
  40636e:	4641      	mov	r1, r8
  406370:	4648      	mov	r0, r9
  406372:	f001 fc0f 	bl	407b94 <__mcmp>
  406376:	2800      	cmp	r0, #0
  406378:	f6bf af73 	bge.w	406262 <_dtoa_r+0x542>
  40637c:	9f02      	ldr	r7, [sp, #8]
  40637e:	4649      	mov	r1, r9
  406380:	2300      	movs	r3, #0
  406382:	220a      	movs	r2, #10
  406384:	4620      	mov	r0, r4
  406386:	3f01      	subs	r7, #1
  406388:	9702      	str	r7, [sp, #8]
  40638a:	f001 fa35 	bl	4077f8 <__multadd>
  40638e:	9b0b      	ldr	r3, [sp, #44]	; 0x2c
  406390:	4681      	mov	r9, r0
  406392:	2b00      	cmp	r3, #0
  406394:	f040 83b6 	bne.w	406b04 <_dtoa_r+0xde4>
  406398:	9b0f      	ldr	r3, [sp, #60]	; 0x3c
  40639a:	2b00      	cmp	r3, #0
  40639c:	f340 83bf 	ble.w	406b1e <_dtoa_r+0xdfe>
  4063a0:	930a      	str	r3, [sp, #40]	; 0x28
  4063a2:	f8dd b010 	ldr.w	fp, [sp, #16]
  4063a6:	9f0a      	ldr	r7, [sp, #40]	; 0x28
  4063a8:	465d      	mov	r5, fp
  4063aa:	e002      	b.n	4063b2 <_dtoa_r+0x692>
  4063ac:	f001 fa24 	bl	4077f8 <__multadd>
  4063b0:	4681      	mov	r9, r0
  4063b2:	4641      	mov	r1, r8
  4063b4:	4648      	mov	r0, r9
  4063b6:	f7ff fc1d 	bl	405bf4 <quorem>
  4063ba:	f100 0a30 	add.w	sl, r0, #48	; 0x30
  4063be:	f805 ab01 	strb.w	sl, [r5], #1
  4063c2:	eba5 030b 	sub.w	r3, r5, fp
  4063c6:	42bb      	cmp	r3, r7
  4063c8:	f04f 020a 	mov.w	r2, #10
  4063cc:	f04f 0300 	mov.w	r3, #0
  4063d0:	4649      	mov	r1, r9
  4063d2:	4620      	mov	r0, r4
  4063d4:	dbea      	blt.n	4063ac <_dtoa_r+0x68c>
  4063d6:	9b04      	ldr	r3, [sp, #16]
  4063d8:	9a0a      	ldr	r2, [sp, #40]	; 0x28
  4063da:	2a01      	cmp	r2, #1
  4063dc:	bfac      	ite	ge
  4063de:	189b      	addge	r3, r3, r2
  4063e0:	3301      	addlt	r3, #1
  4063e2:	461d      	mov	r5, r3
  4063e4:	f04f 0b00 	mov.w	fp, #0
  4063e8:	4649      	mov	r1, r9
  4063ea:	2201      	movs	r2, #1
  4063ec:	4620      	mov	r0, r4
  4063ee:	f001 fb7f 	bl	407af0 <__lshift>
  4063f2:	4641      	mov	r1, r8
  4063f4:	4681      	mov	r9, r0
  4063f6:	f001 fbcd 	bl	407b94 <__mcmp>
  4063fa:	2800      	cmp	r0, #0
  4063fc:	f340 823d 	ble.w	40687a <_dtoa_r+0xb5a>
  406400:	f815 2c01 	ldrb.w	r2, [r5, #-1]
  406404:	9904      	ldr	r1, [sp, #16]
  406406:	1e6b      	subs	r3, r5, #1
  406408:	e004      	b.n	406414 <_dtoa_r+0x6f4>
  40640a:	428b      	cmp	r3, r1
  40640c:	f000 81ae 	beq.w	40676c <_dtoa_r+0xa4c>
  406410:	f813 2d01 	ldrb.w	r2, [r3, #-1]!
  406414:	2a39      	cmp	r2, #57	; 0x39
  406416:	f103 0501 	add.w	r5, r3, #1
  40641a:	d0f6      	beq.n	40640a <_dtoa_r+0x6ea>
  40641c:	3201      	adds	r2, #1
  40641e:	701a      	strb	r2, [r3, #0]
  406420:	4641      	mov	r1, r8
  406422:	4620      	mov	r0, r4
  406424:	f001 f9de 	bl	4077e4 <_Bfree>
  406428:	2e00      	cmp	r6, #0
  40642a:	f43f ae3d 	beq.w	4060a8 <_dtoa_r+0x388>
  40642e:	f1bb 0f00 	cmp.w	fp, #0
  406432:	d005      	beq.n	406440 <_dtoa_r+0x720>
  406434:	45b3      	cmp	fp, r6
  406436:	d003      	beq.n	406440 <_dtoa_r+0x720>
  406438:	4659      	mov	r1, fp
  40643a:	4620      	mov	r0, r4
  40643c:	f001 f9d2 	bl	4077e4 <_Bfree>
  406440:	4631      	mov	r1, r6
  406442:	4620      	mov	r0, r4
  406444:	f001 f9ce 	bl	4077e4 <_Bfree>
  406448:	e62e      	b.n	4060a8 <_dtoa_r+0x388>
  40644a:	2300      	movs	r3, #0
  40644c:	930b      	str	r3, [sp, #44]	; 0x2c
  40644e:	9b02      	ldr	r3, [sp, #8]
  406450:	9a25      	ldr	r2, [sp, #148]	; 0x94
  406452:	4413      	add	r3, r2
  406454:	930f      	str	r3, [sp, #60]	; 0x3c
  406456:	3301      	adds	r3, #1
  406458:	2b01      	cmp	r3, #1
  40645a:	461f      	mov	r7, r3
  40645c:	461e      	mov	r6, r3
  40645e:	930a      	str	r3, [sp, #40]	; 0x28
  406460:	bfb8      	it	lt
  406462:	2701      	movlt	r7, #1
  406464:	2100      	movs	r1, #0
  406466:	2f17      	cmp	r7, #23
  406468:	6461      	str	r1, [r4, #68]	; 0x44
  40646a:	d90a      	bls.n	406482 <_dtoa_r+0x762>
  40646c:	2201      	movs	r2, #1
  40646e:	2304      	movs	r3, #4
  406470:	005b      	lsls	r3, r3, #1
  406472:	f103 0014 	add.w	r0, r3, #20
  406476:	4287      	cmp	r7, r0
  406478:	4611      	mov	r1, r2
  40647a:	f102 0201 	add.w	r2, r2, #1
  40647e:	d2f7      	bcs.n	406470 <_dtoa_r+0x750>
  406480:	6461      	str	r1, [r4, #68]	; 0x44
  406482:	4620      	mov	r0, r4
  406484:	f001 f988 	bl	407798 <_Balloc>
  406488:	2e0e      	cmp	r6, #14
  40648a:	9004      	str	r0, [sp, #16]
  40648c:	6420      	str	r0, [r4, #64]	; 0x40
  40648e:	f63f ad41 	bhi.w	405f14 <_dtoa_r+0x1f4>
  406492:	2d00      	cmp	r5, #0
  406494:	f43f ad3e 	beq.w	405f14 <_dtoa_r+0x1f4>
  406498:	9902      	ldr	r1, [sp, #8]
  40649a:	2900      	cmp	r1, #0
  40649c:	e9cd ab10 	strd	sl, fp, [sp, #64]	; 0x40
  4064a0:	f340 8202 	ble.w	4068a8 <_dtoa_r+0xb88>
  4064a4:	4bb8      	ldr	r3, [pc, #736]	; (406788 <_dtoa_r+0xa68>)
  4064a6:	f001 020f 	and.w	r2, r1, #15
  4064aa:	110d      	asrs	r5, r1, #4
  4064ac:	eb03 03c2 	add.w	r3, r3, r2, lsl #3
  4064b0:	06e9      	lsls	r1, r5, #27
  4064b2:	e9d3 6700 	ldrd	r6, r7, [r3]
  4064b6:	f140 81ae 	bpl.w	406816 <_dtoa_r+0xaf6>
  4064ba:	4bb4      	ldr	r3, [pc, #720]	; (40678c <_dtoa_r+0xa6c>)
  4064bc:	4650      	mov	r0, sl
  4064be:	4659      	mov	r1, fp
  4064c0:	e9d3 2308 	ldrd	r2, r3, [r3, #32]
  4064c4:	f002 fbaa 	bl	408c1c <__aeabi_ddiv>
  4064c8:	e9cd 0112 	strd	r0, r1, [sp, #72]	; 0x48
  4064cc:	f005 050f 	and.w	r5, r5, #15
  4064d0:	f04f 0a03 	mov.w	sl, #3
  4064d4:	b18d      	cbz	r5, 4064fa <_dtoa_r+0x7da>
  4064d6:	f8df 82b4 	ldr.w	r8, [pc, #692]	; 40678c <_dtoa_r+0xa6c>
  4064da:	07ea      	lsls	r2, r5, #31
  4064dc:	d509      	bpl.n	4064f2 <_dtoa_r+0x7d2>
  4064de:	4630      	mov	r0, r6
  4064e0:	4639      	mov	r1, r7
  4064e2:	e9d8 2300 	ldrd	r2, r3, [r8]
  4064e6:	f002 fa6f 	bl	4089c8 <__aeabi_dmul>
  4064ea:	f10a 0a01 	add.w	sl, sl, #1
  4064ee:	4606      	mov	r6, r0
  4064f0:	460f      	mov	r7, r1
  4064f2:	106d      	asrs	r5, r5, #1
  4064f4:	f108 0808 	add.w	r8, r8, #8
  4064f8:	d1ef      	bne.n	4064da <_dtoa_r+0x7ba>
  4064fa:	463b      	mov	r3, r7
  4064fc:	4632      	mov	r2, r6
  4064fe:	e9dd 0112 	ldrd	r0, r1, [sp, #72]	; 0x48
  406502:	f002 fb8b 	bl	408c1c <__aeabi_ddiv>
  406506:	4607      	mov	r7, r0
  406508:	4688      	mov	r8, r1
  40650a:	9b0e      	ldr	r3, [sp, #56]	; 0x38
  40650c:	b143      	cbz	r3, 406520 <_dtoa_r+0x800>
  40650e:	2200      	movs	r2, #0
  406510:	4b9f      	ldr	r3, [pc, #636]	; (406790 <_dtoa_r+0xa70>)
  406512:	4638      	mov	r0, r7
  406514:	4641      	mov	r1, r8
  406516:	f002 fcc9 	bl	408eac <__aeabi_dcmplt>
  40651a:	2800      	cmp	r0, #0
  40651c:	f040 8286 	bne.w	406a2c <_dtoa_r+0xd0c>
  406520:	4650      	mov	r0, sl
  406522:	f002 f9eb 	bl	4088fc <__aeabi_i2d>
  406526:	463a      	mov	r2, r7
  406528:	4643      	mov	r3, r8
  40652a:	f002 fa4d 	bl	4089c8 <__aeabi_dmul>
  40652e:	4b99      	ldr	r3, [pc, #612]	; (406794 <_dtoa_r+0xa74>)
  406530:	2200      	movs	r2, #0
  406532:	f002 f897 	bl	408664 <__adddf3>
  406536:	9b0a      	ldr	r3, [sp, #40]	; 0x28
  406538:	4605      	mov	r5, r0
  40653a:	f1a1 7650 	sub.w	r6, r1, #54525952	; 0x3400000
  40653e:	2b00      	cmp	r3, #0
  406540:	f000 813e 	beq.w	4067c0 <_dtoa_r+0xaa0>
  406544:	9b02      	ldr	r3, [sp, #8]
  406546:	9315      	str	r3, [sp, #84]	; 0x54
  406548:	9b0a      	ldr	r3, [sp, #40]	; 0x28
  40654a:	9312      	str	r3, [sp, #72]	; 0x48
  40654c:	9b0b      	ldr	r3, [sp, #44]	; 0x2c
  40654e:	2b00      	cmp	r3, #0
  406550:	f000 81fa 	beq.w	406948 <_dtoa_r+0xc28>
  406554:	9a12      	ldr	r2, [sp, #72]	; 0x48
  406556:	4b8c      	ldr	r3, [pc, #560]	; (406788 <_dtoa_r+0xa68>)
  406558:	498f      	ldr	r1, [pc, #572]	; (406798 <_dtoa_r+0xa78>)
  40655a:	eb03 03c2 	add.w	r3, r3, r2, lsl #3
  40655e:	e953 2302 	ldrd	r2, r3, [r3, #-8]
  406562:	2000      	movs	r0, #0
  406564:	f002 fb5a 	bl	408c1c <__aeabi_ddiv>
  406568:	462a      	mov	r2, r5
  40656a:	4633      	mov	r3, r6
  40656c:	f002 f878 	bl	408660 <__aeabi_dsub>
  406570:	4682      	mov	sl, r0
  406572:	468b      	mov	fp, r1
  406574:	4638      	mov	r0, r7
  406576:	4641      	mov	r1, r8
  406578:	f002 fcd6 	bl	408f28 <__aeabi_d2iz>
  40657c:	4605      	mov	r5, r0
  40657e:	f002 f9bd 	bl	4088fc <__aeabi_i2d>
  406582:	4602      	mov	r2, r0
  406584:	460b      	mov	r3, r1
  406586:	4638      	mov	r0, r7
  406588:	4641      	mov	r1, r8
  40658a:	f002 f869 	bl	408660 <__aeabi_dsub>
  40658e:	3530      	adds	r5, #48	; 0x30
  406590:	fa5f f885 	uxtb.w	r8, r5
  406594:	9d04      	ldr	r5, [sp, #16]
  406596:	4606      	mov	r6, r0
  406598:	460f      	mov	r7, r1
  40659a:	f885 8000 	strb.w	r8, [r5]
  40659e:	4602      	mov	r2, r0
  4065a0:	460b      	mov	r3, r1
  4065a2:	4650      	mov	r0, sl
  4065a4:	4659      	mov	r1, fp
  4065a6:	3501      	adds	r5, #1
  4065a8:	f002 fc9e 	bl	408ee8 <__aeabi_dcmpgt>
  4065ac:	2800      	cmp	r0, #0
  4065ae:	d154      	bne.n	40665a <_dtoa_r+0x93a>
  4065b0:	4632      	mov	r2, r6
  4065b2:	463b      	mov	r3, r7
  4065b4:	2000      	movs	r0, #0
  4065b6:	4976      	ldr	r1, [pc, #472]	; (406790 <_dtoa_r+0xa70>)
  4065b8:	f002 f852 	bl	408660 <__aeabi_dsub>
  4065bc:	4602      	mov	r2, r0
  4065be:	460b      	mov	r3, r1
  4065c0:	4650      	mov	r0, sl
  4065c2:	4659      	mov	r1, fp
  4065c4:	f002 fc90 	bl	408ee8 <__aeabi_dcmpgt>
  4065c8:	2800      	cmp	r0, #0
  4065ca:	f040 8270 	bne.w	406aae <_dtoa_r+0xd8e>
  4065ce:	9a12      	ldr	r2, [sp, #72]	; 0x48
  4065d0:	2a01      	cmp	r2, #1
  4065d2:	f000 8111 	beq.w	4067f8 <_dtoa_r+0xad8>
  4065d6:	9b12      	ldr	r3, [sp, #72]	; 0x48
  4065d8:	9a04      	ldr	r2, [sp, #16]
  4065da:	f8cd 9048 	str.w	r9, [sp, #72]	; 0x48
  4065de:	4413      	add	r3, r2
  4065e0:	4699      	mov	r9, r3
  4065e2:	e00d      	b.n	406600 <_dtoa_r+0x8e0>
  4065e4:	2000      	movs	r0, #0
  4065e6:	496a      	ldr	r1, [pc, #424]	; (406790 <_dtoa_r+0xa70>)
  4065e8:	f002 f83a 	bl	408660 <__aeabi_dsub>
  4065ec:	4652      	mov	r2, sl
  4065ee:	465b      	mov	r3, fp
  4065f0:	f002 fc5c 	bl	408eac <__aeabi_dcmplt>
  4065f4:	2800      	cmp	r0, #0
  4065f6:	f040 8258 	bne.w	406aaa <_dtoa_r+0xd8a>
  4065fa:	454d      	cmp	r5, r9
  4065fc:	f000 80fa 	beq.w	4067f4 <_dtoa_r+0xad4>
  406600:	4650      	mov	r0, sl
  406602:	4659      	mov	r1, fp
  406604:	2200      	movs	r2, #0
  406606:	4b65      	ldr	r3, [pc, #404]	; (40679c <_dtoa_r+0xa7c>)
  406608:	f002 f9de 	bl	4089c8 <__aeabi_dmul>
  40660c:	2200      	movs	r2, #0
  40660e:	4b63      	ldr	r3, [pc, #396]	; (40679c <_dtoa_r+0xa7c>)
  406610:	4682      	mov	sl, r0
  406612:	468b      	mov	fp, r1
  406614:	4630      	mov	r0, r6
  406616:	4639      	mov	r1, r7
  406618:	f002 f9d6 	bl	4089c8 <__aeabi_dmul>
  40661c:	460f      	mov	r7, r1
  40661e:	4606      	mov	r6, r0
  406620:	f002 fc82 	bl	408f28 <__aeabi_d2iz>
  406624:	4680      	mov	r8, r0
  406626:	f002 f969 	bl	4088fc <__aeabi_i2d>
  40662a:	4602      	mov	r2, r0
  40662c:	460b      	mov	r3, r1
  40662e:	4630      	mov	r0, r6
  406630:	4639      	mov	r1, r7
  406632:	f002 f815 	bl	408660 <__aeabi_dsub>
  406636:	f108 0830 	add.w	r8, r8, #48	; 0x30
  40663a:	fa5f f888 	uxtb.w	r8, r8
  40663e:	4652      	mov	r2, sl
  406640:	465b      	mov	r3, fp
  406642:	f805 8b01 	strb.w	r8, [r5], #1
  406646:	4606      	mov	r6, r0
  406648:	460f      	mov	r7, r1
  40664a:	f002 fc2f 	bl	408eac <__aeabi_dcmplt>
  40664e:	4632      	mov	r2, r6
  406650:	463b      	mov	r3, r7
  406652:	2800      	cmp	r0, #0
  406654:	d0c6      	beq.n	4065e4 <_dtoa_r+0x8c4>
  406656:	f8dd 9048 	ldr.w	r9, [sp, #72]	; 0x48
  40665a:	9b15      	ldr	r3, [sp, #84]	; 0x54
  40665c:	9302      	str	r3, [sp, #8]
  40665e:	e523      	b.n	4060a8 <_dtoa_r+0x388>
  406660:	2300      	movs	r3, #0
  406662:	930b      	str	r3, [sp, #44]	; 0x2c
  406664:	9b25      	ldr	r3, [sp, #148]	; 0x94
  406666:	2b00      	cmp	r3, #0
  406668:	f340 80dc 	ble.w	406824 <_dtoa_r+0xb04>
  40666c:	461f      	mov	r7, r3
  40666e:	461e      	mov	r6, r3
  406670:	930f      	str	r3, [sp, #60]	; 0x3c
  406672:	930a      	str	r3, [sp, #40]	; 0x28
  406674:	e6f6      	b.n	406464 <_dtoa_r+0x744>
  406676:	2301      	movs	r3, #1
  406678:	930b      	str	r3, [sp, #44]	; 0x2c
  40667a:	e7f3      	b.n	406664 <_dtoa_r+0x944>
  40667c:	f1ba 0f00 	cmp.w	sl, #0
  406680:	f47f ada8 	bne.w	4061d4 <_dtoa_r+0x4b4>
  406684:	f3cb 0313 	ubfx	r3, fp, #0, #20
  406688:	2b00      	cmp	r3, #0
  40668a:	f47f adba 	bne.w	406202 <_dtoa_r+0x4e2>
  40668e:	f02b 4700 	bic.w	r7, fp, #2147483648	; 0x80000000
  406692:	0d3f      	lsrs	r7, r7, #20
  406694:	053f      	lsls	r7, r7, #20
  406696:	2f00      	cmp	r7, #0
  406698:	f000 820d 	beq.w	406ab6 <_dtoa_r+0xd96>
  40669c:	9b08      	ldr	r3, [sp, #32]
  40669e:	3301      	adds	r3, #1
  4066a0:	9308      	str	r3, [sp, #32]
  4066a2:	9b06      	ldr	r3, [sp, #24]
  4066a4:	3301      	adds	r3, #1
  4066a6:	9306      	str	r3, [sp, #24]
  4066a8:	2301      	movs	r3, #1
  4066aa:	930c      	str	r3, [sp, #48]	; 0x30
  4066ac:	e5ab      	b.n	406206 <_dtoa_r+0x4e6>
  4066ae:	9b0a      	ldr	r3, [sp, #40]	; 0x28
  4066b0:	2b00      	cmp	r3, #0
  4066b2:	f73f ac42 	bgt.w	405f3a <_dtoa_r+0x21a>
  4066b6:	f040 8221 	bne.w	406afc <_dtoa_r+0xddc>
  4066ba:	2200      	movs	r2, #0
  4066bc:	4b38      	ldr	r3, [pc, #224]	; (4067a0 <_dtoa_r+0xa80>)
  4066be:	e9dd 0108 	ldrd	r0, r1, [sp, #32]
  4066c2:	f002 f981 	bl	4089c8 <__aeabi_dmul>
  4066c6:	4652      	mov	r2, sl
  4066c8:	465b      	mov	r3, fp
  4066ca:	f002 fc03 	bl	408ed4 <__aeabi_dcmpge>
  4066ce:	f8dd 8028 	ldr.w	r8, [sp, #40]	; 0x28
  4066d2:	4646      	mov	r6, r8
  4066d4:	2800      	cmp	r0, #0
  4066d6:	d041      	beq.n	40675c <_dtoa_r+0xa3c>
  4066d8:	9b25      	ldr	r3, [sp, #148]	; 0x94
  4066da:	9d04      	ldr	r5, [sp, #16]
  4066dc:	43db      	mvns	r3, r3
  4066de:	9302      	str	r3, [sp, #8]
  4066e0:	4641      	mov	r1, r8
  4066e2:	4620      	mov	r0, r4
  4066e4:	f001 f87e 	bl	4077e4 <_Bfree>
  4066e8:	2e00      	cmp	r6, #0
  4066ea:	f43f acdd 	beq.w	4060a8 <_dtoa_r+0x388>
  4066ee:	e6a7      	b.n	406440 <_dtoa_r+0x720>
  4066f0:	9a0c      	ldr	r2, [sp, #48]	; 0x30
  4066f2:	4649      	mov	r1, r9
  4066f4:	4620      	mov	r0, r4
  4066f6:	f001 f9ab 	bl	407a50 <__pow5mult>
  4066fa:	4681      	mov	r9, r0
  4066fc:	e558      	b.n	4061b0 <_dtoa_r+0x490>
  4066fe:	9a14      	ldr	r2, [sp, #80]	; 0x50
  406700:	2a00      	cmp	r2, #0
  406702:	f000 8187 	beq.w	406a14 <_dtoa_r+0xcf4>
  406706:	f203 4333 	addw	r3, r3, #1075	; 0x433
  40670a:	9f0c      	ldr	r7, [sp, #48]	; 0x30
  40670c:	9d08      	ldr	r5, [sp, #32]
  40670e:	e4f2      	b.n	4060f6 <_dtoa_r+0x3d6>
  406710:	f1ba 0f00 	cmp.w	sl, #0
  406714:	f47f ad75 	bne.w	406202 <_dtoa_r+0x4e2>
  406718:	e7b4      	b.n	406684 <_dtoa_r+0x964>
  40671a:	f001 f86d 	bl	4077f8 <__multadd>
  40671e:	4647      	mov	r7, r8
  406720:	4606      	mov	r6, r0
  406722:	4683      	mov	fp, r0
  406724:	e5be      	b.n	4062a4 <_dtoa_r+0x584>
  406726:	4601      	mov	r1, r0
  406728:	4620      	mov	r0, r4
  40672a:	9306      	str	r3, [sp, #24]
  40672c:	f001 f85a 	bl	4077e4 <_Bfree>
  406730:	2201      	movs	r2, #1
  406732:	9b06      	ldr	r3, [sp, #24]
  406734:	e5e0      	b.n	4062f8 <_dtoa_r+0x5d8>
  406736:	9b24      	ldr	r3, [sp, #144]	; 0x90
  406738:	2b02      	cmp	r3, #2
  40673a:	f77f ad96 	ble.w	40626a <_dtoa_r+0x54a>
  40673e:	9b0a      	ldr	r3, [sp, #40]	; 0x28
  406740:	2b00      	cmp	r3, #0
  406742:	d1c9      	bne.n	4066d8 <_dtoa_r+0x9b8>
  406744:	4641      	mov	r1, r8
  406746:	2205      	movs	r2, #5
  406748:	4620      	mov	r0, r4
  40674a:	f001 f855 	bl	4077f8 <__multadd>
  40674e:	4601      	mov	r1, r0
  406750:	4680      	mov	r8, r0
  406752:	4648      	mov	r0, r9
  406754:	f001 fa1e 	bl	407b94 <__mcmp>
  406758:	2800      	cmp	r0, #0
  40675a:	ddbd      	ble.n	4066d8 <_dtoa_r+0x9b8>
  40675c:	9a02      	ldr	r2, [sp, #8]
  40675e:	9904      	ldr	r1, [sp, #16]
  406760:	2331      	movs	r3, #49	; 0x31
  406762:	3201      	adds	r2, #1
  406764:	9202      	str	r2, [sp, #8]
  406766:	700b      	strb	r3, [r1, #0]
  406768:	1c4d      	adds	r5, r1, #1
  40676a:	e7b9      	b.n	4066e0 <_dtoa_r+0x9c0>
  40676c:	9a02      	ldr	r2, [sp, #8]
  40676e:	3201      	adds	r2, #1
  406770:	9202      	str	r2, [sp, #8]
  406772:	9a04      	ldr	r2, [sp, #16]
  406774:	2331      	movs	r3, #49	; 0x31
  406776:	7013      	strb	r3, [r2, #0]
  406778:	e652      	b.n	406420 <_dtoa_r+0x700>
  40677a:	2301      	movs	r3, #1
  40677c:	930b      	str	r3, [sp, #44]	; 0x2c
  40677e:	e666      	b.n	40644e <_dtoa_r+0x72e>
  406780:	f8dd 902c 	ldr.w	r9, [sp, #44]	; 0x2c
  406784:	9c0c      	ldr	r4, [sp, #48]	; 0x30
  406786:	e48f      	b.n	4060a8 <_dtoa_r+0x388>
  406788:	00409488 	.word	0x00409488
  40678c:	00409460 	.word	0x00409460
  406790:	3ff00000 	.word	0x3ff00000
  406794:	401c0000 	.word	0x401c0000
  406798:	3fe00000 	.word	0x3fe00000
  40679c:	40240000 	.word	0x40240000
  4067a0:	40140000 	.word	0x40140000
  4067a4:	4650      	mov	r0, sl
  4067a6:	f002 f8a9 	bl	4088fc <__aeabi_i2d>
  4067aa:	463a      	mov	r2, r7
  4067ac:	4643      	mov	r3, r8
  4067ae:	f002 f90b 	bl	4089c8 <__aeabi_dmul>
  4067b2:	2200      	movs	r2, #0
  4067b4:	4bc1      	ldr	r3, [pc, #772]	; (406abc <_dtoa_r+0xd9c>)
  4067b6:	f001 ff55 	bl	408664 <__adddf3>
  4067ba:	4605      	mov	r5, r0
  4067bc:	f1a1 7650 	sub.w	r6, r1, #54525952	; 0x3400000
  4067c0:	4641      	mov	r1, r8
  4067c2:	2200      	movs	r2, #0
  4067c4:	4bbe      	ldr	r3, [pc, #760]	; (406ac0 <_dtoa_r+0xda0>)
  4067c6:	4638      	mov	r0, r7
  4067c8:	f001 ff4a 	bl	408660 <__aeabi_dsub>
  4067cc:	462a      	mov	r2, r5
  4067ce:	4633      	mov	r3, r6
  4067d0:	4682      	mov	sl, r0
  4067d2:	468b      	mov	fp, r1
  4067d4:	f002 fb88 	bl	408ee8 <__aeabi_dcmpgt>
  4067d8:	4680      	mov	r8, r0
  4067da:	2800      	cmp	r0, #0
  4067dc:	f040 8110 	bne.w	406a00 <_dtoa_r+0xce0>
  4067e0:	462a      	mov	r2, r5
  4067e2:	f106 4300 	add.w	r3, r6, #2147483648	; 0x80000000
  4067e6:	4650      	mov	r0, sl
  4067e8:	4659      	mov	r1, fp
  4067ea:	f002 fb5f 	bl	408eac <__aeabi_dcmplt>
  4067ee:	b118      	cbz	r0, 4067f8 <_dtoa_r+0xad8>
  4067f0:	4646      	mov	r6, r8
  4067f2:	e771      	b.n	4066d8 <_dtoa_r+0x9b8>
  4067f4:	f8dd 9048 	ldr.w	r9, [sp, #72]	; 0x48
  4067f8:	e9dd ab10 	ldrd	sl, fp, [sp, #64]	; 0x40
  4067fc:	f7ff bb8a 	b.w	405f14 <_dtoa_r+0x1f4>
  406800:	9804      	ldr	r0, [sp, #16]
  406802:	f7ff babb 	b.w	405d7c <_dtoa_r+0x5c>
  406806:	9b0c      	ldr	r3, [sp, #48]	; 0x30
  406808:	9a0d      	ldr	r2, [sp, #52]	; 0x34
  40680a:	970c      	str	r7, [sp, #48]	; 0x30
  40680c:	1afb      	subs	r3, r7, r3
  40680e:	441a      	add	r2, r3
  406810:	920d      	str	r2, [sp, #52]	; 0x34
  406812:	2700      	movs	r7, #0
  406814:	e469      	b.n	4060ea <_dtoa_r+0x3ca>
  406816:	e9dd 2310 	ldrd	r2, r3, [sp, #64]	; 0x40
  40681a:	f04f 0a02 	mov.w	sl, #2
  40681e:	e9cd 2312 	strd	r2, r3, [sp, #72]	; 0x48
  406822:	e657      	b.n	4064d4 <_dtoa_r+0x7b4>
  406824:	2100      	movs	r1, #0
  406826:	2301      	movs	r3, #1
  406828:	6461      	str	r1, [r4, #68]	; 0x44
  40682a:	4620      	mov	r0, r4
  40682c:	9325      	str	r3, [sp, #148]	; 0x94
  40682e:	f000 ffb3 	bl	407798 <_Balloc>
  406832:	9b25      	ldr	r3, [sp, #148]	; 0x94
  406834:	9004      	str	r0, [sp, #16]
  406836:	6420      	str	r0, [r4, #64]	; 0x40
  406838:	930a      	str	r3, [sp, #40]	; 0x28
  40683a:	930f      	str	r3, [sp, #60]	; 0x3c
  40683c:	e629      	b.n	406492 <_dtoa_r+0x772>
  40683e:	2a00      	cmp	r2, #0
  406840:	46d0      	mov	r8, sl
  406842:	f8cd b018 	str.w	fp, [sp, #24]
  406846:	469a      	mov	sl, r3
  406848:	dd11      	ble.n	40686e <_dtoa_r+0xb4e>
  40684a:	4649      	mov	r1, r9
  40684c:	2201      	movs	r2, #1
  40684e:	4620      	mov	r0, r4
  406850:	f001 f94e 	bl	407af0 <__lshift>
  406854:	4641      	mov	r1, r8
  406856:	4681      	mov	r9, r0
  406858:	f001 f99c 	bl	407b94 <__mcmp>
  40685c:	2800      	cmp	r0, #0
  40685e:	f340 8146 	ble.w	406aee <_dtoa_r+0xdce>
  406862:	f1ba 0f39 	cmp.w	sl, #57	; 0x39
  406866:	f000 8106 	beq.w	406a76 <_dtoa_r+0xd56>
  40686a:	f105 0a31 	add.w	sl, r5, #49	; 0x31
  40686e:	46b3      	mov	fp, r6
  406870:	f887 a000 	strb.w	sl, [r7]
  406874:	1c7d      	adds	r5, r7, #1
  406876:	9e06      	ldr	r6, [sp, #24]
  406878:	e5d2      	b.n	406420 <_dtoa_r+0x700>
  40687a:	d104      	bne.n	406886 <_dtoa_r+0xb66>
  40687c:	f01a 0f01 	tst.w	sl, #1
  406880:	d001      	beq.n	406886 <_dtoa_r+0xb66>
  406882:	e5bd      	b.n	406400 <_dtoa_r+0x6e0>
  406884:	4615      	mov	r5, r2
  406886:	f815 3c01 	ldrb.w	r3, [r5, #-1]
  40688a:	2b30      	cmp	r3, #48	; 0x30
  40688c:	f105 32ff 	add.w	r2, r5, #4294967295
  406890:	d0f8      	beq.n	406884 <_dtoa_r+0xb64>
  406892:	e5c5      	b.n	406420 <_dtoa_r+0x700>
  406894:	9904      	ldr	r1, [sp, #16]
  406896:	2230      	movs	r2, #48	; 0x30
  406898:	700a      	strb	r2, [r1, #0]
  40689a:	9a02      	ldr	r2, [sp, #8]
  40689c:	f815 8c01 	ldrb.w	r8, [r5, #-1]
  4068a0:	3201      	adds	r2, #1
  4068a2:	9202      	str	r2, [sp, #8]
  4068a4:	f7ff bbfc 	b.w	4060a0 <_dtoa_r+0x380>
  4068a8:	f000 80bb 	beq.w	406a22 <_dtoa_r+0xd02>
  4068ac:	9b02      	ldr	r3, [sp, #8]
  4068ae:	425d      	negs	r5, r3
  4068b0:	4b84      	ldr	r3, [pc, #528]	; (406ac4 <_dtoa_r+0xda4>)
  4068b2:	f005 020f 	and.w	r2, r5, #15
  4068b6:	eb03 03c2 	add.w	r3, r3, r2, lsl #3
  4068ba:	e9d3 2300 	ldrd	r2, r3, [r3]
  4068be:	e9dd 0110 	ldrd	r0, r1, [sp, #64]	; 0x40
  4068c2:	f002 f881 	bl	4089c8 <__aeabi_dmul>
  4068c6:	112d      	asrs	r5, r5, #4
  4068c8:	4607      	mov	r7, r0
  4068ca:	4688      	mov	r8, r1
  4068cc:	f000 812c 	beq.w	406b28 <_dtoa_r+0xe08>
  4068d0:	4e7d      	ldr	r6, [pc, #500]	; (406ac8 <_dtoa_r+0xda8>)
  4068d2:	f04f 0a02 	mov.w	sl, #2
  4068d6:	07eb      	lsls	r3, r5, #31
  4068d8:	d509      	bpl.n	4068ee <_dtoa_r+0xbce>
  4068da:	4638      	mov	r0, r7
  4068dc:	4641      	mov	r1, r8
  4068de:	e9d6 2300 	ldrd	r2, r3, [r6]
  4068e2:	f002 f871 	bl	4089c8 <__aeabi_dmul>
  4068e6:	f10a 0a01 	add.w	sl, sl, #1
  4068ea:	4607      	mov	r7, r0
  4068ec:	4688      	mov	r8, r1
  4068ee:	106d      	asrs	r5, r5, #1
  4068f0:	f106 0608 	add.w	r6, r6, #8
  4068f4:	d1ef      	bne.n	4068d6 <_dtoa_r+0xbb6>
  4068f6:	e608      	b.n	40650a <_dtoa_r+0x7ea>
  4068f8:	6871      	ldr	r1, [r6, #4]
  4068fa:	4620      	mov	r0, r4
  4068fc:	f000 ff4c 	bl	407798 <_Balloc>
  406900:	6933      	ldr	r3, [r6, #16]
  406902:	3302      	adds	r3, #2
  406904:	009a      	lsls	r2, r3, #2
  406906:	4605      	mov	r5, r0
  406908:	f106 010c 	add.w	r1, r6, #12
  40690c:	300c      	adds	r0, #12
  40690e:	f7fc fd31 	bl	403374 <memcpy>
  406912:	4629      	mov	r1, r5
  406914:	2201      	movs	r2, #1
  406916:	4620      	mov	r0, r4
  406918:	f001 f8ea 	bl	407af0 <__lshift>
  40691c:	9006      	str	r0, [sp, #24]
  40691e:	e4b5      	b.n	40628c <_dtoa_r+0x56c>
  406920:	2b39      	cmp	r3, #57	; 0x39
  406922:	f8cd b018 	str.w	fp, [sp, #24]
  406926:	46d0      	mov	r8, sl
  406928:	f000 80a5 	beq.w	406a76 <_dtoa_r+0xd56>
  40692c:	f103 0a01 	add.w	sl, r3, #1
  406930:	46b3      	mov	fp, r6
  406932:	f887 a000 	strb.w	sl, [r7]
  406936:	1c7d      	adds	r5, r7, #1
  406938:	9e06      	ldr	r6, [sp, #24]
  40693a:	e571      	b.n	406420 <_dtoa_r+0x700>
  40693c:	465a      	mov	r2, fp
  40693e:	46d0      	mov	r8, sl
  406940:	46b3      	mov	fp, r6
  406942:	469a      	mov	sl, r3
  406944:	4616      	mov	r6, r2
  406946:	e54f      	b.n	4063e8 <_dtoa_r+0x6c8>
  406948:	9b12      	ldr	r3, [sp, #72]	; 0x48
  40694a:	495e      	ldr	r1, [pc, #376]	; (406ac4 <_dtoa_r+0xda4>)
  40694c:	eb01 01c3 	add.w	r1, r1, r3, lsl #3
  406950:	462a      	mov	r2, r5
  406952:	4633      	mov	r3, r6
  406954:	e951 0102 	ldrd	r0, r1, [r1, #-8]
  406958:	f002 f836 	bl	4089c8 <__aeabi_dmul>
  40695c:	e9cd 0116 	strd	r0, r1, [sp, #88]	; 0x58
  406960:	4638      	mov	r0, r7
  406962:	4641      	mov	r1, r8
  406964:	f002 fae0 	bl	408f28 <__aeabi_d2iz>
  406968:	4605      	mov	r5, r0
  40696a:	f001 ffc7 	bl	4088fc <__aeabi_i2d>
  40696e:	460b      	mov	r3, r1
  406970:	4602      	mov	r2, r0
  406972:	4641      	mov	r1, r8
  406974:	4638      	mov	r0, r7
  406976:	f001 fe73 	bl	408660 <__aeabi_dsub>
  40697a:	9b12      	ldr	r3, [sp, #72]	; 0x48
  40697c:	460f      	mov	r7, r1
  40697e:	9904      	ldr	r1, [sp, #16]
  406980:	3530      	adds	r5, #48	; 0x30
  406982:	2b01      	cmp	r3, #1
  406984:	700d      	strb	r5, [r1, #0]
  406986:	4606      	mov	r6, r0
  406988:	f101 0501 	add.w	r5, r1, #1
  40698c:	d026      	beq.n	4069dc <_dtoa_r+0xcbc>
  40698e:	9b12      	ldr	r3, [sp, #72]	; 0x48
  406990:	9a04      	ldr	r2, [sp, #16]
  406992:	f8df b13c 	ldr.w	fp, [pc, #316]	; 406ad0 <_dtoa_r+0xdb0>
  406996:	f8cd 9048 	str.w	r9, [sp, #72]	; 0x48
  40699a:	4413      	add	r3, r2
  40699c:	f04f 0a00 	mov.w	sl, #0
  4069a0:	4699      	mov	r9, r3
  4069a2:	4652      	mov	r2, sl
  4069a4:	465b      	mov	r3, fp
  4069a6:	4630      	mov	r0, r6
  4069a8:	4639      	mov	r1, r7
  4069aa:	f002 f80d 	bl	4089c8 <__aeabi_dmul>
  4069ae:	460f      	mov	r7, r1
  4069b0:	4606      	mov	r6, r0
  4069b2:	f002 fab9 	bl	408f28 <__aeabi_d2iz>
  4069b6:	4680      	mov	r8, r0
  4069b8:	f001 ffa0 	bl	4088fc <__aeabi_i2d>
  4069bc:	f108 0830 	add.w	r8, r8, #48	; 0x30
  4069c0:	4602      	mov	r2, r0
  4069c2:	460b      	mov	r3, r1
  4069c4:	4630      	mov	r0, r6
  4069c6:	4639      	mov	r1, r7
  4069c8:	f001 fe4a 	bl	408660 <__aeabi_dsub>
  4069cc:	f805 8b01 	strb.w	r8, [r5], #1
  4069d0:	454d      	cmp	r5, r9
  4069d2:	4606      	mov	r6, r0
  4069d4:	460f      	mov	r7, r1
  4069d6:	d1e4      	bne.n	4069a2 <_dtoa_r+0xc82>
  4069d8:	f8dd 9048 	ldr.w	r9, [sp, #72]	; 0x48
  4069dc:	4b3b      	ldr	r3, [pc, #236]	; (406acc <_dtoa_r+0xdac>)
  4069de:	2200      	movs	r2, #0
  4069e0:	e9dd 0116 	ldrd	r0, r1, [sp, #88]	; 0x58
  4069e4:	f001 fe3e 	bl	408664 <__adddf3>
  4069e8:	4632      	mov	r2, r6
  4069ea:	463b      	mov	r3, r7
  4069ec:	f002 fa5e 	bl	408eac <__aeabi_dcmplt>
  4069f0:	2800      	cmp	r0, #0
  4069f2:	d046      	beq.n	406a82 <_dtoa_r+0xd62>
  4069f4:	9b15      	ldr	r3, [sp, #84]	; 0x54
  4069f6:	9302      	str	r3, [sp, #8]
  4069f8:	f815 8c01 	ldrb.w	r8, [r5, #-1]
  4069fc:	f7ff bb43 	b.w	406086 <_dtoa_r+0x366>
  406a00:	f04f 0800 	mov.w	r8, #0
  406a04:	4646      	mov	r6, r8
  406a06:	e6a9      	b.n	40675c <_dtoa_r+0xa3c>
  406a08:	9b08      	ldr	r3, [sp, #32]
  406a0a:	9a0a      	ldr	r2, [sp, #40]	; 0x28
  406a0c:	1a9d      	subs	r5, r3, r2
  406a0e:	2300      	movs	r3, #0
  406a10:	f7ff bb71 	b.w	4060f6 <_dtoa_r+0x3d6>
  406a14:	9b18      	ldr	r3, [sp, #96]	; 0x60
  406a16:	9f0c      	ldr	r7, [sp, #48]	; 0x30
  406a18:	9d08      	ldr	r5, [sp, #32]
  406a1a:	f1c3 0336 	rsb	r3, r3, #54	; 0x36
  406a1e:	f7ff bb6a 	b.w	4060f6 <_dtoa_r+0x3d6>
  406a22:	e9dd 7810 	ldrd	r7, r8, [sp, #64]	; 0x40
  406a26:	f04f 0a02 	mov.w	sl, #2
  406a2a:	e56e      	b.n	40650a <_dtoa_r+0x7ea>
  406a2c:	9b0a      	ldr	r3, [sp, #40]	; 0x28
  406a2e:	2b00      	cmp	r3, #0
  406a30:	f43f aeb8 	beq.w	4067a4 <_dtoa_r+0xa84>
  406a34:	9b0f      	ldr	r3, [sp, #60]	; 0x3c
  406a36:	2b00      	cmp	r3, #0
  406a38:	f77f aede 	ble.w	4067f8 <_dtoa_r+0xad8>
  406a3c:	2200      	movs	r2, #0
  406a3e:	4b24      	ldr	r3, [pc, #144]	; (406ad0 <_dtoa_r+0xdb0>)
  406a40:	4638      	mov	r0, r7
  406a42:	4641      	mov	r1, r8
  406a44:	f001 ffc0 	bl	4089c8 <__aeabi_dmul>
  406a48:	4607      	mov	r7, r0
  406a4a:	4688      	mov	r8, r1
  406a4c:	f10a 0001 	add.w	r0, sl, #1
  406a50:	f001 ff54 	bl	4088fc <__aeabi_i2d>
  406a54:	463a      	mov	r2, r7
  406a56:	4643      	mov	r3, r8
  406a58:	f001 ffb6 	bl	4089c8 <__aeabi_dmul>
  406a5c:	2200      	movs	r2, #0
  406a5e:	4b17      	ldr	r3, [pc, #92]	; (406abc <_dtoa_r+0xd9c>)
  406a60:	f001 fe00 	bl	408664 <__adddf3>
  406a64:	9a02      	ldr	r2, [sp, #8]
  406a66:	9b0f      	ldr	r3, [sp, #60]	; 0x3c
  406a68:	9312      	str	r3, [sp, #72]	; 0x48
  406a6a:	3a01      	subs	r2, #1
  406a6c:	4605      	mov	r5, r0
  406a6e:	f1a1 7650 	sub.w	r6, r1, #54525952	; 0x3400000
  406a72:	9215      	str	r2, [sp, #84]	; 0x54
  406a74:	e56a      	b.n	40654c <_dtoa_r+0x82c>
  406a76:	2239      	movs	r2, #57	; 0x39
  406a78:	46b3      	mov	fp, r6
  406a7a:	703a      	strb	r2, [r7, #0]
  406a7c:	9e06      	ldr	r6, [sp, #24]
  406a7e:	1c7d      	adds	r5, r7, #1
  406a80:	e4c0      	b.n	406404 <_dtoa_r+0x6e4>
  406a82:	e9dd 2316 	ldrd	r2, r3, [sp, #88]	; 0x58
  406a86:	2000      	movs	r0, #0
  406a88:	4910      	ldr	r1, [pc, #64]	; (406acc <_dtoa_r+0xdac>)
  406a8a:	f001 fde9 	bl	408660 <__aeabi_dsub>
  406a8e:	4632      	mov	r2, r6
  406a90:	463b      	mov	r3, r7
  406a92:	f002 fa29 	bl	408ee8 <__aeabi_dcmpgt>
  406a96:	b908      	cbnz	r0, 406a9c <_dtoa_r+0xd7c>
  406a98:	e6ae      	b.n	4067f8 <_dtoa_r+0xad8>
  406a9a:	4615      	mov	r5, r2
  406a9c:	f815 3c01 	ldrb.w	r3, [r5, #-1]
  406aa0:	2b30      	cmp	r3, #48	; 0x30
  406aa2:	f105 32ff 	add.w	r2, r5, #4294967295
  406aa6:	d0f8      	beq.n	406a9a <_dtoa_r+0xd7a>
  406aa8:	e5d7      	b.n	40665a <_dtoa_r+0x93a>
  406aaa:	f8dd 9048 	ldr.w	r9, [sp, #72]	; 0x48
  406aae:	9b15      	ldr	r3, [sp, #84]	; 0x54
  406ab0:	9302      	str	r3, [sp, #8]
  406ab2:	f7ff bae8 	b.w	406086 <_dtoa_r+0x366>
  406ab6:	970c      	str	r7, [sp, #48]	; 0x30
  406ab8:	f7ff bba5 	b.w	406206 <_dtoa_r+0x4e6>
  406abc:	401c0000 	.word	0x401c0000
  406ac0:	40140000 	.word	0x40140000
  406ac4:	00409488 	.word	0x00409488
  406ac8:	00409460 	.word	0x00409460
  406acc:	3fe00000 	.word	0x3fe00000
  406ad0:	40240000 	.word	0x40240000
  406ad4:	2b39      	cmp	r3, #57	; 0x39
  406ad6:	f8cd b018 	str.w	fp, [sp, #24]
  406ada:	46d0      	mov	r8, sl
  406adc:	f8dd b028 	ldr.w	fp, [sp, #40]	; 0x28
  406ae0:	469a      	mov	sl, r3
  406ae2:	d0c8      	beq.n	406a76 <_dtoa_r+0xd56>
  406ae4:	f1bb 0f00 	cmp.w	fp, #0
  406ae8:	f73f aebf 	bgt.w	40686a <_dtoa_r+0xb4a>
  406aec:	e6bf      	b.n	40686e <_dtoa_r+0xb4e>
  406aee:	f47f aebe 	bne.w	40686e <_dtoa_r+0xb4e>
  406af2:	f01a 0f01 	tst.w	sl, #1
  406af6:	f43f aeba 	beq.w	40686e <_dtoa_r+0xb4e>
  406afa:	e6b2      	b.n	406862 <_dtoa_r+0xb42>
  406afc:	f04f 0800 	mov.w	r8, #0
  406b00:	4646      	mov	r6, r8
  406b02:	e5e9      	b.n	4066d8 <_dtoa_r+0x9b8>
  406b04:	4631      	mov	r1, r6
  406b06:	2300      	movs	r3, #0
  406b08:	220a      	movs	r2, #10
  406b0a:	4620      	mov	r0, r4
  406b0c:	f000 fe74 	bl	4077f8 <__multadd>
  406b10:	9b0f      	ldr	r3, [sp, #60]	; 0x3c
  406b12:	2b00      	cmp	r3, #0
  406b14:	4606      	mov	r6, r0
  406b16:	dd0a      	ble.n	406b2e <_dtoa_r+0xe0e>
  406b18:	930a      	str	r3, [sp, #40]	; 0x28
  406b1a:	f7ff bbaa 	b.w	406272 <_dtoa_r+0x552>
  406b1e:	9b24      	ldr	r3, [sp, #144]	; 0x90
  406b20:	2b02      	cmp	r3, #2
  406b22:	dc23      	bgt.n	406b6c <_dtoa_r+0xe4c>
  406b24:	9b0f      	ldr	r3, [sp, #60]	; 0x3c
  406b26:	e43b      	b.n	4063a0 <_dtoa_r+0x680>
  406b28:	f04f 0a02 	mov.w	sl, #2
  406b2c:	e4ed      	b.n	40650a <_dtoa_r+0x7ea>
  406b2e:	9b24      	ldr	r3, [sp, #144]	; 0x90
  406b30:	2b02      	cmp	r3, #2
  406b32:	dc1b      	bgt.n	406b6c <_dtoa_r+0xe4c>
  406b34:	9b0f      	ldr	r3, [sp, #60]	; 0x3c
  406b36:	e7ef      	b.n	406b18 <_dtoa_r+0xdf8>
  406b38:	2500      	movs	r5, #0
  406b3a:	6465      	str	r5, [r4, #68]	; 0x44
  406b3c:	4629      	mov	r1, r5
  406b3e:	4620      	mov	r0, r4
  406b40:	f000 fe2a 	bl	407798 <_Balloc>
  406b44:	f04f 33ff 	mov.w	r3, #4294967295
  406b48:	930a      	str	r3, [sp, #40]	; 0x28
  406b4a:	930f      	str	r3, [sp, #60]	; 0x3c
  406b4c:	2301      	movs	r3, #1
  406b4e:	9004      	str	r0, [sp, #16]
  406b50:	9525      	str	r5, [sp, #148]	; 0x94
  406b52:	6420      	str	r0, [r4, #64]	; 0x40
  406b54:	930b      	str	r3, [sp, #44]	; 0x2c
  406b56:	f7ff b9dd 	b.w	405f14 <_dtoa_r+0x1f4>
  406b5a:	2501      	movs	r5, #1
  406b5c:	f7ff b9a5 	b.w	405eaa <_dtoa_r+0x18a>
  406b60:	f43f ab69 	beq.w	406236 <_dtoa_r+0x516>
  406b64:	f1c0 003c 	rsb	r0, r0, #60	; 0x3c
  406b68:	f7ff bbf9 	b.w	40635e <_dtoa_r+0x63e>
  406b6c:	9b0f      	ldr	r3, [sp, #60]	; 0x3c
  406b6e:	930a      	str	r3, [sp, #40]	; 0x28
  406b70:	e5e5      	b.n	40673e <_dtoa_r+0xa1e>
  406b72:	bf00      	nop

00406b74 <__sflush_r>:
  406b74:	f9b1 300c 	ldrsh.w	r3, [r1, #12]
  406b78:	b29a      	uxth	r2, r3
  406b7a:	e92d 41f0 	stmdb	sp!, {r4, r5, r6, r7, r8, lr}
  406b7e:	460d      	mov	r5, r1
  406b80:	0711      	lsls	r1, r2, #28
  406b82:	4680      	mov	r8, r0
  406b84:	d43a      	bmi.n	406bfc <__sflush_r+0x88>
  406b86:	686a      	ldr	r2, [r5, #4]
  406b88:	f443 6300 	orr.w	r3, r3, #2048	; 0x800
  406b8c:	2a00      	cmp	r2, #0
  406b8e:	81ab      	strh	r3, [r5, #12]
  406b90:	dd6f      	ble.n	406c72 <__sflush_r+0xfe>
  406b92:	6aac      	ldr	r4, [r5, #40]	; 0x28
  406b94:	2c00      	cmp	r4, #0
  406b96:	d049      	beq.n	406c2c <__sflush_r+0xb8>
  406b98:	2200      	movs	r2, #0
  406b9a:	b29b      	uxth	r3, r3
  406b9c:	f8d8 6000 	ldr.w	r6, [r8]
  406ba0:	f8c8 2000 	str.w	r2, [r8]
  406ba4:	f413 5280 	ands.w	r2, r3, #4096	; 0x1000
  406ba8:	d067      	beq.n	406c7a <__sflush_r+0x106>
  406baa:	6d2a      	ldr	r2, [r5, #80]	; 0x50
  406bac:	075f      	lsls	r7, r3, #29
  406bae:	d505      	bpl.n	406bbc <__sflush_r+0x48>
  406bb0:	6869      	ldr	r1, [r5, #4]
  406bb2:	6b2b      	ldr	r3, [r5, #48]	; 0x30
  406bb4:	1a52      	subs	r2, r2, r1
  406bb6:	b10b      	cbz	r3, 406bbc <__sflush_r+0x48>
  406bb8:	6beb      	ldr	r3, [r5, #60]	; 0x3c
  406bba:	1ad2      	subs	r2, r2, r3
  406bbc:	2300      	movs	r3, #0
  406bbe:	69e9      	ldr	r1, [r5, #28]
  406bc0:	4640      	mov	r0, r8
  406bc2:	47a0      	blx	r4
  406bc4:	1c44      	adds	r4, r0, #1
  406bc6:	d03c      	beq.n	406c42 <__sflush_r+0xce>
  406bc8:	f9b5 300c 	ldrsh.w	r3, [r5, #12]
  406bcc:	692a      	ldr	r2, [r5, #16]
  406bce:	602a      	str	r2, [r5, #0]
  406bd0:	f423 6300 	bic.w	r3, r3, #2048	; 0x800
  406bd4:	2200      	movs	r2, #0
  406bd6:	81ab      	strh	r3, [r5, #12]
  406bd8:	04db      	lsls	r3, r3, #19
  406bda:	606a      	str	r2, [r5, #4]
  406bdc:	d447      	bmi.n	406c6e <__sflush_r+0xfa>
  406bde:	6b29      	ldr	r1, [r5, #48]	; 0x30
  406be0:	f8c8 6000 	str.w	r6, [r8]
  406be4:	b311      	cbz	r1, 406c2c <__sflush_r+0xb8>
  406be6:	f105 0340 	add.w	r3, r5, #64	; 0x40
  406bea:	4299      	cmp	r1, r3
  406bec:	d002      	beq.n	406bf4 <__sflush_r+0x80>
  406bee:	4640      	mov	r0, r8
  406bf0:	f000 f9de 	bl	406fb0 <_free_r>
  406bf4:	2000      	movs	r0, #0
  406bf6:	6328      	str	r0, [r5, #48]	; 0x30
  406bf8:	e8bd 81f0 	ldmia.w	sp!, {r4, r5, r6, r7, r8, pc}
  406bfc:	692e      	ldr	r6, [r5, #16]
  406bfe:	b1ae      	cbz	r6, 406c2c <__sflush_r+0xb8>
  406c00:	682c      	ldr	r4, [r5, #0]
  406c02:	602e      	str	r6, [r5, #0]
  406c04:	0791      	lsls	r1, r2, #30
  406c06:	bf0c      	ite	eq
  406c08:	696b      	ldreq	r3, [r5, #20]
  406c0a:	2300      	movne	r3, #0
  406c0c:	1ba4      	subs	r4, r4, r6
  406c0e:	60ab      	str	r3, [r5, #8]
  406c10:	e00a      	b.n	406c28 <__sflush_r+0xb4>
  406c12:	4623      	mov	r3, r4
  406c14:	4632      	mov	r2, r6
  406c16:	6a6f      	ldr	r7, [r5, #36]	; 0x24
  406c18:	69e9      	ldr	r1, [r5, #28]
  406c1a:	4640      	mov	r0, r8
  406c1c:	47b8      	blx	r7
  406c1e:	2800      	cmp	r0, #0
  406c20:	eba4 0400 	sub.w	r4, r4, r0
  406c24:	4406      	add	r6, r0
  406c26:	dd04      	ble.n	406c32 <__sflush_r+0xbe>
  406c28:	2c00      	cmp	r4, #0
  406c2a:	dcf2      	bgt.n	406c12 <__sflush_r+0x9e>
  406c2c:	2000      	movs	r0, #0
  406c2e:	e8bd 81f0 	ldmia.w	sp!, {r4, r5, r6, r7, r8, pc}
  406c32:	89ab      	ldrh	r3, [r5, #12]
  406c34:	f043 0340 	orr.w	r3, r3, #64	; 0x40
  406c38:	81ab      	strh	r3, [r5, #12]
  406c3a:	f04f 30ff 	mov.w	r0, #4294967295
  406c3e:	e8bd 81f0 	ldmia.w	sp!, {r4, r5, r6, r7, r8, pc}
  406c42:	f8d8 4000 	ldr.w	r4, [r8]
  406c46:	2c1d      	cmp	r4, #29
  406c48:	d8f3      	bhi.n	406c32 <__sflush_r+0xbe>
  406c4a:	4b19      	ldr	r3, [pc, #100]	; (406cb0 <__sflush_r+0x13c>)
  406c4c:	40e3      	lsrs	r3, r4
  406c4e:	43db      	mvns	r3, r3
  406c50:	f013 0301 	ands.w	r3, r3, #1
  406c54:	d1ed      	bne.n	406c32 <__sflush_r+0xbe>
  406c56:	f9b5 200c 	ldrsh.w	r2, [r5, #12]
  406c5a:	606b      	str	r3, [r5, #4]
  406c5c:	f422 6300 	bic.w	r3, r2, #2048	; 0x800
  406c60:	6929      	ldr	r1, [r5, #16]
  406c62:	81ab      	strh	r3, [r5, #12]
  406c64:	04da      	lsls	r2, r3, #19
  406c66:	6029      	str	r1, [r5, #0]
  406c68:	d5b9      	bpl.n	406bde <__sflush_r+0x6a>
  406c6a:	2c00      	cmp	r4, #0
  406c6c:	d1b7      	bne.n	406bde <__sflush_r+0x6a>
  406c6e:	6528      	str	r0, [r5, #80]	; 0x50
  406c70:	e7b5      	b.n	406bde <__sflush_r+0x6a>
  406c72:	6bea      	ldr	r2, [r5, #60]	; 0x3c
  406c74:	2a00      	cmp	r2, #0
  406c76:	dc8c      	bgt.n	406b92 <__sflush_r+0x1e>
  406c78:	e7d8      	b.n	406c2c <__sflush_r+0xb8>
  406c7a:	2301      	movs	r3, #1
  406c7c:	69e9      	ldr	r1, [r5, #28]
  406c7e:	4640      	mov	r0, r8
  406c80:	47a0      	blx	r4
  406c82:	1c43      	adds	r3, r0, #1
  406c84:	4602      	mov	r2, r0
  406c86:	d002      	beq.n	406c8e <__sflush_r+0x11a>
  406c88:	89ab      	ldrh	r3, [r5, #12]
  406c8a:	6aac      	ldr	r4, [r5, #40]	; 0x28
  406c8c:	e78e      	b.n	406bac <__sflush_r+0x38>
  406c8e:	f8d8 3000 	ldr.w	r3, [r8]
  406c92:	2b00      	cmp	r3, #0
  406c94:	d0f8      	beq.n	406c88 <__sflush_r+0x114>
  406c96:	2b1d      	cmp	r3, #29
  406c98:	d001      	beq.n	406c9e <__sflush_r+0x12a>
  406c9a:	2b16      	cmp	r3, #22
  406c9c:	d102      	bne.n	406ca4 <__sflush_r+0x130>
  406c9e:	f8c8 6000 	str.w	r6, [r8]
  406ca2:	e7c3      	b.n	406c2c <__sflush_r+0xb8>
  406ca4:	89ab      	ldrh	r3, [r5, #12]
  406ca6:	f043 0340 	orr.w	r3, r3, #64	; 0x40
  406caa:	81ab      	strh	r3, [r5, #12]
  406cac:	e8bd 81f0 	ldmia.w	sp!, {r4, r5, r6, r7, r8, pc}
  406cb0:	20400001 	.word	0x20400001

00406cb4 <_fflush_r>:
  406cb4:	b538      	push	{r3, r4, r5, lr}
  406cb6:	460d      	mov	r5, r1
  406cb8:	4604      	mov	r4, r0
  406cba:	b108      	cbz	r0, 406cc0 <_fflush_r+0xc>
  406cbc:	6b83      	ldr	r3, [r0, #56]	; 0x38
  406cbe:	b1bb      	cbz	r3, 406cf0 <_fflush_r+0x3c>
  406cc0:	f9b5 000c 	ldrsh.w	r0, [r5, #12]
  406cc4:	b188      	cbz	r0, 406cea <_fflush_r+0x36>
  406cc6:	6e6b      	ldr	r3, [r5, #100]	; 0x64
  406cc8:	07db      	lsls	r3, r3, #31
  406cca:	d401      	bmi.n	406cd0 <_fflush_r+0x1c>
  406ccc:	0581      	lsls	r1, r0, #22
  406cce:	d517      	bpl.n	406d00 <_fflush_r+0x4c>
  406cd0:	4620      	mov	r0, r4
  406cd2:	4629      	mov	r1, r5
  406cd4:	f7ff ff4e 	bl	406b74 <__sflush_r>
  406cd8:	6e6b      	ldr	r3, [r5, #100]	; 0x64
  406cda:	07da      	lsls	r2, r3, #31
  406cdc:	4604      	mov	r4, r0
  406cde:	d402      	bmi.n	406ce6 <_fflush_r+0x32>
  406ce0:	89ab      	ldrh	r3, [r5, #12]
  406ce2:	059b      	lsls	r3, r3, #22
  406ce4:	d507      	bpl.n	406cf6 <_fflush_r+0x42>
  406ce6:	4620      	mov	r0, r4
  406ce8:	bd38      	pop	{r3, r4, r5, pc}
  406cea:	4604      	mov	r4, r0
  406cec:	4620      	mov	r0, r4
  406cee:	bd38      	pop	{r3, r4, r5, pc}
  406cf0:	f000 f838 	bl	406d64 <__sinit>
  406cf4:	e7e4      	b.n	406cc0 <_fflush_r+0xc>
  406cf6:	6da8      	ldr	r0, [r5, #88]	; 0x58
  406cf8:	f000 fc04 	bl	407504 <__retarget_lock_release_recursive>
  406cfc:	4620      	mov	r0, r4
  406cfe:	bd38      	pop	{r3, r4, r5, pc}
  406d00:	6da8      	ldr	r0, [r5, #88]	; 0x58
  406d02:	f000 fbfd 	bl	407500 <__retarget_lock_acquire_recursive>
  406d06:	e7e3      	b.n	406cd0 <_fflush_r+0x1c>

00406d08 <_cleanup_r>:
  406d08:	4901      	ldr	r1, [pc, #4]	; (406d10 <_cleanup_r+0x8>)
  406d0a:	f000 bbaf 	b.w	40746c <_fwalk_reent>
  406d0e:	bf00      	nop
  406d10:	004084f1 	.word	0x004084f1

00406d14 <std.isra.0>:
  406d14:	b510      	push	{r4, lr}
  406d16:	2300      	movs	r3, #0
  406d18:	4604      	mov	r4, r0
  406d1a:	8181      	strh	r1, [r0, #12]
  406d1c:	81c2      	strh	r2, [r0, #14]
  406d1e:	6003      	str	r3, [r0, #0]
  406d20:	6043      	str	r3, [r0, #4]
  406d22:	6083      	str	r3, [r0, #8]
  406d24:	6643      	str	r3, [r0, #100]	; 0x64
  406d26:	6103      	str	r3, [r0, #16]
  406d28:	6143      	str	r3, [r0, #20]
  406d2a:	6183      	str	r3, [r0, #24]
  406d2c:	4619      	mov	r1, r3
  406d2e:	2208      	movs	r2, #8
  406d30:	305c      	adds	r0, #92	; 0x5c
  406d32:	f7fc fbb9 	bl	4034a8 <memset>
  406d36:	4807      	ldr	r0, [pc, #28]	; (406d54 <std.isra.0+0x40>)
  406d38:	4907      	ldr	r1, [pc, #28]	; (406d58 <std.isra.0+0x44>)
  406d3a:	4a08      	ldr	r2, [pc, #32]	; (406d5c <std.isra.0+0x48>)
  406d3c:	4b08      	ldr	r3, [pc, #32]	; (406d60 <std.isra.0+0x4c>)
  406d3e:	6220      	str	r0, [r4, #32]
  406d40:	61e4      	str	r4, [r4, #28]
  406d42:	6261      	str	r1, [r4, #36]	; 0x24
  406d44:	62a2      	str	r2, [r4, #40]	; 0x28
  406d46:	62e3      	str	r3, [r4, #44]	; 0x2c
  406d48:	f104 0058 	add.w	r0, r4, #88	; 0x58
  406d4c:	e8bd 4010 	ldmia.w	sp!, {r4, lr}
  406d50:	f000 bbd2 	b.w	4074f8 <__retarget_lock_init_recursive>
  406d54:	004080d9 	.word	0x004080d9
  406d58:	004080fd 	.word	0x004080fd
  406d5c:	00408139 	.word	0x00408139
  406d60:	00408159 	.word	0x00408159

00406d64 <__sinit>:
  406d64:	b510      	push	{r4, lr}
  406d66:	4604      	mov	r4, r0
  406d68:	4812      	ldr	r0, [pc, #72]	; (406db4 <__sinit+0x50>)
  406d6a:	f000 fbc9 	bl	407500 <__retarget_lock_acquire_recursive>
  406d6e:	6ba2      	ldr	r2, [r4, #56]	; 0x38
  406d70:	b9d2      	cbnz	r2, 406da8 <__sinit+0x44>
  406d72:	f504 733b 	add.w	r3, r4, #748	; 0x2ec
  406d76:	4810      	ldr	r0, [pc, #64]	; (406db8 <__sinit+0x54>)
  406d78:	f8c4 32e8 	str.w	r3, [r4, #744]	; 0x2e8
  406d7c:	2103      	movs	r1, #3
  406d7e:	f8c4 22e0 	str.w	r2, [r4, #736]	; 0x2e0
  406d82:	63e0      	str	r0, [r4, #60]	; 0x3c
  406d84:	f8c4 12e4 	str.w	r1, [r4, #740]	; 0x2e4
  406d88:	6860      	ldr	r0, [r4, #4]
  406d8a:	2104      	movs	r1, #4
  406d8c:	f7ff ffc2 	bl	406d14 <std.isra.0>
  406d90:	2201      	movs	r2, #1
  406d92:	2109      	movs	r1, #9
  406d94:	68a0      	ldr	r0, [r4, #8]
  406d96:	f7ff ffbd 	bl	406d14 <std.isra.0>
  406d9a:	2202      	movs	r2, #2
  406d9c:	2112      	movs	r1, #18
  406d9e:	68e0      	ldr	r0, [r4, #12]
  406da0:	f7ff ffb8 	bl	406d14 <std.isra.0>
  406da4:	2301      	movs	r3, #1
  406da6:	63a3      	str	r3, [r4, #56]	; 0x38
  406da8:	4802      	ldr	r0, [pc, #8]	; (406db4 <__sinit+0x50>)
  406daa:	e8bd 4010 	ldmia.w	sp!, {r4, lr}
  406dae:	f000 bba9 	b.w	407504 <__retarget_lock_release_recursive>
  406db2:	bf00      	nop
  406db4:	20400d20 	.word	0x20400d20
  406db8:	00406d09 	.word	0x00406d09

00406dbc <__sfp_lock_acquire>:
  406dbc:	4801      	ldr	r0, [pc, #4]	; (406dc4 <__sfp_lock_acquire+0x8>)
  406dbe:	f000 bb9f 	b.w	407500 <__retarget_lock_acquire_recursive>
  406dc2:	bf00      	nop
  406dc4:	20400d34 	.word	0x20400d34

00406dc8 <__sfp_lock_release>:
  406dc8:	4801      	ldr	r0, [pc, #4]	; (406dd0 <__sfp_lock_release+0x8>)
  406dca:	f000 bb9b 	b.w	407504 <__retarget_lock_release_recursive>
  406dce:	bf00      	nop
  406dd0:	20400d34 	.word	0x20400d34

00406dd4 <__libc_fini_array>:
  406dd4:	b538      	push	{r3, r4, r5, lr}
  406dd6:	4c0a      	ldr	r4, [pc, #40]	; (406e00 <__libc_fini_array+0x2c>)
  406dd8:	4d0a      	ldr	r5, [pc, #40]	; (406e04 <__libc_fini_array+0x30>)
  406dda:	1b64      	subs	r4, r4, r5
  406ddc:	10a4      	asrs	r4, r4, #2
  406dde:	d00a      	beq.n	406df6 <__libc_fini_array+0x22>
  406de0:	f104 4380 	add.w	r3, r4, #1073741824	; 0x40000000
  406de4:	3b01      	subs	r3, #1
  406de6:	eb05 0583 	add.w	r5, r5, r3, lsl #2
  406dea:	3c01      	subs	r4, #1
  406dec:	f855 3904 	ldr.w	r3, [r5], #-4
  406df0:	4798      	blx	r3
  406df2:	2c00      	cmp	r4, #0
  406df4:	d1f9      	bne.n	406dea <__libc_fini_array+0x16>
  406df6:	e8bd 4038 	ldmia.w	sp!, {r3, r4, r5, lr}
  406dfa:	f002 bc3b 	b.w	409674 <_fini>
  406dfe:	bf00      	nop
  406e00:	00409684 	.word	0x00409684
  406e04:	00409680 	.word	0x00409680

00406e08 <__fputwc>:
  406e08:	e92d 47f0 	stmdb	sp!, {r4, r5, r6, r7, r8, r9, sl, lr}
  406e0c:	b082      	sub	sp, #8
  406e0e:	4680      	mov	r8, r0
  406e10:	4689      	mov	r9, r1
  406e12:	4614      	mov	r4, r2
  406e14:	f000 fb54 	bl	4074c0 <__locale_mb_cur_max>
  406e18:	2801      	cmp	r0, #1
  406e1a:	d036      	beq.n	406e8a <__fputwc+0x82>
  406e1c:	464a      	mov	r2, r9
  406e1e:	f104 035c 	add.w	r3, r4, #92	; 0x5c
  406e22:	a901      	add	r1, sp, #4
  406e24:	4640      	mov	r0, r8
  406e26:	f001 fa71 	bl	40830c <_wcrtomb_r>
  406e2a:	1c42      	adds	r2, r0, #1
  406e2c:	4606      	mov	r6, r0
  406e2e:	d025      	beq.n	406e7c <__fputwc+0x74>
  406e30:	b3a8      	cbz	r0, 406e9e <__fputwc+0x96>
  406e32:	f89d e004 	ldrb.w	lr, [sp, #4]
  406e36:	2500      	movs	r5, #0
  406e38:	f10d 0a04 	add.w	sl, sp, #4
  406e3c:	e009      	b.n	406e52 <__fputwc+0x4a>
  406e3e:	6823      	ldr	r3, [r4, #0]
  406e40:	1c5a      	adds	r2, r3, #1
  406e42:	6022      	str	r2, [r4, #0]
  406e44:	f883 e000 	strb.w	lr, [r3]
  406e48:	3501      	adds	r5, #1
  406e4a:	42b5      	cmp	r5, r6
  406e4c:	d227      	bcs.n	406e9e <__fputwc+0x96>
  406e4e:	f815 e00a 	ldrb.w	lr, [r5, sl]
  406e52:	68a3      	ldr	r3, [r4, #8]
  406e54:	3b01      	subs	r3, #1
  406e56:	2b00      	cmp	r3, #0
  406e58:	60a3      	str	r3, [r4, #8]
  406e5a:	daf0      	bge.n	406e3e <__fputwc+0x36>
  406e5c:	69a7      	ldr	r7, [r4, #24]
  406e5e:	42bb      	cmp	r3, r7
  406e60:	4671      	mov	r1, lr
  406e62:	4622      	mov	r2, r4
  406e64:	4640      	mov	r0, r8
  406e66:	db02      	blt.n	406e6e <__fputwc+0x66>
  406e68:	f1be 0f0a 	cmp.w	lr, #10
  406e6c:	d1e7      	bne.n	406e3e <__fputwc+0x36>
  406e6e:	f001 f9f5 	bl	40825c <__swbuf_r>
  406e72:	1c43      	adds	r3, r0, #1
  406e74:	d1e8      	bne.n	406e48 <__fputwc+0x40>
  406e76:	b002      	add	sp, #8
  406e78:	e8bd 87f0 	ldmia.w	sp!, {r4, r5, r6, r7, r8, r9, sl, pc}
  406e7c:	89a3      	ldrh	r3, [r4, #12]
  406e7e:	f043 0340 	orr.w	r3, r3, #64	; 0x40
  406e82:	81a3      	strh	r3, [r4, #12]
  406e84:	b002      	add	sp, #8
  406e86:	e8bd 87f0 	ldmia.w	sp!, {r4, r5, r6, r7, r8, r9, sl, pc}
  406e8a:	f109 33ff 	add.w	r3, r9, #4294967295
  406e8e:	2bfe      	cmp	r3, #254	; 0xfe
  406e90:	d8c4      	bhi.n	406e1c <__fputwc+0x14>
  406e92:	fa5f fe89 	uxtb.w	lr, r9
  406e96:	4606      	mov	r6, r0
  406e98:	f88d e004 	strb.w	lr, [sp, #4]
  406e9c:	e7cb      	b.n	406e36 <__fputwc+0x2e>
  406e9e:	4648      	mov	r0, r9
  406ea0:	b002      	add	sp, #8
  406ea2:	e8bd 87f0 	ldmia.w	sp!, {r4, r5, r6, r7, r8, r9, sl, pc}
  406ea6:	bf00      	nop

00406ea8 <_fputwc_r>:
  406ea8:	b530      	push	{r4, r5, lr}
  406eaa:	6e53      	ldr	r3, [r2, #100]	; 0x64
  406eac:	f013 0f01 	tst.w	r3, #1
  406eb0:	f9b2 300c 	ldrsh.w	r3, [r2, #12]
  406eb4:	4614      	mov	r4, r2
  406eb6:	b083      	sub	sp, #12
  406eb8:	4605      	mov	r5, r0
  406eba:	b29a      	uxth	r2, r3
  406ebc:	d101      	bne.n	406ec2 <_fputwc_r+0x1a>
  406ebe:	0590      	lsls	r0, r2, #22
  406ec0:	d51c      	bpl.n	406efc <_fputwc_r+0x54>
  406ec2:	0490      	lsls	r0, r2, #18
  406ec4:	d406      	bmi.n	406ed4 <_fputwc_r+0x2c>
  406ec6:	6e62      	ldr	r2, [r4, #100]	; 0x64
  406ec8:	f443 5300 	orr.w	r3, r3, #8192	; 0x2000
  406ecc:	f442 5200 	orr.w	r2, r2, #8192	; 0x2000
  406ed0:	81a3      	strh	r3, [r4, #12]
  406ed2:	6662      	str	r2, [r4, #100]	; 0x64
  406ed4:	4628      	mov	r0, r5
  406ed6:	4622      	mov	r2, r4
  406ed8:	f7ff ff96 	bl	406e08 <__fputwc>
  406edc:	6e63      	ldr	r3, [r4, #100]	; 0x64
  406ede:	07da      	lsls	r2, r3, #31
  406ee0:	4605      	mov	r5, r0
  406ee2:	d402      	bmi.n	406eea <_fputwc_r+0x42>
  406ee4:	89a3      	ldrh	r3, [r4, #12]
  406ee6:	059b      	lsls	r3, r3, #22
  406ee8:	d502      	bpl.n	406ef0 <_fputwc_r+0x48>
  406eea:	4628      	mov	r0, r5
  406eec:	b003      	add	sp, #12
  406eee:	bd30      	pop	{r4, r5, pc}
  406ef0:	6da0      	ldr	r0, [r4, #88]	; 0x58
  406ef2:	f000 fb07 	bl	407504 <__retarget_lock_release_recursive>
  406ef6:	4628      	mov	r0, r5
  406ef8:	b003      	add	sp, #12
  406efa:	bd30      	pop	{r4, r5, pc}
  406efc:	6da0      	ldr	r0, [r4, #88]	; 0x58
  406efe:	9101      	str	r1, [sp, #4]
  406f00:	f000 fafe 	bl	407500 <__retarget_lock_acquire_recursive>
  406f04:	f9b4 300c 	ldrsh.w	r3, [r4, #12]
  406f08:	9901      	ldr	r1, [sp, #4]
  406f0a:	b29a      	uxth	r2, r3
  406f0c:	e7d9      	b.n	406ec2 <_fputwc_r+0x1a>
  406f0e:	bf00      	nop

00406f10 <_malloc_trim_r>:
  406f10:	b5f8      	push	{r3, r4, r5, r6, r7, lr}
  406f12:	4f24      	ldr	r7, [pc, #144]	; (406fa4 <_malloc_trim_r+0x94>)
  406f14:	460c      	mov	r4, r1
  406f16:	4606      	mov	r6, r0
  406f18:	f7fc fb14 	bl	403544 <__malloc_lock>
  406f1c:	68bb      	ldr	r3, [r7, #8]
  406f1e:	685d      	ldr	r5, [r3, #4]
  406f20:	f5c4 617e 	rsb	r1, r4, #4064	; 0xfe0
  406f24:	310f      	adds	r1, #15
  406f26:	f025 0503 	bic.w	r5, r5, #3
  406f2a:	4429      	add	r1, r5
  406f2c:	f421 617f 	bic.w	r1, r1, #4080	; 0xff0
  406f30:	f021 010f 	bic.w	r1, r1, #15
  406f34:	f5a1 5480 	sub.w	r4, r1, #4096	; 0x1000
  406f38:	f5b4 5f80 	cmp.w	r4, #4096	; 0x1000
  406f3c:	db07      	blt.n	406f4e <_malloc_trim_r+0x3e>
  406f3e:	2100      	movs	r1, #0
  406f40:	4630      	mov	r0, r6
  406f42:	f7fc fb0b 	bl	40355c <_sbrk_r>
  406f46:	68bb      	ldr	r3, [r7, #8]
  406f48:	442b      	add	r3, r5
  406f4a:	4298      	cmp	r0, r3
  406f4c:	d004      	beq.n	406f58 <_malloc_trim_r+0x48>
  406f4e:	4630      	mov	r0, r6
  406f50:	f7fc fafe 	bl	403550 <__malloc_unlock>
  406f54:	2000      	movs	r0, #0
  406f56:	bdf8      	pop	{r3, r4, r5, r6, r7, pc}
  406f58:	4261      	negs	r1, r4
  406f5a:	4630      	mov	r0, r6
  406f5c:	f7fc fafe 	bl	40355c <_sbrk_r>
  406f60:	3001      	adds	r0, #1
  406f62:	d00d      	beq.n	406f80 <_malloc_trim_r+0x70>
  406f64:	4b10      	ldr	r3, [pc, #64]	; (406fa8 <_malloc_trim_r+0x98>)
  406f66:	68ba      	ldr	r2, [r7, #8]
  406f68:	6819      	ldr	r1, [r3, #0]
  406f6a:	1b2d      	subs	r5, r5, r4
  406f6c:	f045 0501 	orr.w	r5, r5, #1
  406f70:	4630      	mov	r0, r6
  406f72:	1b09      	subs	r1, r1, r4
  406f74:	6055      	str	r5, [r2, #4]
  406f76:	6019      	str	r1, [r3, #0]
  406f78:	f7fc faea 	bl	403550 <__malloc_unlock>
  406f7c:	2001      	movs	r0, #1
  406f7e:	bdf8      	pop	{r3, r4, r5, r6, r7, pc}
  406f80:	2100      	movs	r1, #0
  406f82:	4630      	mov	r0, r6
  406f84:	f7fc faea 	bl	40355c <_sbrk_r>
  406f88:	68ba      	ldr	r2, [r7, #8]
  406f8a:	1a83      	subs	r3, r0, r2
  406f8c:	2b0f      	cmp	r3, #15
  406f8e:	ddde      	ble.n	406f4e <_malloc_trim_r+0x3e>
  406f90:	4c06      	ldr	r4, [pc, #24]	; (406fac <_malloc_trim_r+0x9c>)
  406f92:	4905      	ldr	r1, [pc, #20]	; (406fa8 <_malloc_trim_r+0x98>)
  406f94:	6824      	ldr	r4, [r4, #0]
  406f96:	f043 0301 	orr.w	r3, r3, #1
  406f9a:	1b00      	subs	r0, r0, r4
  406f9c:	6053      	str	r3, [r2, #4]
  406f9e:	6008      	str	r0, [r1, #0]
  406fa0:	e7d5      	b.n	406f4e <_malloc_trim_r+0x3e>
  406fa2:	bf00      	nop
  406fa4:	20400438 	.word	0x20400438
  406fa8:	20400c94 	.word	0x20400c94
  406fac:	20400840 	.word	0x20400840

00406fb0 <_free_r>:
  406fb0:	2900      	cmp	r1, #0
  406fb2:	d044      	beq.n	40703e <_free_r+0x8e>
  406fb4:	e92d 41f0 	stmdb	sp!, {r4, r5, r6, r7, r8, lr}
  406fb8:	460d      	mov	r5, r1
  406fba:	4680      	mov	r8, r0
  406fbc:	f7fc fac2 	bl	403544 <__malloc_lock>
  406fc0:	f855 7c04 	ldr.w	r7, [r5, #-4]
  406fc4:	4969      	ldr	r1, [pc, #420]	; (40716c <_free_r+0x1bc>)
  406fc6:	f027 0301 	bic.w	r3, r7, #1
  406fca:	f1a5 0408 	sub.w	r4, r5, #8
  406fce:	18e2      	adds	r2, r4, r3
  406fd0:	688e      	ldr	r6, [r1, #8]
  406fd2:	6850      	ldr	r0, [r2, #4]
  406fd4:	42b2      	cmp	r2, r6
  406fd6:	f020 0003 	bic.w	r0, r0, #3
  406fda:	d05e      	beq.n	40709a <_free_r+0xea>
  406fdc:	07fe      	lsls	r6, r7, #31
  406fde:	6050      	str	r0, [r2, #4]
  406fe0:	d40b      	bmi.n	406ffa <_free_r+0x4a>
  406fe2:	f855 7c08 	ldr.w	r7, [r5, #-8]
  406fe6:	1be4      	subs	r4, r4, r7
  406fe8:	f101 0e08 	add.w	lr, r1, #8
  406fec:	68a5      	ldr	r5, [r4, #8]
  406fee:	4575      	cmp	r5, lr
  406ff0:	443b      	add	r3, r7
  406ff2:	d06d      	beq.n	4070d0 <_free_r+0x120>
  406ff4:	68e7      	ldr	r7, [r4, #12]
  406ff6:	60ef      	str	r7, [r5, #12]
  406ff8:	60bd      	str	r5, [r7, #8]
  406ffa:	1815      	adds	r5, r2, r0
  406ffc:	686d      	ldr	r5, [r5, #4]
  406ffe:	07ed      	lsls	r5, r5, #31
  407000:	d53e      	bpl.n	407080 <_free_r+0xd0>
  407002:	f043 0201 	orr.w	r2, r3, #1
  407006:	6062      	str	r2, [r4, #4]
  407008:	50e3      	str	r3, [r4, r3]
  40700a:	f5b3 7f00 	cmp.w	r3, #512	; 0x200
  40700e:	d217      	bcs.n	407040 <_free_r+0x90>
  407010:	08db      	lsrs	r3, r3, #3
  407012:	1c58      	adds	r0, r3, #1
  407014:	109a      	asrs	r2, r3, #2
  407016:	684d      	ldr	r5, [r1, #4]
  407018:	f851 7030 	ldr.w	r7, [r1, r0, lsl #3]
  40701c:	60a7      	str	r7, [r4, #8]
  40701e:	2301      	movs	r3, #1
  407020:	4093      	lsls	r3, r2
  407022:	eb01 02c0 	add.w	r2, r1, r0, lsl #3
  407026:	432b      	orrs	r3, r5
  407028:	3a08      	subs	r2, #8
  40702a:	60e2      	str	r2, [r4, #12]
  40702c:	604b      	str	r3, [r1, #4]
  40702e:	f841 4030 	str.w	r4, [r1, r0, lsl #3]
  407032:	60fc      	str	r4, [r7, #12]
  407034:	4640      	mov	r0, r8
  407036:	e8bd 41f0 	ldmia.w	sp!, {r4, r5, r6, r7, r8, lr}
  40703a:	f7fc ba89 	b.w	403550 <__malloc_unlock>
  40703e:	4770      	bx	lr
  407040:	0a5a      	lsrs	r2, r3, #9
  407042:	2a04      	cmp	r2, #4
  407044:	d852      	bhi.n	4070ec <_free_r+0x13c>
  407046:	099a      	lsrs	r2, r3, #6
  407048:	f102 0739 	add.w	r7, r2, #57	; 0x39
  40704c:	00ff      	lsls	r7, r7, #3
  40704e:	f102 0538 	add.w	r5, r2, #56	; 0x38
  407052:	19c8      	adds	r0, r1, r7
  407054:	59ca      	ldr	r2, [r1, r7]
  407056:	3808      	subs	r0, #8
  407058:	4290      	cmp	r0, r2
  40705a:	d04f      	beq.n	4070fc <_free_r+0x14c>
  40705c:	6851      	ldr	r1, [r2, #4]
  40705e:	f021 0103 	bic.w	r1, r1, #3
  407062:	428b      	cmp	r3, r1
  407064:	d232      	bcs.n	4070cc <_free_r+0x11c>
  407066:	6892      	ldr	r2, [r2, #8]
  407068:	4290      	cmp	r0, r2
  40706a:	d1f7      	bne.n	40705c <_free_r+0xac>
  40706c:	68c3      	ldr	r3, [r0, #12]
  40706e:	60a0      	str	r0, [r4, #8]
  407070:	60e3      	str	r3, [r4, #12]
  407072:	609c      	str	r4, [r3, #8]
  407074:	60c4      	str	r4, [r0, #12]
  407076:	4640      	mov	r0, r8
  407078:	e8bd 41f0 	ldmia.w	sp!, {r4, r5, r6, r7, r8, lr}
  40707c:	f7fc ba68 	b.w	403550 <__malloc_unlock>
  407080:	6895      	ldr	r5, [r2, #8]
  407082:	4f3b      	ldr	r7, [pc, #236]	; (407170 <_free_r+0x1c0>)
  407084:	42bd      	cmp	r5, r7
  407086:	4403      	add	r3, r0
  407088:	d040      	beq.n	40710c <_free_r+0x15c>
  40708a:	68d0      	ldr	r0, [r2, #12]
  40708c:	60e8      	str	r0, [r5, #12]
  40708e:	f043 0201 	orr.w	r2, r3, #1
  407092:	6085      	str	r5, [r0, #8]
  407094:	6062      	str	r2, [r4, #4]
  407096:	50e3      	str	r3, [r4, r3]
  407098:	e7b7      	b.n	40700a <_free_r+0x5a>
  40709a:	07ff      	lsls	r7, r7, #31
  40709c:	4403      	add	r3, r0
  40709e:	d407      	bmi.n	4070b0 <_free_r+0x100>
  4070a0:	f855 2c08 	ldr.w	r2, [r5, #-8]
  4070a4:	1aa4      	subs	r4, r4, r2
  4070a6:	4413      	add	r3, r2
  4070a8:	68a0      	ldr	r0, [r4, #8]
  4070aa:	68e2      	ldr	r2, [r4, #12]
  4070ac:	60c2      	str	r2, [r0, #12]
  4070ae:	6090      	str	r0, [r2, #8]
  4070b0:	4a30      	ldr	r2, [pc, #192]	; (407174 <_free_r+0x1c4>)
  4070b2:	6812      	ldr	r2, [r2, #0]
  4070b4:	f043 0001 	orr.w	r0, r3, #1
  4070b8:	4293      	cmp	r3, r2
  4070ba:	6060      	str	r0, [r4, #4]
  4070bc:	608c      	str	r4, [r1, #8]
  4070be:	d3b9      	bcc.n	407034 <_free_r+0x84>
  4070c0:	4b2d      	ldr	r3, [pc, #180]	; (407178 <_free_r+0x1c8>)
  4070c2:	4640      	mov	r0, r8
  4070c4:	6819      	ldr	r1, [r3, #0]
  4070c6:	f7ff ff23 	bl	406f10 <_malloc_trim_r>
  4070ca:	e7b3      	b.n	407034 <_free_r+0x84>
  4070cc:	4610      	mov	r0, r2
  4070ce:	e7cd      	b.n	40706c <_free_r+0xbc>
  4070d0:	1811      	adds	r1, r2, r0
  4070d2:	6849      	ldr	r1, [r1, #4]
  4070d4:	07c9      	lsls	r1, r1, #31
  4070d6:	d444      	bmi.n	407162 <_free_r+0x1b2>
  4070d8:	6891      	ldr	r1, [r2, #8]
  4070da:	68d2      	ldr	r2, [r2, #12]
  4070dc:	60ca      	str	r2, [r1, #12]
  4070de:	4403      	add	r3, r0
  4070e0:	f043 0001 	orr.w	r0, r3, #1
  4070e4:	6091      	str	r1, [r2, #8]
  4070e6:	6060      	str	r0, [r4, #4]
  4070e8:	50e3      	str	r3, [r4, r3]
  4070ea:	e7a3      	b.n	407034 <_free_r+0x84>
  4070ec:	2a14      	cmp	r2, #20
  4070ee:	d816      	bhi.n	40711e <_free_r+0x16e>
  4070f0:	f102 075c 	add.w	r7, r2, #92	; 0x5c
  4070f4:	00ff      	lsls	r7, r7, #3
  4070f6:	f102 055b 	add.w	r5, r2, #91	; 0x5b
  4070fa:	e7aa      	b.n	407052 <_free_r+0xa2>
  4070fc:	10aa      	asrs	r2, r5, #2
  4070fe:	2301      	movs	r3, #1
  407100:	684d      	ldr	r5, [r1, #4]
  407102:	4093      	lsls	r3, r2
  407104:	432b      	orrs	r3, r5
  407106:	604b      	str	r3, [r1, #4]
  407108:	4603      	mov	r3, r0
  40710a:	e7b0      	b.n	40706e <_free_r+0xbe>
  40710c:	f043 0201 	orr.w	r2, r3, #1
  407110:	614c      	str	r4, [r1, #20]
  407112:	610c      	str	r4, [r1, #16]
  407114:	60e5      	str	r5, [r4, #12]
  407116:	60a5      	str	r5, [r4, #8]
  407118:	6062      	str	r2, [r4, #4]
  40711a:	50e3      	str	r3, [r4, r3]
  40711c:	e78a      	b.n	407034 <_free_r+0x84>
  40711e:	2a54      	cmp	r2, #84	; 0x54
  407120:	d806      	bhi.n	407130 <_free_r+0x180>
  407122:	0b1a      	lsrs	r2, r3, #12
  407124:	f102 076f 	add.w	r7, r2, #111	; 0x6f
  407128:	00ff      	lsls	r7, r7, #3
  40712a:	f102 056e 	add.w	r5, r2, #110	; 0x6e
  40712e:	e790      	b.n	407052 <_free_r+0xa2>
  407130:	f5b2 7faa 	cmp.w	r2, #340	; 0x154
  407134:	d806      	bhi.n	407144 <_free_r+0x194>
  407136:	0bda      	lsrs	r2, r3, #15
  407138:	f102 0778 	add.w	r7, r2, #120	; 0x78
  40713c:	00ff      	lsls	r7, r7, #3
  40713e:	f102 0577 	add.w	r5, r2, #119	; 0x77
  407142:	e786      	b.n	407052 <_free_r+0xa2>
  407144:	f240 5054 	movw	r0, #1364	; 0x554
  407148:	4282      	cmp	r2, r0
  40714a:	d806      	bhi.n	40715a <_free_r+0x1aa>
  40714c:	0c9a      	lsrs	r2, r3, #18
  40714e:	f102 077d 	add.w	r7, r2, #125	; 0x7d
  407152:	00ff      	lsls	r7, r7, #3
  407154:	f102 057c 	add.w	r5, r2, #124	; 0x7c
  407158:	e77b      	b.n	407052 <_free_r+0xa2>
  40715a:	f44f 777e 	mov.w	r7, #1016	; 0x3f8
  40715e:	257e      	movs	r5, #126	; 0x7e
  407160:	e777      	b.n	407052 <_free_r+0xa2>
  407162:	f043 0101 	orr.w	r1, r3, #1
  407166:	6061      	str	r1, [r4, #4]
  407168:	6013      	str	r3, [r2, #0]
  40716a:	e763      	b.n	407034 <_free_r+0x84>
  40716c:	20400438 	.word	0x20400438
  407170:	20400440 	.word	0x20400440
  407174:	20400844 	.word	0x20400844
  407178:	20400cc4 	.word	0x20400cc4

0040717c <__sfvwrite_r>:
  40717c:	6893      	ldr	r3, [r2, #8]
  40717e:	2b00      	cmp	r3, #0
  407180:	d073      	beq.n	40726a <__sfvwrite_r+0xee>
  407182:	e92d 4ff0 	stmdb	sp!, {r4, r5, r6, r7, r8, r9, sl, fp, lr}
  407186:	898b      	ldrh	r3, [r1, #12]
  407188:	b083      	sub	sp, #12
  40718a:	460c      	mov	r4, r1
  40718c:	0719      	lsls	r1, r3, #28
  40718e:	9000      	str	r0, [sp, #0]
  407190:	4616      	mov	r6, r2
  407192:	d526      	bpl.n	4071e2 <__sfvwrite_r+0x66>
  407194:	6922      	ldr	r2, [r4, #16]
  407196:	b322      	cbz	r2, 4071e2 <__sfvwrite_r+0x66>
  407198:	f013 0002 	ands.w	r0, r3, #2
  40719c:	6835      	ldr	r5, [r6, #0]
  40719e:	d02c      	beq.n	4071fa <__sfvwrite_r+0x7e>
  4071a0:	f04f 0900 	mov.w	r9, #0
  4071a4:	4fb0      	ldr	r7, [pc, #704]	; (407468 <__sfvwrite_r+0x2ec>)
  4071a6:	46c8      	mov	r8, r9
  4071a8:	46b2      	mov	sl, r6
  4071aa:	45b8      	cmp	r8, r7
  4071ac:	4643      	mov	r3, r8
  4071ae:	464a      	mov	r2, r9
  4071b0:	bf28      	it	cs
  4071b2:	463b      	movcs	r3, r7
  4071b4:	9800      	ldr	r0, [sp, #0]
  4071b6:	f1b8 0f00 	cmp.w	r8, #0
  4071ba:	d050      	beq.n	40725e <__sfvwrite_r+0xe2>
  4071bc:	69e1      	ldr	r1, [r4, #28]
  4071be:	6a66      	ldr	r6, [r4, #36]	; 0x24
  4071c0:	47b0      	blx	r6
  4071c2:	2800      	cmp	r0, #0
  4071c4:	dd58      	ble.n	407278 <__sfvwrite_r+0xfc>
  4071c6:	f8da 3008 	ldr.w	r3, [sl, #8]
  4071ca:	1a1b      	subs	r3, r3, r0
  4071cc:	4481      	add	r9, r0
  4071ce:	eba8 0800 	sub.w	r8, r8, r0
  4071d2:	f8ca 3008 	str.w	r3, [sl, #8]
  4071d6:	2b00      	cmp	r3, #0
  4071d8:	d1e7      	bne.n	4071aa <__sfvwrite_r+0x2e>
  4071da:	2000      	movs	r0, #0
  4071dc:	b003      	add	sp, #12
  4071de:	e8bd 8ff0 	ldmia.w	sp!, {r4, r5, r6, r7, r8, r9, sl, fp, pc}
  4071e2:	4621      	mov	r1, r4
  4071e4:	9800      	ldr	r0, [sp, #0]
  4071e6:	f7fe fc91 	bl	405b0c <__swsetup_r>
  4071ea:	2800      	cmp	r0, #0
  4071ec:	f040 8133 	bne.w	407456 <__sfvwrite_r+0x2da>
  4071f0:	89a3      	ldrh	r3, [r4, #12]
  4071f2:	6835      	ldr	r5, [r6, #0]
  4071f4:	f013 0002 	ands.w	r0, r3, #2
  4071f8:	d1d2      	bne.n	4071a0 <__sfvwrite_r+0x24>
  4071fa:	f013 0901 	ands.w	r9, r3, #1
  4071fe:	d145      	bne.n	40728c <__sfvwrite_r+0x110>
  407200:	464f      	mov	r7, r9
  407202:	9601      	str	r6, [sp, #4]
  407204:	b337      	cbz	r7, 407254 <__sfvwrite_r+0xd8>
  407206:	059a      	lsls	r2, r3, #22
  407208:	f8d4 8008 	ldr.w	r8, [r4, #8]
  40720c:	f140 8083 	bpl.w	407316 <__sfvwrite_r+0x19a>
  407210:	4547      	cmp	r7, r8
  407212:	46c3      	mov	fp, r8
  407214:	f0c0 80ab 	bcc.w	40736e <__sfvwrite_r+0x1f2>
  407218:	f413 6f90 	tst.w	r3, #1152	; 0x480
  40721c:	f040 80ac 	bne.w	407378 <__sfvwrite_r+0x1fc>
  407220:	6820      	ldr	r0, [r4, #0]
  407222:	46ba      	mov	sl, r7
  407224:	465a      	mov	r2, fp
  407226:	4649      	mov	r1, r9
  407228:	f000 fa52 	bl	4076d0 <memmove>
  40722c:	68a2      	ldr	r2, [r4, #8]
  40722e:	6823      	ldr	r3, [r4, #0]
  407230:	eba2 0208 	sub.w	r2, r2, r8
  407234:	445b      	add	r3, fp
  407236:	60a2      	str	r2, [r4, #8]
  407238:	6023      	str	r3, [r4, #0]
  40723a:	9a01      	ldr	r2, [sp, #4]
  40723c:	6893      	ldr	r3, [r2, #8]
  40723e:	eba3 030a 	sub.w	r3, r3, sl
  407242:	44d1      	add	r9, sl
  407244:	eba7 070a 	sub.w	r7, r7, sl
  407248:	6093      	str	r3, [r2, #8]
  40724a:	2b00      	cmp	r3, #0
  40724c:	d0c5      	beq.n	4071da <__sfvwrite_r+0x5e>
  40724e:	89a3      	ldrh	r3, [r4, #12]
  407250:	2f00      	cmp	r7, #0
  407252:	d1d8      	bne.n	407206 <__sfvwrite_r+0x8a>
  407254:	f8d5 9000 	ldr.w	r9, [r5]
  407258:	686f      	ldr	r7, [r5, #4]
  40725a:	3508      	adds	r5, #8
  40725c:	e7d2      	b.n	407204 <__sfvwrite_r+0x88>
  40725e:	f8d5 9000 	ldr.w	r9, [r5]
  407262:	f8d5 8004 	ldr.w	r8, [r5, #4]
  407266:	3508      	adds	r5, #8
  407268:	e79f      	b.n	4071aa <__sfvwrite_r+0x2e>
  40726a:	2000      	movs	r0, #0
  40726c:	4770      	bx	lr
  40726e:	4621      	mov	r1, r4
  407270:	9800      	ldr	r0, [sp, #0]
  407272:	f7ff fd1f 	bl	406cb4 <_fflush_r>
  407276:	b370      	cbz	r0, 4072d6 <__sfvwrite_r+0x15a>
  407278:	f9b4 300c 	ldrsh.w	r3, [r4, #12]
  40727c:	f043 0340 	orr.w	r3, r3, #64	; 0x40
  407280:	f04f 30ff 	mov.w	r0, #4294967295
  407284:	81a3      	strh	r3, [r4, #12]
  407286:	b003      	add	sp, #12
  407288:	e8bd 8ff0 	ldmia.w	sp!, {r4, r5, r6, r7, r8, r9, sl, fp, pc}
  40728c:	4681      	mov	r9, r0
  40728e:	4633      	mov	r3, r6
  407290:	464e      	mov	r6, r9
  407292:	46a8      	mov	r8, r5
  407294:	469a      	mov	sl, r3
  407296:	464d      	mov	r5, r9
  407298:	b34e      	cbz	r6, 4072ee <__sfvwrite_r+0x172>
  40729a:	b380      	cbz	r0, 4072fe <__sfvwrite_r+0x182>
  40729c:	6820      	ldr	r0, [r4, #0]
  40729e:	6923      	ldr	r3, [r4, #16]
  4072a0:	6962      	ldr	r2, [r4, #20]
  4072a2:	45b1      	cmp	r9, r6
  4072a4:	46cb      	mov	fp, r9
  4072a6:	bf28      	it	cs
  4072a8:	46b3      	movcs	fp, r6
  4072aa:	4298      	cmp	r0, r3
  4072ac:	465f      	mov	r7, fp
  4072ae:	d904      	bls.n	4072ba <__sfvwrite_r+0x13e>
  4072b0:	68a3      	ldr	r3, [r4, #8]
  4072b2:	4413      	add	r3, r2
  4072b4:	459b      	cmp	fp, r3
  4072b6:	f300 80a6 	bgt.w	407406 <__sfvwrite_r+0x28a>
  4072ba:	4593      	cmp	fp, r2
  4072bc:	db4b      	blt.n	407356 <__sfvwrite_r+0x1da>
  4072be:	4613      	mov	r3, r2
  4072c0:	6a67      	ldr	r7, [r4, #36]	; 0x24
  4072c2:	69e1      	ldr	r1, [r4, #28]
  4072c4:	9800      	ldr	r0, [sp, #0]
  4072c6:	462a      	mov	r2, r5
  4072c8:	47b8      	blx	r7
  4072ca:	1e07      	subs	r7, r0, #0
  4072cc:	ddd4      	ble.n	407278 <__sfvwrite_r+0xfc>
  4072ce:	ebb9 0907 	subs.w	r9, r9, r7
  4072d2:	d0cc      	beq.n	40726e <__sfvwrite_r+0xf2>
  4072d4:	2001      	movs	r0, #1
  4072d6:	f8da 3008 	ldr.w	r3, [sl, #8]
  4072da:	1bdb      	subs	r3, r3, r7
  4072dc:	443d      	add	r5, r7
  4072de:	1bf6      	subs	r6, r6, r7
  4072e0:	f8ca 3008 	str.w	r3, [sl, #8]
  4072e4:	2b00      	cmp	r3, #0
  4072e6:	f43f af78 	beq.w	4071da <__sfvwrite_r+0x5e>
  4072ea:	2e00      	cmp	r6, #0
  4072ec:	d1d5      	bne.n	40729a <__sfvwrite_r+0x11e>
  4072ee:	f108 0308 	add.w	r3, r8, #8
  4072f2:	e913 0060 	ldmdb	r3, {r5, r6}
  4072f6:	4698      	mov	r8, r3
  4072f8:	3308      	adds	r3, #8
  4072fa:	2e00      	cmp	r6, #0
  4072fc:	d0f9      	beq.n	4072f2 <__sfvwrite_r+0x176>
  4072fe:	4632      	mov	r2, r6
  407300:	210a      	movs	r1, #10
  407302:	4628      	mov	r0, r5
  407304:	f000 f994 	bl	407630 <memchr>
  407308:	2800      	cmp	r0, #0
  40730a:	f000 80a1 	beq.w	407450 <__sfvwrite_r+0x2d4>
  40730e:	3001      	adds	r0, #1
  407310:	eba0 0905 	sub.w	r9, r0, r5
  407314:	e7c2      	b.n	40729c <__sfvwrite_r+0x120>
  407316:	6820      	ldr	r0, [r4, #0]
  407318:	6923      	ldr	r3, [r4, #16]
  40731a:	4298      	cmp	r0, r3
  40731c:	d802      	bhi.n	407324 <__sfvwrite_r+0x1a8>
  40731e:	6963      	ldr	r3, [r4, #20]
  407320:	429f      	cmp	r7, r3
  407322:	d25d      	bcs.n	4073e0 <__sfvwrite_r+0x264>
  407324:	45b8      	cmp	r8, r7
  407326:	bf28      	it	cs
  407328:	46b8      	movcs	r8, r7
  40732a:	4642      	mov	r2, r8
  40732c:	4649      	mov	r1, r9
  40732e:	f000 f9cf 	bl	4076d0 <memmove>
  407332:	68a3      	ldr	r3, [r4, #8]
  407334:	6822      	ldr	r2, [r4, #0]
  407336:	eba3 0308 	sub.w	r3, r3, r8
  40733a:	4442      	add	r2, r8
  40733c:	60a3      	str	r3, [r4, #8]
  40733e:	6022      	str	r2, [r4, #0]
  407340:	b10b      	cbz	r3, 407346 <__sfvwrite_r+0x1ca>
  407342:	46c2      	mov	sl, r8
  407344:	e779      	b.n	40723a <__sfvwrite_r+0xbe>
  407346:	4621      	mov	r1, r4
  407348:	9800      	ldr	r0, [sp, #0]
  40734a:	f7ff fcb3 	bl	406cb4 <_fflush_r>
  40734e:	2800      	cmp	r0, #0
  407350:	d192      	bne.n	407278 <__sfvwrite_r+0xfc>
  407352:	46c2      	mov	sl, r8
  407354:	e771      	b.n	40723a <__sfvwrite_r+0xbe>
  407356:	465a      	mov	r2, fp
  407358:	4629      	mov	r1, r5
  40735a:	f000 f9b9 	bl	4076d0 <memmove>
  40735e:	68a2      	ldr	r2, [r4, #8]
  407360:	6823      	ldr	r3, [r4, #0]
  407362:	eba2 020b 	sub.w	r2, r2, fp
  407366:	445b      	add	r3, fp
  407368:	60a2      	str	r2, [r4, #8]
  40736a:	6023      	str	r3, [r4, #0]
  40736c:	e7af      	b.n	4072ce <__sfvwrite_r+0x152>
  40736e:	6820      	ldr	r0, [r4, #0]
  407370:	46b8      	mov	r8, r7
  407372:	46ba      	mov	sl, r7
  407374:	46bb      	mov	fp, r7
  407376:	e755      	b.n	407224 <__sfvwrite_r+0xa8>
  407378:	6962      	ldr	r2, [r4, #20]
  40737a:	6820      	ldr	r0, [r4, #0]
  40737c:	6921      	ldr	r1, [r4, #16]
  40737e:	eb02 0842 	add.w	r8, r2, r2, lsl #1
  407382:	eba0 0a01 	sub.w	sl, r0, r1
  407386:	eb08 78d8 	add.w	r8, r8, r8, lsr #31
  40738a:	f10a 0001 	add.w	r0, sl, #1
  40738e:	ea4f 0868 	mov.w	r8, r8, asr #1
  407392:	4438      	add	r0, r7
  407394:	4540      	cmp	r0, r8
  407396:	4642      	mov	r2, r8
  407398:	bf84      	itt	hi
  40739a:	4680      	movhi	r8, r0
  40739c:	4642      	movhi	r2, r8
  40739e:	055b      	lsls	r3, r3, #21
  4073a0:	d544      	bpl.n	40742c <__sfvwrite_r+0x2b0>
  4073a2:	4611      	mov	r1, r2
  4073a4:	9800      	ldr	r0, [sp, #0]
  4073a6:	f7fb fd35 	bl	402e14 <_malloc_r>
  4073aa:	4683      	mov	fp, r0
  4073ac:	2800      	cmp	r0, #0
  4073ae:	d055      	beq.n	40745c <__sfvwrite_r+0x2e0>
  4073b0:	4652      	mov	r2, sl
  4073b2:	6921      	ldr	r1, [r4, #16]
  4073b4:	f7fb ffde 	bl	403374 <memcpy>
  4073b8:	89a3      	ldrh	r3, [r4, #12]
  4073ba:	f423 6390 	bic.w	r3, r3, #1152	; 0x480
  4073be:	f043 0380 	orr.w	r3, r3, #128	; 0x80
  4073c2:	81a3      	strh	r3, [r4, #12]
  4073c4:	eb0b 000a 	add.w	r0, fp, sl
  4073c8:	eba8 030a 	sub.w	r3, r8, sl
  4073cc:	f8c4 b010 	str.w	fp, [r4, #16]
  4073d0:	f8c4 8014 	str.w	r8, [r4, #20]
  4073d4:	6020      	str	r0, [r4, #0]
  4073d6:	60a3      	str	r3, [r4, #8]
  4073d8:	46b8      	mov	r8, r7
  4073da:	46ba      	mov	sl, r7
  4073dc:	46bb      	mov	fp, r7
  4073de:	e721      	b.n	407224 <__sfvwrite_r+0xa8>
  4073e0:	f06f 4100 	mvn.w	r1, #2147483648	; 0x80000000
  4073e4:	42b9      	cmp	r1, r7
  4073e6:	bf28      	it	cs
  4073e8:	4639      	movcs	r1, r7
  4073ea:	464a      	mov	r2, r9
  4073ec:	fb91 f1f3 	sdiv	r1, r1, r3
  4073f0:	9800      	ldr	r0, [sp, #0]
  4073f2:	6a66      	ldr	r6, [r4, #36]	; 0x24
  4073f4:	fb03 f301 	mul.w	r3, r3, r1
  4073f8:	69e1      	ldr	r1, [r4, #28]
  4073fa:	47b0      	blx	r6
  4073fc:	f1b0 0a00 	subs.w	sl, r0, #0
  407400:	f73f af1b 	bgt.w	40723a <__sfvwrite_r+0xbe>
  407404:	e738      	b.n	407278 <__sfvwrite_r+0xfc>
  407406:	461a      	mov	r2, r3
  407408:	4629      	mov	r1, r5
  40740a:	9301      	str	r3, [sp, #4]
  40740c:	f000 f960 	bl	4076d0 <memmove>
  407410:	6822      	ldr	r2, [r4, #0]
  407412:	9b01      	ldr	r3, [sp, #4]
  407414:	9800      	ldr	r0, [sp, #0]
  407416:	441a      	add	r2, r3
  407418:	6022      	str	r2, [r4, #0]
  40741a:	4621      	mov	r1, r4
  40741c:	f7ff fc4a 	bl	406cb4 <_fflush_r>
  407420:	9b01      	ldr	r3, [sp, #4]
  407422:	2800      	cmp	r0, #0
  407424:	f47f af28 	bne.w	407278 <__sfvwrite_r+0xfc>
  407428:	461f      	mov	r7, r3
  40742a:	e750      	b.n	4072ce <__sfvwrite_r+0x152>
  40742c:	9800      	ldr	r0, [sp, #0]
  40742e:	f000 fcad 	bl	407d8c <_realloc_r>
  407432:	4683      	mov	fp, r0
  407434:	2800      	cmp	r0, #0
  407436:	d1c5      	bne.n	4073c4 <__sfvwrite_r+0x248>
  407438:	9d00      	ldr	r5, [sp, #0]
  40743a:	6921      	ldr	r1, [r4, #16]
  40743c:	4628      	mov	r0, r5
  40743e:	f7ff fdb7 	bl	406fb0 <_free_r>
  407442:	f9b4 300c 	ldrsh.w	r3, [r4, #12]
  407446:	220c      	movs	r2, #12
  407448:	f023 0380 	bic.w	r3, r3, #128	; 0x80
  40744c:	602a      	str	r2, [r5, #0]
  40744e:	e715      	b.n	40727c <__sfvwrite_r+0x100>
  407450:	f106 0901 	add.w	r9, r6, #1
  407454:	e722      	b.n	40729c <__sfvwrite_r+0x120>
  407456:	f04f 30ff 	mov.w	r0, #4294967295
  40745a:	e6bf      	b.n	4071dc <__sfvwrite_r+0x60>
  40745c:	9a00      	ldr	r2, [sp, #0]
  40745e:	230c      	movs	r3, #12
  407460:	6013      	str	r3, [r2, #0]
  407462:	f9b4 300c 	ldrsh.w	r3, [r4, #12]
  407466:	e709      	b.n	40727c <__sfvwrite_r+0x100>
  407468:	7ffffc00 	.word	0x7ffffc00

0040746c <_fwalk_reent>:
  40746c:	e92d 43f8 	stmdb	sp!, {r3, r4, r5, r6, r7, r8, r9, lr}
  407470:	f510 7738 	adds.w	r7, r0, #736	; 0x2e0
  407474:	d01f      	beq.n	4074b6 <_fwalk_reent+0x4a>
  407476:	4688      	mov	r8, r1
  407478:	4606      	mov	r6, r0
  40747a:	f04f 0900 	mov.w	r9, #0
  40747e:	687d      	ldr	r5, [r7, #4]
  407480:	68bc      	ldr	r4, [r7, #8]
  407482:	3d01      	subs	r5, #1
  407484:	d411      	bmi.n	4074aa <_fwalk_reent+0x3e>
  407486:	89a3      	ldrh	r3, [r4, #12]
  407488:	2b01      	cmp	r3, #1
  40748a:	f105 35ff 	add.w	r5, r5, #4294967295
  40748e:	d908      	bls.n	4074a2 <_fwalk_reent+0x36>
  407490:	f9b4 300e 	ldrsh.w	r3, [r4, #14]
  407494:	3301      	adds	r3, #1
  407496:	4621      	mov	r1, r4
  407498:	4630      	mov	r0, r6
  40749a:	d002      	beq.n	4074a2 <_fwalk_reent+0x36>
  40749c:	47c0      	blx	r8
  40749e:	ea49 0900 	orr.w	r9, r9, r0
  4074a2:	1c6b      	adds	r3, r5, #1
  4074a4:	f104 0468 	add.w	r4, r4, #104	; 0x68
  4074a8:	d1ed      	bne.n	407486 <_fwalk_reent+0x1a>
  4074aa:	683f      	ldr	r7, [r7, #0]
  4074ac:	2f00      	cmp	r7, #0
  4074ae:	d1e6      	bne.n	40747e <_fwalk_reent+0x12>
  4074b0:	4648      	mov	r0, r9
  4074b2:	e8bd 83f8 	ldmia.w	sp!, {r3, r4, r5, r6, r7, r8, r9, pc}
  4074b6:	46b9      	mov	r9, r7
  4074b8:	4648      	mov	r0, r9
  4074ba:	e8bd 83f8 	ldmia.w	sp!, {r3, r4, r5, r6, r7, r8, r9, pc}
  4074be:	bf00      	nop

004074c0 <__locale_mb_cur_max>:
  4074c0:	4b04      	ldr	r3, [pc, #16]	; (4074d4 <__locale_mb_cur_max+0x14>)
  4074c2:	4a05      	ldr	r2, [pc, #20]	; (4074d8 <__locale_mb_cur_max+0x18>)
  4074c4:	681b      	ldr	r3, [r3, #0]
  4074c6:	6b5b      	ldr	r3, [r3, #52]	; 0x34
  4074c8:	2b00      	cmp	r3, #0
  4074ca:	bf08      	it	eq
  4074cc:	4613      	moveq	r3, r2
  4074ce:	f893 0128 	ldrb.w	r0, [r3, #296]	; 0x128
  4074d2:	4770      	bx	lr
  4074d4:	2040000c 	.word	0x2040000c
  4074d8:	2040084c 	.word	0x2040084c

004074dc <_localeconv_r>:
  4074dc:	4a04      	ldr	r2, [pc, #16]	; (4074f0 <_localeconv_r+0x14>)
  4074de:	4b05      	ldr	r3, [pc, #20]	; (4074f4 <_localeconv_r+0x18>)
  4074e0:	6812      	ldr	r2, [r2, #0]
  4074e2:	6b50      	ldr	r0, [r2, #52]	; 0x34
  4074e4:	2800      	cmp	r0, #0
  4074e6:	bf08      	it	eq
  4074e8:	4618      	moveq	r0, r3
  4074ea:	30f0      	adds	r0, #240	; 0xf0
  4074ec:	4770      	bx	lr
  4074ee:	bf00      	nop
  4074f0:	2040000c 	.word	0x2040000c
  4074f4:	2040084c 	.word	0x2040084c

004074f8 <__retarget_lock_init_recursive>:
  4074f8:	4770      	bx	lr
  4074fa:	bf00      	nop

004074fc <__retarget_lock_close_recursive>:
  4074fc:	4770      	bx	lr
  4074fe:	bf00      	nop

00407500 <__retarget_lock_acquire_recursive>:
  407500:	4770      	bx	lr
  407502:	bf00      	nop

00407504 <__retarget_lock_release_recursive>:
  407504:	4770      	bx	lr
  407506:	bf00      	nop

00407508 <__swhatbuf_r>:
  407508:	b570      	push	{r4, r5, r6, lr}
  40750a:	460c      	mov	r4, r1
  40750c:	f9b1 100e 	ldrsh.w	r1, [r1, #14]
  407510:	2900      	cmp	r1, #0
  407512:	b090      	sub	sp, #64	; 0x40
  407514:	4615      	mov	r5, r2
  407516:	461e      	mov	r6, r3
  407518:	db14      	blt.n	407544 <__swhatbuf_r+0x3c>
  40751a:	aa01      	add	r2, sp, #4
  40751c:	f001 f84a 	bl	4085b4 <_fstat_r>
  407520:	2800      	cmp	r0, #0
  407522:	db0f      	blt.n	407544 <__swhatbuf_r+0x3c>
  407524:	9a02      	ldr	r2, [sp, #8]
  407526:	f402 4270 	and.w	r2, r2, #61440	; 0xf000
  40752a:	f5a2 5200 	sub.w	r2, r2, #8192	; 0x2000
  40752e:	fab2 f282 	clz	r2, r2
  407532:	0952      	lsrs	r2, r2, #5
  407534:	f44f 6380 	mov.w	r3, #1024	; 0x400
  407538:	f44f 6000 	mov.w	r0, #2048	; 0x800
  40753c:	6032      	str	r2, [r6, #0]
  40753e:	602b      	str	r3, [r5, #0]
  407540:	b010      	add	sp, #64	; 0x40
  407542:	bd70      	pop	{r4, r5, r6, pc}
  407544:	89a2      	ldrh	r2, [r4, #12]
  407546:	2300      	movs	r3, #0
  407548:	f012 0080 	ands.w	r0, r2, #128	; 0x80
  40754c:	6033      	str	r3, [r6, #0]
  40754e:	d004      	beq.n	40755a <__swhatbuf_r+0x52>
  407550:	2240      	movs	r2, #64	; 0x40
  407552:	4618      	mov	r0, r3
  407554:	602a      	str	r2, [r5, #0]
  407556:	b010      	add	sp, #64	; 0x40
  407558:	bd70      	pop	{r4, r5, r6, pc}
  40755a:	f44f 6380 	mov.w	r3, #1024	; 0x400
  40755e:	602b      	str	r3, [r5, #0]
  407560:	b010      	add	sp, #64	; 0x40
  407562:	bd70      	pop	{r4, r5, r6, pc}

00407564 <__smakebuf_r>:
  407564:	898a      	ldrh	r2, [r1, #12]
  407566:	0792      	lsls	r2, r2, #30
  407568:	460b      	mov	r3, r1
  40756a:	d506      	bpl.n	40757a <__smakebuf_r+0x16>
  40756c:	f101 0243 	add.w	r2, r1, #67	; 0x43
  407570:	2101      	movs	r1, #1
  407572:	601a      	str	r2, [r3, #0]
  407574:	611a      	str	r2, [r3, #16]
  407576:	6159      	str	r1, [r3, #20]
  407578:	4770      	bx	lr
  40757a:	b5f0      	push	{r4, r5, r6, r7, lr}
  40757c:	b083      	sub	sp, #12
  40757e:	ab01      	add	r3, sp, #4
  407580:	466a      	mov	r2, sp
  407582:	460c      	mov	r4, r1
  407584:	4606      	mov	r6, r0
  407586:	f7ff ffbf 	bl	407508 <__swhatbuf_r>
  40758a:	9900      	ldr	r1, [sp, #0]
  40758c:	4605      	mov	r5, r0
  40758e:	4630      	mov	r0, r6
  407590:	f7fb fc40 	bl	402e14 <_malloc_r>
  407594:	f9b4 300c 	ldrsh.w	r3, [r4, #12]
  407598:	b1d8      	cbz	r0, 4075d2 <__smakebuf_r+0x6e>
  40759a:	9a01      	ldr	r2, [sp, #4]
  40759c:	4f15      	ldr	r7, [pc, #84]	; (4075f4 <__smakebuf_r+0x90>)
  40759e:	9900      	ldr	r1, [sp, #0]
  4075a0:	63f7      	str	r7, [r6, #60]	; 0x3c
  4075a2:	f043 0380 	orr.w	r3, r3, #128	; 0x80
  4075a6:	81a3      	strh	r3, [r4, #12]
  4075a8:	6020      	str	r0, [r4, #0]
  4075aa:	6120      	str	r0, [r4, #16]
  4075ac:	6161      	str	r1, [r4, #20]
  4075ae:	b91a      	cbnz	r2, 4075b8 <__smakebuf_r+0x54>
  4075b0:	432b      	orrs	r3, r5
  4075b2:	81a3      	strh	r3, [r4, #12]
  4075b4:	b003      	add	sp, #12
  4075b6:	bdf0      	pop	{r4, r5, r6, r7, pc}
  4075b8:	4630      	mov	r0, r6
  4075ba:	f9b4 100e 	ldrsh.w	r1, [r4, #14]
  4075be:	f001 f80d 	bl	4085dc <_isatty_r>
  4075c2:	b1a0      	cbz	r0, 4075ee <__smakebuf_r+0x8a>
  4075c4:	89a3      	ldrh	r3, [r4, #12]
  4075c6:	f023 0303 	bic.w	r3, r3, #3
  4075ca:	f043 0301 	orr.w	r3, r3, #1
  4075ce:	b21b      	sxth	r3, r3
  4075d0:	e7ee      	b.n	4075b0 <__smakebuf_r+0x4c>
  4075d2:	059a      	lsls	r2, r3, #22
  4075d4:	d4ee      	bmi.n	4075b4 <__smakebuf_r+0x50>
  4075d6:	f023 0303 	bic.w	r3, r3, #3
  4075da:	f104 0243 	add.w	r2, r4, #67	; 0x43
  4075de:	f043 0302 	orr.w	r3, r3, #2
  4075e2:	2101      	movs	r1, #1
  4075e4:	81a3      	strh	r3, [r4, #12]
  4075e6:	6022      	str	r2, [r4, #0]
  4075e8:	6122      	str	r2, [r4, #16]
  4075ea:	6161      	str	r1, [r4, #20]
  4075ec:	e7e2      	b.n	4075b4 <__smakebuf_r+0x50>
  4075ee:	f9b4 300c 	ldrsh.w	r3, [r4, #12]
  4075f2:	e7dd      	b.n	4075b0 <__smakebuf_r+0x4c>
  4075f4:	00406d09 	.word	0x00406d09

004075f8 <__ascii_mbtowc>:
  4075f8:	b082      	sub	sp, #8
  4075fa:	b149      	cbz	r1, 407610 <__ascii_mbtowc+0x18>
  4075fc:	b15a      	cbz	r2, 407616 <__ascii_mbtowc+0x1e>
  4075fe:	b16b      	cbz	r3, 40761c <__ascii_mbtowc+0x24>
  407600:	7813      	ldrb	r3, [r2, #0]
  407602:	600b      	str	r3, [r1, #0]
  407604:	7812      	ldrb	r2, [r2, #0]
  407606:	1c10      	adds	r0, r2, #0
  407608:	bf18      	it	ne
  40760a:	2001      	movne	r0, #1
  40760c:	b002      	add	sp, #8
  40760e:	4770      	bx	lr
  407610:	a901      	add	r1, sp, #4
  407612:	2a00      	cmp	r2, #0
  407614:	d1f3      	bne.n	4075fe <__ascii_mbtowc+0x6>
  407616:	4610      	mov	r0, r2
  407618:	b002      	add	sp, #8
  40761a:	4770      	bx	lr
  40761c:	f06f 0001 	mvn.w	r0, #1
  407620:	e7f4      	b.n	40760c <__ascii_mbtowc+0x14>
  407622:	bf00      	nop
	...

00407630 <memchr>:
  407630:	f001 01ff 	and.w	r1, r1, #255	; 0xff
  407634:	2a10      	cmp	r2, #16
  407636:	db2b      	blt.n	407690 <memchr+0x60>
  407638:	f010 0f07 	tst.w	r0, #7
  40763c:	d008      	beq.n	407650 <memchr+0x20>
  40763e:	f810 3b01 	ldrb.w	r3, [r0], #1
  407642:	3a01      	subs	r2, #1
  407644:	428b      	cmp	r3, r1
  407646:	d02d      	beq.n	4076a4 <memchr+0x74>
  407648:	f010 0f07 	tst.w	r0, #7
  40764c:	b342      	cbz	r2, 4076a0 <memchr+0x70>
  40764e:	d1f6      	bne.n	40763e <memchr+0xe>
  407650:	b4f0      	push	{r4, r5, r6, r7}
  407652:	ea41 2101 	orr.w	r1, r1, r1, lsl #8
  407656:	ea41 4101 	orr.w	r1, r1, r1, lsl #16
  40765a:	f022 0407 	bic.w	r4, r2, #7
  40765e:	f07f 0700 	mvns.w	r7, #0
  407662:	2300      	movs	r3, #0
  407664:	e8f0 5602 	ldrd	r5, r6, [r0], #8
  407668:	3c08      	subs	r4, #8
  40766a:	ea85 0501 	eor.w	r5, r5, r1
  40766e:	ea86 0601 	eor.w	r6, r6, r1
  407672:	fa85 f547 	uadd8	r5, r5, r7
  407676:	faa3 f587 	sel	r5, r3, r7
  40767a:	fa86 f647 	uadd8	r6, r6, r7
  40767e:	faa5 f687 	sel	r6, r5, r7
  407682:	b98e      	cbnz	r6, 4076a8 <memchr+0x78>
  407684:	d1ee      	bne.n	407664 <memchr+0x34>
  407686:	bcf0      	pop	{r4, r5, r6, r7}
  407688:	f001 01ff 	and.w	r1, r1, #255	; 0xff
  40768c:	f002 0207 	and.w	r2, r2, #7
  407690:	b132      	cbz	r2, 4076a0 <memchr+0x70>
  407692:	f810 3b01 	ldrb.w	r3, [r0], #1
  407696:	3a01      	subs	r2, #1
  407698:	ea83 0301 	eor.w	r3, r3, r1
  40769c:	b113      	cbz	r3, 4076a4 <memchr+0x74>
  40769e:	d1f8      	bne.n	407692 <memchr+0x62>
  4076a0:	2000      	movs	r0, #0
  4076a2:	4770      	bx	lr
  4076a4:	3801      	subs	r0, #1
  4076a6:	4770      	bx	lr
  4076a8:	2d00      	cmp	r5, #0
  4076aa:	bf06      	itte	eq
  4076ac:	4635      	moveq	r5, r6
  4076ae:	3803      	subeq	r0, #3
  4076b0:	3807      	subne	r0, #7
  4076b2:	f015 0f01 	tst.w	r5, #1
  4076b6:	d107      	bne.n	4076c8 <memchr+0x98>
  4076b8:	3001      	adds	r0, #1
  4076ba:	f415 7f80 	tst.w	r5, #256	; 0x100
  4076be:	bf02      	ittt	eq
  4076c0:	3001      	addeq	r0, #1
  4076c2:	f415 3fc0 	tsteq.w	r5, #98304	; 0x18000
  4076c6:	3001      	addeq	r0, #1
  4076c8:	bcf0      	pop	{r4, r5, r6, r7}
  4076ca:	3801      	subs	r0, #1
  4076cc:	4770      	bx	lr
  4076ce:	bf00      	nop

004076d0 <memmove>:
  4076d0:	4288      	cmp	r0, r1
  4076d2:	b5f0      	push	{r4, r5, r6, r7, lr}
  4076d4:	d90d      	bls.n	4076f2 <memmove+0x22>
  4076d6:	188b      	adds	r3, r1, r2
  4076d8:	4298      	cmp	r0, r3
  4076da:	d20a      	bcs.n	4076f2 <memmove+0x22>
  4076dc:	1884      	adds	r4, r0, r2
  4076de:	2a00      	cmp	r2, #0
  4076e0:	d051      	beq.n	407786 <memmove+0xb6>
  4076e2:	4622      	mov	r2, r4
  4076e4:	f813 4d01 	ldrb.w	r4, [r3, #-1]!
  4076e8:	f802 4d01 	strb.w	r4, [r2, #-1]!
  4076ec:	4299      	cmp	r1, r3
  4076ee:	d1f9      	bne.n	4076e4 <memmove+0x14>
  4076f0:	bdf0      	pop	{r4, r5, r6, r7, pc}
  4076f2:	2a0f      	cmp	r2, #15
  4076f4:	d948      	bls.n	407788 <memmove+0xb8>
  4076f6:	ea41 0300 	orr.w	r3, r1, r0
  4076fa:	079b      	lsls	r3, r3, #30
  4076fc:	d146      	bne.n	40778c <memmove+0xbc>
  4076fe:	f100 0410 	add.w	r4, r0, #16
  407702:	f101 0310 	add.w	r3, r1, #16
  407706:	4615      	mov	r5, r2
  407708:	f853 6c10 	ldr.w	r6, [r3, #-16]
  40770c:	f844 6c10 	str.w	r6, [r4, #-16]
  407710:	f853 6c0c 	ldr.w	r6, [r3, #-12]
  407714:	f844 6c0c 	str.w	r6, [r4, #-12]
  407718:	f853 6c08 	ldr.w	r6, [r3, #-8]
  40771c:	f844 6c08 	str.w	r6, [r4, #-8]
  407720:	3d10      	subs	r5, #16
  407722:	f853 6c04 	ldr.w	r6, [r3, #-4]
  407726:	f844 6c04 	str.w	r6, [r4, #-4]
  40772a:	2d0f      	cmp	r5, #15
  40772c:	f103 0310 	add.w	r3, r3, #16
  407730:	f104 0410 	add.w	r4, r4, #16
  407734:	d8e8      	bhi.n	407708 <memmove+0x38>
  407736:	f1a2 0310 	sub.w	r3, r2, #16
  40773a:	f023 030f 	bic.w	r3, r3, #15
  40773e:	f002 0e0f 	and.w	lr, r2, #15
  407742:	3310      	adds	r3, #16
  407744:	f1be 0f03 	cmp.w	lr, #3
  407748:	4419      	add	r1, r3
  40774a:	4403      	add	r3, r0
  40774c:	d921      	bls.n	407792 <memmove+0xc2>
  40774e:	1f1e      	subs	r6, r3, #4
  407750:	460d      	mov	r5, r1
  407752:	4674      	mov	r4, lr
  407754:	3c04      	subs	r4, #4
  407756:	f855 7b04 	ldr.w	r7, [r5], #4
  40775a:	f846 7f04 	str.w	r7, [r6, #4]!
  40775e:	2c03      	cmp	r4, #3
  407760:	d8f8      	bhi.n	407754 <memmove+0x84>
  407762:	f1ae 0404 	sub.w	r4, lr, #4
  407766:	f024 0403 	bic.w	r4, r4, #3
  40776a:	3404      	adds	r4, #4
  40776c:	4421      	add	r1, r4
  40776e:	4423      	add	r3, r4
  407770:	f002 0203 	and.w	r2, r2, #3
  407774:	b162      	cbz	r2, 407790 <memmove+0xc0>
  407776:	3b01      	subs	r3, #1
  407778:	440a      	add	r2, r1
  40777a:	f811 4b01 	ldrb.w	r4, [r1], #1
  40777e:	f803 4f01 	strb.w	r4, [r3, #1]!
  407782:	428a      	cmp	r2, r1
  407784:	d1f9      	bne.n	40777a <memmove+0xaa>
  407786:	bdf0      	pop	{r4, r5, r6, r7, pc}
  407788:	4603      	mov	r3, r0
  40778a:	e7f3      	b.n	407774 <memmove+0xa4>
  40778c:	4603      	mov	r3, r0
  40778e:	e7f2      	b.n	407776 <memmove+0xa6>
  407790:	bdf0      	pop	{r4, r5, r6, r7, pc}
  407792:	4672      	mov	r2, lr
  407794:	e7ee      	b.n	407774 <memmove+0xa4>
  407796:	bf00      	nop

00407798 <_Balloc>:
  407798:	6cc3      	ldr	r3, [r0, #76]	; 0x4c
  40779a:	b570      	push	{r4, r5, r6, lr}
  40779c:	4605      	mov	r5, r0
  40779e:	460c      	mov	r4, r1
  4077a0:	b14b      	cbz	r3, 4077b6 <_Balloc+0x1e>
  4077a2:	f853 0024 	ldr.w	r0, [r3, r4, lsl #2]
  4077a6:	b180      	cbz	r0, 4077ca <_Balloc+0x32>
  4077a8:	6802      	ldr	r2, [r0, #0]
  4077aa:	f843 2024 	str.w	r2, [r3, r4, lsl #2]
  4077ae:	2300      	movs	r3, #0
  4077b0:	6103      	str	r3, [r0, #16]
  4077b2:	60c3      	str	r3, [r0, #12]
  4077b4:	bd70      	pop	{r4, r5, r6, pc}
  4077b6:	2221      	movs	r2, #33	; 0x21
  4077b8:	2104      	movs	r1, #4
  4077ba:	f000 fe57 	bl	40846c <_calloc_r>
  4077be:	64e8      	str	r0, [r5, #76]	; 0x4c
  4077c0:	4603      	mov	r3, r0
  4077c2:	2800      	cmp	r0, #0
  4077c4:	d1ed      	bne.n	4077a2 <_Balloc+0xa>
  4077c6:	2000      	movs	r0, #0
  4077c8:	bd70      	pop	{r4, r5, r6, pc}
  4077ca:	2101      	movs	r1, #1
  4077cc:	fa01 f604 	lsl.w	r6, r1, r4
  4077d0:	1d72      	adds	r2, r6, #5
  4077d2:	4628      	mov	r0, r5
  4077d4:	0092      	lsls	r2, r2, #2
  4077d6:	f000 fe49 	bl	40846c <_calloc_r>
  4077da:	2800      	cmp	r0, #0
  4077dc:	d0f3      	beq.n	4077c6 <_Balloc+0x2e>
  4077de:	6044      	str	r4, [r0, #4]
  4077e0:	6086      	str	r6, [r0, #8]
  4077e2:	e7e4      	b.n	4077ae <_Balloc+0x16>

004077e4 <_Bfree>:
  4077e4:	b131      	cbz	r1, 4077f4 <_Bfree+0x10>
  4077e6:	6cc3      	ldr	r3, [r0, #76]	; 0x4c
  4077e8:	684a      	ldr	r2, [r1, #4]
  4077ea:	f853 0022 	ldr.w	r0, [r3, r2, lsl #2]
  4077ee:	6008      	str	r0, [r1, #0]
  4077f0:	f843 1022 	str.w	r1, [r3, r2, lsl #2]
  4077f4:	4770      	bx	lr
  4077f6:	bf00      	nop

004077f8 <__multadd>:
  4077f8:	b5f0      	push	{r4, r5, r6, r7, lr}
  4077fa:	690c      	ldr	r4, [r1, #16]
  4077fc:	b083      	sub	sp, #12
  4077fe:	460d      	mov	r5, r1
  407800:	4606      	mov	r6, r0
  407802:	f101 0e14 	add.w	lr, r1, #20
  407806:	2700      	movs	r7, #0
  407808:	f8de 0000 	ldr.w	r0, [lr]
  40780c:	b281      	uxth	r1, r0
  40780e:	fb02 3301 	mla	r3, r2, r1, r3
  407812:	0c01      	lsrs	r1, r0, #16
  407814:	0c18      	lsrs	r0, r3, #16
  407816:	fb02 0101 	mla	r1, r2, r1, r0
  40781a:	b29b      	uxth	r3, r3
  40781c:	3701      	adds	r7, #1
  40781e:	eb03 4301 	add.w	r3, r3, r1, lsl #16
  407822:	42bc      	cmp	r4, r7
  407824:	f84e 3b04 	str.w	r3, [lr], #4
  407828:	ea4f 4311 	mov.w	r3, r1, lsr #16
  40782c:	dcec      	bgt.n	407808 <__multadd+0x10>
  40782e:	b13b      	cbz	r3, 407840 <__multadd+0x48>
  407830:	68aa      	ldr	r2, [r5, #8]
  407832:	4294      	cmp	r4, r2
  407834:	da07      	bge.n	407846 <__multadd+0x4e>
  407836:	eb05 0284 	add.w	r2, r5, r4, lsl #2
  40783a:	3401      	adds	r4, #1
  40783c:	6153      	str	r3, [r2, #20]
  40783e:	612c      	str	r4, [r5, #16]
  407840:	4628      	mov	r0, r5
  407842:	b003      	add	sp, #12
  407844:	bdf0      	pop	{r4, r5, r6, r7, pc}
  407846:	6869      	ldr	r1, [r5, #4]
  407848:	9301      	str	r3, [sp, #4]
  40784a:	3101      	adds	r1, #1
  40784c:	4630      	mov	r0, r6
  40784e:	f7ff ffa3 	bl	407798 <_Balloc>
  407852:	692a      	ldr	r2, [r5, #16]
  407854:	3202      	adds	r2, #2
  407856:	f105 010c 	add.w	r1, r5, #12
  40785a:	4607      	mov	r7, r0
  40785c:	0092      	lsls	r2, r2, #2
  40785e:	300c      	adds	r0, #12
  407860:	f7fb fd88 	bl	403374 <memcpy>
  407864:	6cf2      	ldr	r2, [r6, #76]	; 0x4c
  407866:	6869      	ldr	r1, [r5, #4]
  407868:	9b01      	ldr	r3, [sp, #4]
  40786a:	f852 0021 	ldr.w	r0, [r2, r1, lsl #2]
  40786e:	6028      	str	r0, [r5, #0]
  407870:	f842 5021 	str.w	r5, [r2, r1, lsl #2]
  407874:	463d      	mov	r5, r7
  407876:	e7de      	b.n	407836 <__multadd+0x3e>

00407878 <__hi0bits>:
  407878:	0c02      	lsrs	r2, r0, #16
  40787a:	0412      	lsls	r2, r2, #16
  40787c:	4603      	mov	r3, r0
  40787e:	b9b2      	cbnz	r2, 4078ae <__hi0bits+0x36>
  407880:	0403      	lsls	r3, r0, #16
  407882:	2010      	movs	r0, #16
  407884:	f013 4f7f 	tst.w	r3, #4278190080	; 0xff000000
  407888:	bf04      	itt	eq
  40788a:	021b      	lsleq	r3, r3, #8
  40788c:	3008      	addeq	r0, #8
  40788e:	f013 4f70 	tst.w	r3, #4026531840	; 0xf0000000
  407892:	bf04      	itt	eq
  407894:	011b      	lsleq	r3, r3, #4
  407896:	3004      	addeq	r0, #4
  407898:	f013 4f40 	tst.w	r3, #3221225472	; 0xc0000000
  40789c:	bf04      	itt	eq
  40789e:	009b      	lsleq	r3, r3, #2
  4078a0:	3002      	addeq	r0, #2
  4078a2:	2b00      	cmp	r3, #0
  4078a4:	db02      	blt.n	4078ac <__hi0bits+0x34>
  4078a6:	005b      	lsls	r3, r3, #1
  4078a8:	d403      	bmi.n	4078b2 <__hi0bits+0x3a>
  4078aa:	2020      	movs	r0, #32
  4078ac:	4770      	bx	lr
  4078ae:	2000      	movs	r0, #0
  4078b0:	e7e8      	b.n	407884 <__hi0bits+0xc>
  4078b2:	3001      	adds	r0, #1
  4078b4:	4770      	bx	lr
  4078b6:	bf00      	nop

004078b8 <__lo0bits>:
  4078b8:	6803      	ldr	r3, [r0, #0]
  4078ba:	f013 0207 	ands.w	r2, r3, #7
  4078be:	4601      	mov	r1, r0
  4078c0:	d007      	beq.n	4078d2 <__lo0bits+0x1a>
  4078c2:	07da      	lsls	r2, r3, #31
  4078c4:	d421      	bmi.n	40790a <__lo0bits+0x52>
  4078c6:	0798      	lsls	r0, r3, #30
  4078c8:	d421      	bmi.n	40790e <__lo0bits+0x56>
  4078ca:	089b      	lsrs	r3, r3, #2
  4078cc:	600b      	str	r3, [r1, #0]
  4078ce:	2002      	movs	r0, #2
  4078d0:	4770      	bx	lr
  4078d2:	b298      	uxth	r0, r3
  4078d4:	b198      	cbz	r0, 4078fe <__lo0bits+0x46>
  4078d6:	4610      	mov	r0, r2
  4078d8:	f013 0fff 	tst.w	r3, #255	; 0xff
  4078dc:	bf04      	itt	eq
  4078de:	0a1b      	lsreq	r3, r3, #8
  4078e0:	3008      	addeq	r0, #8
  4078e2:	071a      	lsls	r2, r3, #28
  4078e4:	bf04      	itt	eq
  4078e6:	091b      	lsreq	r3, r3, #4
  4078e8:	3004      	addeq	r0, #4
  4078ea:	079a      	lsls	r2, r3, #30
  4078ec:	bf04      	itt	eq
  4078ee:	089b      	lsreq	r3, r3, #2
  4078f0:	3002      	addeq	r0, #2
  4078f2:	07da      	lsls	r2, r3, #31
  4078f4:	d407      	bmi.n	407906 <__lo0bits+0x4e>
  4078f6:	085b      	lsrs	r3, r3, #1
  4078f8:	d104      	bne.n	407904 <__lo0bits+0x4c>
  4078fa:	2020      	movs	r0, #32
  4078fc:	4770      	bx	lr
  4078fe:	0c1b      	lsrs	r3, r3, #16
  407900:	2010      	movs	r0, #16
  407902:	e7e9      	b.n	4078d8 <__lo0bits+0x20>
  407904:	3001      	adds	r0, #1
  407906:	600b      	str	r3, [r1, #0]
  407908:	4770      	bx	lr
  40790a:	2000      	movs	r0, #0
  40790c:	4770      	bx	lr
  40790e:	085b      	lsrs	r3, r3, #1
  407910:	600b      	str	r3, [r1, #0]
  407912:	2001      	movs	r0, #1
  407914:	4770      	bx	lr
  407916:	bf00      	nop

00407918 <__i2b>:
  407918:	b510      	push	{r4, lr}
  40791a:	460c      	mov	r4, r1
  40791c:	2101      	movs	r1, #1
  40791e:	f7ff ff3b 	bl	407798 <_Balloc>
  407922:	2201      	movs	r2, #1
  407924:	6144      	str	r4, [r0, #20]
  407926:	6102      	str	r2, [r0, #16]
  407928:	bd10      	pop	{r4, pc}
  40792a:	bf00      	nop

0040792c <__multiply>:
  40792c:	e92d 4ff0 	stmdb	sp!, {r4, r5, r6, r7, r8, r9, sl, fp, lr}
  407930:	690c      	ldr	r4, [r1, #16]
  407932:	6915      	ldr	r5, [r2, #16]
  407934:	42ac      	cmp	r4, r5
  407936:	b083      	sub	sp, #12
  407938:	468b      	mov	fp, r1
  40793a:	4616      	mov	r6, r2
  40793c:	da04      	bge.n	407948 <__multiply+0x1c>
  40793e:	4622      	mov	r2, r4
  407940:	46b3      	mov	fp, r6
  407942:	462c      	mov	r4, r5
  407944:	460e      	mov	r6, r1
  407946:	4615      	mov	r5, r2
  407948:	f8db 3008 	ldr.w	r3, [fp, #8]
  40794c:	f8db 1004 	ldr.w	r1, [fp, #4]
  407950:	eb04 0805 	add.w	r8, r4, r5
  407954:	4598      	cmp	r8, r3
  407956:	bfc8      	it	gt
  407958:	3101      	addgt	r1, #1
  40795a:	f7ff ff1d 	bl	407798 <_Balloc>
  40795e:	f100 0914 	add.w	r9, r0, #20
  407962:	eb09 0a88 	add.w	sl, r9, r8, lsl #2
  407966:	45d1      	cmp	r9, sl
  407968:	9000      	str	r0, [sp, #0]
  40796a:	d205      	bcs.n	407978 <__multiply+0x4c>
  40796c:	464b      	mov	r3, r9
  40796e:	2100      	movs	r1, #0
  407970:	f843 1b04 	str.w	r1, [r3], #4
  407974:	459a      	cmp	sl, r3
  407976:	d8fb      	bhi.n	407970 <__multiply+0x44>
  407978:	f106 0c14 	add.w	ip, r6, #20
  40797c:	eb0c 0385 	add.w	r3, ip, r5, lsl #2
  407980:	f10b 0b14 	add.w	fp, fp, #20
  407984:	459c      	cmp	ip, r3
  407986:	eb0b 0e84 	add.w	lr, fp, r4, lsl #2
  40798a:	d24c      	bcs.n	407a26 <__multiply+0xfa>
  40798c:	f8cd a004 	str.w	sl, [sp, #4]
  407990:	469a      	mov	sl, r3
  407992:	f8dc 5000 	ldr.w	r5, [ip]
  407996:	b2af      	uxth	r7, r5
  407998:	b1ef      	cbz	r7, 4079d6 <__multiply+0xaa>
  40799a:	2100      	movs	r1, #0
  40799c:	464d      	mov	r5, r9
  40799e:	465e      	mov	r6, fp
  4079a0:	460c      	mov	r4, r1
  4079a2:	f856 2b04 	ldr.w	r2, [r6], #4
  4079a6:	6828      	ldr	r0, [r5, #0]
  4079a8:	b293      	uxth	r3, r2
  4079aa:	b281      	uxth	r1, r0
  4079ac:	fb07 1303 	mla	r3, r7, r3, r1
  4079b0:	0c12      	lsrs	r2, r2, #16
  4079b2:	0c01      	lsrs	r1, r0, #16
  4079b4:	4423      	add	r3, r4
  4079b6:	fb07 1102 	mla	r1, r7, r2, r1
  4079ba:	eb01 4113 	add.w	r1, r1, r3, lsr #16
  4079be:	b29b      	uxth	r3, r3
  4079c0:	ea43 4301 	orr.w	r3, r3, r1, lsl #16
  4079c4:	45b6      	cmp	lr, r6
  4079c6:	f845 3b04 	str.w	r3, [r5], #4
  4079ca:	ea4f 4411 	mov.w	r4, r1, lsr #16
  4079ce:	d8e8      	bhi.n	4079a2 <__multiply+0x76>
  4079d0:	602c      	str	r4, [r5, #0]
  4079d2:	f8dc 5000 	ldr.w	r5, [ip]
  4079d6:	0c2d      	lsrs	r5, r5, #16
  4079d8:	d01d      	beq.n	407a16 <__multiply+0xea>
  4079da:	f8d9 3000 	ldr.w	r3, [r9]
  4079de:	4648      	mov	r0, r9
  4079e0:	461c      	mov	r4, r3
  4079e2:	4659      	mov	r1, fp
  4079e4:	2200      	movs	r2, #0
  4079e6:	880e      	ldrh	r6, [r1, #0]
  4079e8:	0c24      	lsrs	r4, r4, #16
  4079ea:	fb05 4406 	mla	r4, r5, r6, r4
  4079ee:	4422      	add	r2, r4
  4079f0:	b29b      	uxth	r3, r3
  4079f2:	ea43 4302 	orr.w	r3, r3, r2, lsl #16
  4079f6:	f840 3b04 	str.w	r3, [r0], #4
  4079fa:	f851 3b04 	ldr.w	r3, [r1], #4
  4079fe:	6804      	ldr	r4, [r0, #0]
  407a00:	0c1b      	lsrs	r3, r3, #16
  407a02:	b2a6      	uxth	r6, r4
  407a04:	fb05 6303 	mla	r3, r5, r3, r6
  407a08:	eb03 4312 	add.w	r3, r3, r2, lsr #16
  407a0c:	458e      	cmp	lr, r1
  407a0e:	ea4f 4213 	mov.w	r2, r3, lsr #16
  407a12:	d8e8      	bhi.n	4079e6 <__multiply+0xba>
  407a14:	6003      	str	r3, [r0, #0]
  407a16:	f10c 0c04 	add.w	ip, ip, #4
  407a1a:	45e2      	cmp	sl, ip
  407a1c:	f109 0904 	add.w	r9, r9, #4
  407a20:	d8b7      	bhi.n	407992 <__multiply+0x66>
  407a22:	f8dd a004 	ldr.w	sl, [sp, #4]
  407a26:	f1b8 0f00 	cmp.w	r8, #0
  407a2a:	dd0b      	ble.n	407a44 <__multiply+0x118>
  407a2c:	f85a 3c04 	ldr.w	r3, [sl, #-4]
  407a30:	f1aa 0a04 	sub.w	sl, sl, #4
  407a34:	b11b      	cbz	r3, 407a3e <__multiply+0x112>
  407a36:	e005      	b.n	407a44 <__multiply+0x118>
  407a38:	f85a 3d04 	ldr.w	r3, [sl, #-4]!
  407a3c:	b913      	cbnz	r3, 407a44 <__multiply+0x118>
  407a3e:	f1b8 0801 	subs.w	r8, r8, #1
  407a42:	d1f9      	bne.n	407a38 <__multiply+0x10c>
  407a44:	9800      	ldr	r0, [sp, #0]
  407a46:	f8c0 8010 	str.w	r8, [r0, #16]
  407a4a:	b003      	add	sp, #12
  407a4c:	e8bd 8ff0 	ldmia.w	sp!, {r4, r5, r6, r7, r8, r9, sl, fp, pc}

00407a50 <__pow5mult>:
  407a50:	f012 0303 	ands.w	r3, r2, #3
  407a54:	e92d 41f0 	stmdb	sp!, {r4, r5, r6, r7, r8, lr}
  407a58:	4614      	mov	r4, r2
  407a5a:	4607      	mov	r7, r0
  407a5c:	d12e      	bne.n	407abc <__pow5mult+0x6c>
  407a5e:	460d      	mov	r5, r1
  407a60:	10a4      	asrs	r4, r4, #2
  407a62:	d01c      	beq.n	407a9e <__pow5mult+0x4e>
  407a64:	6cbe      	ldr	r6, [r7, #72]	; 0x48
  407a66:	b396      	cbz	r6, 407ace <__pow5mult+0x7e>
  407a68:	07e3      	lsls	r3, r4, #31
  407a6a:	f04f 0800 	mov.w	r8, #0
  407a6e:	d406      	bmi.n	407a7e <__pow5mult+0x2e>
  407a70:	1064      	asrs	r4, r4, #1
  407a72:	d014      	beq.n	407a9e <__pow5mult+0x4e>
  407a74:	6830      	ldr	r0, [r6, #0]
  407a76:	b1a8      	cbz	r0, 407aa4 <__pow5mult+0x54>
  407a78:	4606      	mov	r6, r0
  407a7a:	07e3      	lsls	r3, r4, #31
  407a7c:	d5f8      	bpl.n	407a70 <__pow5mult+0x20>
  407a7e:	4632      	mov	r2, r6
  407a80:	4629      	mov	r1, r5
  407a82:	4638      	mov	r0, r7
  407a84:	f7ff ff52 	bl	40792c <__multiply>
  407a88:	b1b5      	cbz	r5, 407ab8 <__pow5mult+0x68>
  407a8a:	686a      	ldr	r2, [r5, #4]
  407a8c:	6cfb      	ldr	r3, [r7, #76]	; 0x4c
  407a8e:	1064      	asrs	r4, r4, #1
  407a90:	f853 1022 	ldr.w	r1, [r3, r2, lsl #2]
  407a94:	6029      	str	r1, [r5, #0]
  407a96:	f843 5022 	str.w	r5, [r3, r2, lsl #2]
  407a9a:	4605      	mov	r5, r0
  407a9c:	d1ea      	bne.n	407a74 <__pow5mult+0x24>
  407a9e:	4628      	mov	r0, r5
  407aa0:	e8bd 81f0 	ldmia.w	sp!, {r4, r5, r6, r7, r8, pc}
  407aa4:	4632      	mov	r2, r6
  407aa6:	4631      	mov	r1, r6
  407aa8:	4638      	mov	r0, r7
  407aaa:	f7ff ff3f 	bl	40792c <__multiply>
  407aae:	6030      	str	r0, [r6, #0]
  407ab0:	f8c0 8000 	str.w	r8, [r0]
  407ab4:	4606      	mov	r6, r0
  407ab6:	e7e0      	b.n	407a7a <__pow5mult+0x2a>
  407ab8:	4605      	mov	r5, r0
  407aba:	e7d9      	b.n	407a70 <__pow5mult+0x20>
  407abc:	1e5a      	subs	r2, r3, #1
  407abe:	4d0b      	ldr	r5, [pc, #44]	; (407aec <__pow5mult+0x9c>)
  407ac0:	2300      	movs	r3, #0
  407ac2:	f855 2022 	ldr.w	r2, [r5, r2, lsl #2]
  407ac6:	f7ff fe97 	bl	4077f8 <__multadd>
  407aca:	4605      	mov	r5, r0
  407acc:	e7c8      	b.n	407a60 <__pow5mult+0x10>
  407ace:	2101      	movs	r1, #1
  407ad0:	4638      	mov	r0, r7
  407ad2:	f7ff fe61 	bl	407798 <_Balloc>
  407ad6:	f240 2171 	movw	r1, #625	; 0x271
  407ada:	2201      	movs	r2, #1
  407adc:	2300      	movs	r3, #0
  407ade:	6141      	str	r1, [r0, #20]
  407ae0:	6102      	str	r2, [r0, #16]
  407ae2:	4606      	mov	r6, r0
  407ae4:	64b8      	str	r0, [r7, #72]	; 0x48
  407ae6:	6003      	str	r3, [r0, #0]
  407ae8:	e7be      	b.n	407a68 <__pow5mult+0x18>
  407aea:	bf00      	nop
  407aec:	00409550 	.word	0x00409550

00407af0 <__lshift>:
  407af0:	e92d 43f8 	stmdb	sp!, {r3, r4, r5, r6, r7, r8, r9, lr}
  407af4:	4691      	mov	r9, r2
  407af6:	690a      	ldr	r2, [r1, #16]
  407af8:	688b      	ldr	r3, [r1, #8]
  407afa:	ea4f 1469 	mov.w	r4, r9, asr #5
  407afe:	eb04 0802 	add.w	r8, r4, r2
  407b02:	f108 0501 	add.w	r5, r8, #1
  407b06:	429d      	cmp	r5, r3
  407b08:	460e      	mov	r6, r1
  407b0a:	4607      	mov	r7, r0
  407b0c:	6849      	ldr	r1, [r1, #4]
  407b0e:	dd04      	ble.n	407b1a <__lshift+0x2a>
  407b10:	005b      	lsls	r3, r3, #1
  407b12:	429d      	cmp	r5, r3
  407b14:	f101 0101 	add.w	r1, r1, #1
  407b18:	dcfa      	bgt.n	407b10 <__lshift+0x20>
  407b1a:	4638      	mov	r0, r7
  407b1c:	f7ff fe3c 	bl	407798 <_Balloc>
  407b20:	2c00      	cmp	r4, #0
  407b22:	f100 0314 	add.w	r3, r0, #20
  407b26:	dd06      	ble.n	407b36 <__lshift+0x46>
  407b28:	eb03 0284 	add.w	r2, r3, r4, lsl #2
  407b2c:	2100      	movs	r1, #0
  407b2e:	f843 1b04 	str.w	r1, [r3], #4
  407b32:	429a      	cmp	r2, r3
  407b34:	d1fb      	bne.n	407b2e <__lshift+0x3e>
  407b36:	6934      	ldr	r4, [r6, #16]
  407b38:	f106 0114 	add.w	r1, r6, #20
  407b3c:	f019 091f 	ands.w	r9, r9, #31
  407b40:	eb01 0e84 	add.w	lr, r1, r4, lsl #2
  407b44:	d01d      	beq.n	407b82 <__lshift+0x92>
  407b46:	f1c9 0c20 	rsb	ip, r9, #32
  407b4a:	2200      	movs	r2, #0
  407b4c:	680c      	ldr	r4, [r1, #0]
  407b4e:	fa04 f409 	lsl.w	r4, r4, r9
  407b52:	4314      	orrs	r4, r2
  407b54:	f843 4b04 	str.w	r4, [r3], #4
  407b58:	f851 2b04 	ldr.w	r2, [r1], #4
  407b5c:	458e      	cmp	lr, r1
  407b5e:	fa22 f20c 	lsr.w	r2, r2, ip
  407b62:	d8f3      	bhi.n	407b4c <__lshift+0x5c>
  407b64:	601a      	str	r2, [r3, #0]
  407b66:	b10a      	cbz	r2, 407b6c <__lshift+0x7c>
  407b68:	f108 0502 	add.w	r5, r8, #2
  407b6c:	6cfb      	ldr	r3, [r7, #76]	; 0x4c
  407b6e:	6872      	ldr	r2, [r6, #4]
  407b70:	3d01      	subs	r5, #1
  407b72:	f853 1022 	ldr.w	r1, [r3, r2, lsl #2]
  407b76:	6105      	str	r5, [r0, #16]
  407b78:	6031      	str	r1, [r6, #0]
  407b7a:	f843 6022 	str.w	r6, [r3, r2, lsl #2]
  407b7e:	e8bd 83f8 	ldmia.w	sp!, {r3, r4, r5, r6, r7, r8, r9, pc}
  407b82:	3b04      	subs	r3, #4
  407b84:	f851 2b04 	ldr.w	r2, [r1], #4
  407b88:	f843 2f04 	str.w	r2, [r3, #4]!
  407b8c:	458e      	cmp	lr, r1
  407b8e:	d8f9      	bhi.n	407b84 <__lshift+0x94>
  407b90:	e7ec      	b.n	407b6c <__lshift+0x7c>
  407b92:	bf00      	nop

00407b94 <__mcmp>:
  407b94:	b430      	push	{r4, r5}
  407b96:	690b      	ldr	r3, [r1, #16]
  407b98:	4605      	mov	r5, r0
  407b9a:	6900      	ldr	r0, [r0, #16]
  407b9c:	1ac0      	subs	r0, r0, r3
  407b9e:	d10f      	bne.n	407bc0 <__mcmp+0x2c>
  407ba0:	009b      	lsls	r3, r3, #2
  407ba2:	3514      	adds	r5, #20
  407ba4:	3114      	adds	r1, #20
  407ba6:	4419      	add	r1, r3
  407ba8:	442b      	add	r3, r5
  407baa:	e001      	b.n	407bb0 <__mcmp+0x1c>
  407bac:	429d      	cmp	r5, r3
  407bae:	d207      	bcs.n	407bc0 <__mcmp+0x2c>
  407bb0:	f853 4d04 	ldr.w	r4, [r3, #-4]!
  407bb4:	f851 2d04 	ldr.w	r2, [r1, #-4]!
  407bb8:	4294      	cmp	r4, r2
  407bba:	d0f7      	beq.n	407bac <__mcmp+0x18>
  407bbc:	d302      	bcc.n	407bc4 <__mcmp+0x30>
  407bbe:	2001      	movs	r0, #1
  407bc0:	bc30      	pop	{r4, r5}
  407bc2:	4770      	bx	lr
  407bc4:	f04f 30ff 	mov.w	r0, #4294967295
  407bc8:	e7fa      	b.n	407bc0 <__mcmp+0x2c>
  407bca:	bf00      	nop

00407bcc <__mdiff>:
  407bcc:	e92d 41f0 	stmdb	sp!, {r4, r5, r6, r7, r8, lr}
  407bd0:	690f      	ldr	r7, [r1, #16]
  407bd2:	460e      	mov	r6, r1
  407bd4:	6911      	ldr	r1, [r2, #16]
  407bd6:	1a7f      	subs	r7, r7, r1
  407bd8:	2f00      	cmp	r7, #0
  407bda:	4690      	mov	r8, r2
  407bdc:	d117      	bne.n	407c0e <__mdiff+0x42>
  407bde:	0089      	lsls	r1, r1, #2
  407be0:	f106 0514 	add.w	r5, r6, #20
  407be4:	f102 0e14 	add.w	lr, r2, #20
  407be8:	186b      	adds	r3, r5, r1
  407bea:	4471      	add	r1, lr
  407bec:	e001      	b.n	407bf2 <__mdiff+0x26>
  407bee:	429d      	cmp	r5, r3
  407bf0:	d25c      	bcs.n	407cac <__mdiff+0xe0>
  407bf2:	f853 2d04 	ldr.w	r2, [r3, #-4]!
  407bf6:	f851 4d04 	ldr.w	r4, [r1, #-4]!
  407bfa:	42a2      	cmp	r2, r4
  407bfc:	d0f7      	beq.n	407bee <__mdiff+0x22>
  407bfe:	d25e      	bcs.n	407cbe <__mdiff+0xf2>
  407c00:	4633      	mov	r3, r6
  407c02:	462c      	mov	r4, r5
  407c04:	4646      	mov	r6, r8
  407c06:	4675      	mov	r5, lr
  407c08:	4698      	mov	r8, r3
  407c0a:	2701      	movs	r7, #1
  407c0c:	e005      	b.n	407c1a <__mdiff+0x4e>
  407c0e:	db58      	blt.n	407cc2 <__mdiff+0xf6>
  407c10:	f106 0514 	add.w	r5, r6, #20
  407c14:	f108 0414 	add.w	r4, r8, #20
  407c18:	2700      	movs	r7, #0
  407c1a:	6871      	ldr	r1, [r6, #4]
  407c1c:	f7ff fdbc 	bl	407798 <_Balloc>
  407c20:	f8d8 3010 	ldr.w	r3, [r8, #16]
  407c24:	6936      	ldr	r6, [r6, #16]
  407c26:	60c7      	str	r7, [r0, #12]
  407c28:	eb04 0c83 	add.w	ip, r4, r3, lsl #2
  407c2c:	46a6      	mov	lr, r4
  407c2e:	eb05 0786 	add.w	r7, r5, r6, lsl #2
  407c32:	f100 0414 	add.w	r4, r0, #20
  407c36:	2300      	movs	r3, #0
  407c38:	f85e 1b04 	ldr.w	r1, [lr], #4
  407c3c:	f855 8b04 	ldr.w	r8, [r5], #4
  407c40:	b28a      	uxth	r2, r1
  407c42:	fa13 f388 	uxtah	r3, r3, r8
  407c46:	0c09      	lsrs	r1, r1, #16
  407c48:	1a9a      	subs	r2, r3, r2
  407c4a:	ebc1 4318 	rsb	r3, r1, r8, lsr #16
  407c4e:	eb03 4322 	add.w	r3, r3, r2, asr #16
  407c52:	b292      	uxth	r2, r2
  407c54:	ea42 4203 	orr.w	r2, r2, r3, lsl #16
  407c58:	45f4      	cmp	ip, lr
  407c5a:	f844 2b04 	str.w	r2, [r4], #4
  407c5e:	ea4f 4323 	mov.w	r3, r3, asr #16
  407c62:	d8e9      	bhi.n	407c38 <__mdiff+0x6c>
  407c64:	42af      	cmp	r7, r5
  407c66:	d917      	bls.n	407c98 <__mdiff+0xcc>
  407c68:	46a4      	mov	ip, r4
  407c6a:	46ae      	mov	lr, r5
  407c6c:	f85e 2b04 	ldr.w	r2, [lr], #4
  407c70:	fa13 f382 	uxtah	r3, r3, r2
  407c74:	1419      	asrs	r1, r3, #16
  407c76:	eb01 4112 	add.w	r1, r1, r2, lsr #16
  407c7a:	b29b      	uxth	r3, r3
  407c7c:	ea43 4201 	orr.w	r2, r3, r1, lsl #16
  407c80:	4577      	cmp	r7, lr
  407c82:	f84c 2b04 	str.w	r2, [ip], #4
  407c86:	ea4f 4321 	mov.w	r3, r1, asr #16
  407c8a:	d8ef      	bhi.n	407c6c <__mdiff+0xa0>
  407c8c:	43ed      	mvns	r5, r5
  407c8e:	442f      	add	r7, r5
  407c90:	f027 0703 	bic.w	r7, r7, #3
  407c94:	3704      	adds	r7, #4
  407c96:	443c      	add	r4, r7
  407c98:	3c04      	subs	r4, #4
  407c9a:	b922      	cbnz	r2, 407ca6 <__mdiff+0xda>
  407c9c:	f854 3d04 	ldr.w	r3, [r4, #-4]!
  407ca0:	3e01      	subs	r6, #1
  407ca2:	2b00      	cmp	r3, #0
  407ca4:	d0fa      	beq.n	407c9c <__mdiff+0xd0>
  407ca6:	6106      	str	r6, [r0, #16]
  407ca8:	e8bd 81f0 	ldmia.w	sp!, {r4, r5, r6, r7, r8, pc}
  407cac:	2100      	movs	r1, #0
  407cae:	f7ff fd73 	bl	407798 <_Balloc>
  407cb2:	2201      	movs	r2, #1
  407cb4:	2300      	movs	r3, #0
  407cb6:	6102      	str	r2, [r0, #16]
  407cb8:	6143      	str	r3, [r0, #20]
  407cba:	e8bd 81f0 	ldmia.w	sp!, {r4, r5, r6, r7, r8, pc}
  407cbe:	4674      	mov	r4, lr
  407cc0:	e7ab      	b.n	407c1a <__mdiff+0x4e>
  407cc2:	4633      	mov	r3, r6
  407cc4:	f106 0414 	add.w	r4, r6, #20
  407cc8:	f102 0514 	add.w	r5, r2, #20
  407ccc:	4616      	mov	r6, r2
  407cce:	2701      	movs	r7, #1
  407cd0:	4698      	mov	r8, r3
  407cd2:	e7a2      	b.n	407c1a <__mdiff+0x4e>

00407cd4 <__d2b>:
  407cd4:	e92d 41f0 	stmdb	sp!, {r4, r5, r6, r7, r8, lr}
  407cd8:	b082      	sub	sp, #8
  407cda:	2101      	movs	r1, #1
  407cdc:	461c      	mov	r4, r3
  407cde:	f3c3 570a 	ubfx	r7, r3, #20, #11
  407ce2:	4615      	mov	r5, r2
  407ce4:	9e08      	ldr	r6, [sp, #32]
  407ce6:	f7ff fd57 	bl	407798 <_Balloc>
  407cea:	f3c4 0413 	ubfx	r4, r4, #0, #20
  407cee:	4680      	mov	r8, r0
  407cf0:	b10f      	cbz	r7, 407cf6 <__d2b+0x22>
  407cf2:	f444 1480 	orr.w	r4, r4, #1048576	; 0x100000
  407cf6:	9401      	str	r4, [sp, #4]
  407cf8:	b31d      	cbz	r5, 407d42 <__d2b+0x6e>
  407cfa:	a802      	add	r0, sp, #8
  407cfc:	f840 5d08 	str.w	r5, [r0, #-8]!
  407d00:	f7ff fdda 	bl	4078b8 <__lo0bits>
  407d04:	2800      	cmp	r0, #0
  407d06:	d134      	bne.n	407d72 <__d2b+0x9e>
  407d08:	e89d 000c 	ldmia.w	sp, {r2, r3}
  407d0c:	f8c8 2014 	str.w	r2, [r8, #20]
  407d10:	2b00      	cmp	r3, #0
  407d12:	bf0c      	ite	eq
  407d14:	2101      	moveq	r1, #1
  407d16:	2102      	movne	r1, #2
  407d18:	f8c8 3018 	str.w	r3, [r8, #24]
  407d1c:	f8c8 1010 	str.w	r1, [r8, #16]
  407d20:	b9df      	cbnz	r7, 407d5a <__d2b+0x86>
  407d22:	eb08 0381 	add.w	r3, r8, r1, lsl #2
  407d26:	f2a0 4032 	subw	r0, r0, #1074	; 0x432
  407d2a:	6030      	str	r0, [r6, #0]
  407d2c:	6918      	ldr	r0, [r3, #16]
  407d2e:	f7ff fda3 	bl	407878 <__hi0bits>
  407d32:	9b09      	ldr	r3, [sp, #36]	; 0x24
  407d34:	ebc0 1041 	rsb	r0, r0, r1, lsl #5
  407d38:	6018      	str	r0, [r3, #0]
  407d3a:	4640      	mov	r0, r8
  407d3c:	b002      	add	sp, #8
  407d3e:	e8bd 81f0 	ldmia.w	sp!, {r4, r5, r6, r7, r8, pc}
  407d42:	a801      	add	r0, sp, #4
  407d44:	f7ff fdb8 	bl	4078b8 <__lo0bits>
  407d48:	9b01      	ldr	r3, [sp, #4]
  407d4a:	f8c8 3014 	str.w	r3, [r8, #20]
  407d4e:	2101      	movs	r1, #1
  407d50:	3020      	adds	r0, #32
  407d52:	f8c8 1010 	str.w	r1, [r8, #16]
  407d56:	2f00      	cmp	r7, #0
  407d58:	d0e3      	beq.n	407d22 <__d2b+0x4e>
  407d5a:	9b09      	ldr	r3, [sp, #36]	; 0x24
  407d5c:	f2a7 4733 	subw	r7, r7, #1075	; 0x433
  407d60:	4407      	add	r7, r0
  407d62:	f1c0 0035 	rsb	r0, r0, #53	; 0x35
  407d66:	6037      	str	r7, [r6, #0]
  407d68:	6018      	str	r0, [r3, #0]
  407d6a:	4640      	mov	r0, r8
  407d6c:	b002      	add	sp, #8
  407d6e:	e8bd 81f0 	ldmia.w	sp!, {r4, r5, r6, r7, r8, pc}
  407d72:	e89d 000a 	ldmia.w	sp, {r1, r3}
  407d76:	f1c0 0220 	rsb	r2, r0, #32
  407d7a:	fa03 f202 	lsl.w	r2, r3, r2
  407d7e:	430a      	orrs	r2, r1
  407d80:	40c3      	lsrs	r3, r0
  407d82:	9301      	str	r3, [sp, #4]
  407d84:	f8c8 2014 	str.w	r2, [r8, #20]
  407d88:	e7c2      	b.n	407d10 <__d2b+0x3c>
  407d8a:	bf00      	nop

00407d8c <_realloc_r>:
  407d8c:	2900      	cmp	r1, #0
  407d8e:	f000 8095 	beq.w	407ebc <_realloc_r+0x130>
  407d92:	e92d 4ff0 	stmdb	sp!, {r4, r5, r6, r7, r8, r9, sl, fp, lr}
  407d96:	460d      	mov	r5, r1
  407d98:	4616      	mov	r6, r2
  407d9a:	b083      	sub	sp, #12
  407d9c:	4680      	mov	r8, r0
  407d9e:	f106 070b 	add.w	r7, r6, #11
  407da2:	f7fb fbcf 	bl	403544 <__malloc_lock>
  407da6:	f855 ec04 	ldr.w	lr, [r5, #-4]
  407daa:	2f16      	cmp	r7, #22
  407dac:	f02e 0403 	bic.w	r4, lr, #3
  407db0:	f1a5 0908 	sub.w	r9, r5, #8
  407db4:	d83c      	bhi.n	407e30 <_realloc_r+0xa4>
  407db6:	2210      	movs	r2, #16
  407db8:	4617      	mov	r7, r2
  407dba:	42be      	cmp	r6, r7
  407dbc:	d83d      	bhi.n	407e3a <_realloc_r+0xae>
  407dbe:	4294      	cmp	r4, r2
  407dc0:	da43      	bge.n	407e4a <_realloc_r+0xbe>
  407dc2:	4bc4      	ldr	r3, [pc, #784]	; (4080d4 <_realloc_r+0x348>)
  407dc4:	6899      	ldr	r1, [r3, #8]
  407dc6:	eb09 0004 	add.w	r0, r9, r4
  407dca:	4288      	cmp	r0, r1
  407dcc:	f000 80b4 	beq.w	407f38 <_realloc_r+0x1ac>
  407dd0:	6843      	ldr	r3, [r0, #4]
  407dd2:	f023 0101 	bic.w	r1, r3, #1
  407dd6:	4401      	add	r1, r0
  407dd8:	6849      	ldr	r1, [r1, #4]
  407dda:	07c9      	lsls	r1, r1, #31
  407ddc:	d54c      	bpl.n	407e78 <_realloc_r+0xec>
  407dde:	f01e 0f01 	tst.w	lr, #1
  407de2:	f000 809b 	beq.w	407f1c <_realloc_r+0x190>
  407de6:	4631      	mov	r1, r6
  407de8:	4640      	mov	r0, r8
  407dea:	f7fb f813 	bl	402e14 <_malloc_r>
  407dee:	4606      	mov	r6, r0
  407df0:	2800      	cmp	r0, #0
  407df2:	d03a      	beq.n	407e6a <_realloc_r+0xde>
  407df4:	f855 3c04 	ldr.w	r3, [r5, #-4]
  407df8:	f023 0301 	bic.w	r3, r3, #1
  407dfc:	444b      	add	r3, r9
  407dfe:	f1a0 0208 	sub.w	r2, r0, #8
  407e02:	429a      	cmp	r2, r3
  407e04:	f000 8121 	beq.w	40804a <_realloc_r+0x2be>
  407e08:	1f22      	subs	r2, r4, #4
  407e0a:	2a24      	cmp	r2, #36	; 0x24
  407e0c:	f200 8107 	bhi.w	40801e <_realloc_r+0x292>
  407e10:	2a13      	cmp	r2, #19
  407e12:	f200 80db 	bhi.w	407fcc <_realloc_r+0x240>
  407e16:	4603      	mov	r3, r0
  407e18:	462a      	mov	r2, r5
  407e1a:	6811      	ldr	r1, [r2, #0]
  407e1c:	6019      	str	r1, [r3, #0]
  407e1e:	6851      	ldr	r1, [r2, #4]
  407e20:	6059      	str	r1, [r3, #4]
  407e22:	6892      	ldr	r2, [r2, #8]
  407e24:	609a      	str	r2, [r3, #8]
  407e26:	4629      	mov	r1, r5
  407e28:	4640      	mov	r0, r8
  407e2a:	f7ff f8c1 	bl	406fb0 <_free_r>
  407e2e:	e01c      	b.n	407e6a <_realloc_r+0xde>
  407e30:	f027 0707 	bic.w	r7, r7, #7
  407e34:	2f00      	cmp	r7, #0
  407e36:	463a      	mov	r2, r7
  407e38:	dabf      	bge.n	407dba <_realloc_r+0x2e>
  407e3a:	2600      	movs	r6, #0
  407e3c:	230c      	movs	r3, #12
  407e3e:	4630      	mov	r0, r6
  407e40:	f8c8 3000 	str.w	r3, [r8]
  407e44:	b003      	add	sp, #12
  407e46:	e8bd 8ff0 	ldmia.w	sp!, {r4, r5, r6, r7, r8, r9, sl, fp, pc}
  407e4a:	462e      	mov	r6, r5
  407e4c:	1be3      	subs	r3, r4, r7
  407e4e:	2b0f      	cmp	r3, #15
  407e50:	d81e      	bhi.n	407e90 <_realloc_r+0x104>
  407e52:	f8d9 3004 	ldr.w	r3, [r9, #4]
  407e56:	f003 0301 	and.w	r3, r3, #1
  407e5a:	4323      	orrs	r3, r4
  407e5c:	444c      	add	r4, r9
  407e5e:	f8c9 3004 	str.w	r3, [r9, #4]
  407e62:	6863      	ldr	r3, [r4, #4]
  407e64:	f043 0301 	orr.w	r3, r3, #1
  407e68:	6063      	str	r3, [r4, #4]
  407e6a:	4640      	mov	r0, r8
  407e6c:	f7fb fb70 	bl	403550 <__malloc_unlock>
  407e70:	4630      	mov	r0, r6
  407e72:	b003      	add	sp, #12
  407e74:	e8bd 8ff0 	ldmia.w	sp!, {r4, r5, r6, r7, r8, r9, sl, fp, pc}
  407e78:	f023 0303 	bic.w	r3, r3, #3
  407e7c:	18e1      	adds	r1, r4, r3
  407e7e:	4291      	cmp	r1, r2
  407e80:	db1f      	blt.n	407ec2 <_realloc_r+0x136>
  407e82:	68c3      	ldr	r3, [r0, #12]
  407e84:	6882      	ldr	r2, [r0, #8]
  407e86:	462e      	mov	r6, r5
  407e88:	60d3      	str	r3, [r2, #12]
  407e8a:	460c      	mov	r4, r1
  407e8c:	609a      	str	r2, [r3, #8]
  407e8e:	e7dd      	b.n	407e4c <_realloc_r+0xc0>
  407e90:	f8d9 2004 	ldr.w	r2, [r9, #4]
  407e94:	eb09 0107 	add.w	r1, r9, r7
  407e98:	f002 0201 	and.w	r2, r2, #1
  407e9c:	444c      	add	r4, r9
  407e9e:	f043 0301 	orr.w	r3, r3, #1
  407ea2:	4317      	orrs	r7, r2
  407ea4:	f8c9 7004 	str.w	r7, [r9, #4]
  407ea8:	604b      	str	r3, [r1, #4]
  407eaa:	6863      	ldr	r3, [r4, #4]
  407eac:	f043 0301 	orr.w	r3, r3, #1
  407eb0:	3108      	adds	r1, #8
  407eb2:	6063      	str	r3, [r4, #4]
  407eb4:	4640      	mov	r0, r8
  407eb6:	f7ff f87b 	bl	406fb0 <_free_r>
  407eba:	e7d6      	b.n	407e6a <_realloc_r+0xde>
  407ebc:	4611      	mov	r1, r2
  407ebe:	f7fa bfa9 	b.w	402e14 <_malloc_r>
  407ec2:	f01e 0f01 	tst.w	lr, #1
  407ec6:	d18e      	bne.n	407de6 <_realloc_r+0x5a>
  407ec8:	f855 1c08 	ldr.w	r1, [r5, #-8]
  407ecc:	eba9 0a01 	sub.w	sl, r9, r1
  407ed0:	f8da 1004 	ldr.w	r1, [sl, #4]
  407ed4:	f021 0103 	bic.w	r1, r1, #3
  407ed8:	440b      	add	r3, r1
  407eda:	4423      	add	r3, r4
  407edc:	4293      	cmp	r3, r2
  407ede:	db25      	blt.n	407f2c <_realloc_r+0x1a0>
  407ee0:	68c2      	ldr	r2, [r0, #12]
  407ee2:	6881      	ldr	r1, [r0, #8]
  407ee4:	4656      	mov	r6, sl
  407ee6:	60ca      	str	r2, [r1, #12]
  407ee8:	6091      	str	r1, [r2, #8]
  407eea:	f8da 100c 	ldr.w	r1, [sl, #12]
  407eee:	f856 0f08 	ldr.w	r0, [r6, #8]!
  407ef2:	1f22      	subs	r2, r4, #4
  407ef4:	2a24      	cmp	r2, #36	; 0x24
  407ef6:	60c1      	str	r1, [r0, #12]
  407ef8:	6088      	str	r0, [r1, #8]
  407efa:	f200 8094 	bhi.w	408026 <_realloc_r+0x29a>
  407efe:	2a13      	cmp	r2, #19
  407f00:	d96f      	bls.n	407fe2 <_realloc_r+0x256>
  407f02:	6829      	ldr	r1, [r5, #0]
  407f04:	f8ca 1008 	str.w	r1, [sl, #8]
  407f08:	6869      	ldr	r1, [r5, #4]
  407f0a:	f8ca 100c 	str.w	r1, [sl, #12]
  407f0e:	2a1b      	cmp	r2, #27
  407f10:	f200 80a2 	bhi.w	408058 <_realloc_r+0x2cc>
  407f14:	3508      	adds	r5, #8
  407f16:	f10a 0210 	add.w	r2, sl, #16
  407f1a:	e063      	b.n	407fe4 <_realloc_r+0x258>
  407f1c:	f855 3c08 	ldr.w	r3, [r5, #-8]
  407f20:	eba9 0a03 	sub.w	sl, r9, r3
  407f24:	f8da 1004 	ldr.w	r1, [sl, #4]
  407f28:	f021 0103 	bic.w	r1, r1, #3
  407f2c:	1863      	adds	r3, r4, r1
  407f2e:	4293      	cmp	r3, r2
  407f30:	f6ff af59 	blt.w	407de6 <_realloc_r+0x5a>
  407f34:	4656      	mov	r6, sl
  407f36:	e7d8      	b.n	407eea <_realloc_r+0x15e>
  407f38:	6841      	ldr	r1, [r0, #4]
  407f3a:	f021 0b03 	bic.w	fp, r1, #3
  407f3e:	44a3      	add	fp, r4
  407f40:	f107 0010 	add.w	r0, r7, #16
  407f44:	4583      	cmp	fp, r0
  407f46:	da56      	bge.n	407ff6 <_realloc_r+0x26a>
  407f48:	f01e 0f01 	tst.w	lr, #1
  407f4c:	f47f af4b 	bne.w	407de6 <_realloc_r+0x5a>
  407f50:	f855 1c08 	ldr.w	r1, [r5, #-8]
  407f54:	eba9 0a01 	sub.w	sl, r9, r1
  407f58:	f8da 1004 	ldr.w	r1, [sl, #4]
  407f5c:	f021 0103 	bic.w	r1, r1, #3
  407f60:	448b      	add	fp, r1
  407f62:	4558      	cmp	r0, fp
  407f64:	dce2      	bgt.n	407f2c <_realloc_r+0x1a0>
  407f66:	4656      	mov	r6, sl
  407f68:	f8da 100c 	ldr.w	r1, [sl, #12]
  407f6c:	f856 0f08 	ldr.w	r0, [r6, #8]!
  407f70:	1f22      	subs	r2, r4, #4
  407f72:	2a24      	cmp	r2, #36	; 0x24
  407f74:	60c1      	str	r1, [r0, #12]
  407f76:	6088      	str	r0, [r1, #8]
  407f78:	f200 808f 	bhi.w	40809a <_realloc_r+0x30e>
  407f7c:	2a13      	cmp	r2, #19
  407f7e:	f240 808a 	bls.w	408096 <_realloc_r+0x30a>
  407f82:	6829      	ldr	r1, [r5, #0]
  407f84:	f8ca 1008 	str.w	r1, [sl, #8]
  407f88:	6869      	ldr	r1, [r5, #4]
  407f8a:	f8ca 100c 	str.w	r1, [sl, #12]
  407f8e:	2a1b      	cmp	r2, #27
  407f90:	f200 808a 	bhi.w	4080a8 <_realloc_r+0x31c>
  407f94:	3508      	adds	r5, #8
  407f96:	f10a 0210 	add.w	r2, sl, #16
  407f9a:	6829      	ldr	r1, [r5, #0]
  407f9c:	6011      	str	r1, [r2, #0]
  407f9e:	6869      	ldr	r1, [r5, #4]
  407fa0:	6051      	str	r1, [r2, #4]
  407fa2:	68a9      	ldr	r1, [r5, #8]
  407fa4:	6091      	str	r1, [r2, #8]
  407fa6:	eb0a 0107 	add.w	r1, sl, r7
  407faa:	ebab 0207 	sub.w	r2, fp, r7
  407fae:	f042 0201 	orr.w	r2, r2, #1
  407fb2:	6099      	str	r1, [r3, #8]
  407fb4:	604a      	str	r2, [r1, #4]
  407fb6:	f8da 3004 	ldr.w	r3, [sl, #4]
  407fba:	f003 0301 	and.w	r3, r3, #1
  407fbe:	431f      	orrs	r7, r3
  407fc0:	4640      	mov	r0, r8
  407fc2:	f8ca 7004 	str.w	r7, [sl, #4]
  407fc6:	f7fb fac3 	bl	403550 <__malloc_unlock>
  407fca:	e751      	b.n	407e70 <_realloc_r+0xe4>
  407fcc:	682b      	ldr	r3, [r5, #0]
  407fce:	6003      	str	r3, [r0, #0]
  407fd0:	686b      	ldr	r3, [r5, #4]
  407fd2:	6043      	str	r3, [r0, #4]
  407fd4:	2a1b      	cmp	r2, #27
  407fd6:	d82d      	bhi.n	408034 <_realloc_r+0x2a8>
  407fd8:	f100 0308 	add.w	r3, r0, #8
  407fdc:	f105 0208 	add.w	r2, r5, #8
  407fe0:	e71b      	b.n	407e1a <_realloc_r+0x8e>
  407fe2:	4632      	mov	r2, r6
  407fe4:	6829      	ldr	r1, [r5, #0]
  407fe6:	6011      	str	r1, [r2, #0]
  407fe8:	6869      	ldr	r1, [r5, #4]
  407fea:	6051      	str	r1, [r2, #4]
  407fec:	68a9      	ldr	r1, [r5, #8]
  407fee:	6091      	str	r1, [r2, #8]
  407ff0:	461c      	mov	r4, r3
  407ff2:	46d1      	mov	r9, sl
  407ff4:	e72a      	b.n	407e4c <_realloc_r+0xc0>
  407ff6:	eb09 0107 	add.w	r1, r9, r7
  407ffa:	ebab 0b07 	sub.w	fp, fp, r7
  407ffe:	f04b 0201 	orr.w	r2, fp, #1
  408002:	6099      	str	r1, [r3, #8]
  408004:	604a      	str	r2, [r1, #4]
  408006:	f855 3c04 	ldr.w	r3, [r5, #-4]
  40800a:	f003 0301 	and.w	r3, r3, #1
  40800e:	431f      	orrs	r7, r3
  408010:	4640      	mov	r0, r8
  408012:	f845 7c04 	str.w	r7, [r5, #-4]
  408016:	f7fb fa9b 	bl	403550 <__malloc_unlock>
  40801a:	462e      	mov	r6, r5
  40801c:	e728      	b.n	407e70 <_realloc_r+0xe4>
  40801e:	4629      	mov	r1, r5
  408020:	f7ff fb56 	bl	4076d0 <memmove>
  408024:	e6ff      	b.n	407e26 <_realloc_r+0x9a>
  408026:	4629      	mov	r1, r5
  408028:	4630      	mov	r0, r6
  40802a:	461c      	mov	r4, r3
  40802c:	46d1      	mov	r9, sl
  40802e:	f7ff fb4f 	bl	4076d0 <memmove>
  408032:	e70b      	b.n	407e4c <_realloc_r+0xc0>
  408034:	68ab      	ldr	r3, [r5, #8]
  408036:	6083      	str	r3, [r0, #8]
  408038:	68eb      	ldr	r3, [r5, #12]
  40803a:	60c3      	str	r3, [r0, #12]
  40803c:	2a24      	cmp	r2, #36	; 0x24
  40803e:	d017      	beq.n	408070 <_realloc_r+0x2e4>
  408040:	f100 0310 	add.w	r3, r0, #16
  408044:	f105 0210 	add.w	r2, r5, #16
  408048:	e6e7      	b.n	407e1a <_realloc_r+0x8e>
  40804a:	f850 3c04 	ldr.w	r3, [r0, #-4]
  40804e:	f023 0303 	bic.w	r3, r3, #3
  408052:	441c      	add	r4, r3
  408054:	462e      	mov	r6, r5
  408056:	e6f9      	b.n	407e4c <_realloc_r+0xc0>
  408058:	68a9      	ldr	r1, [r5, #8]
  40805a:	f8ca 1010 	str.w	r1, [sl, #16]
  40805e:	68e9      	ldr	r1, [r5, #12]
  408060:	f8ca 1014 	str.w	r1, [sl, #20]
  408064:	2a24      	cmp	r2, #36	; 0x24
  408066:	d00c      	beq.n	408082 <_realloc_r+0x2f6>
  408068:	3510      	adds	r5, #16
  40806a:	f10a 0218 	add.w	r2, sl, #24
  40806e:	e7b9      	b.n	407fe4 <_realloc_r+0x258>
  408070:	692b      	ldr	r3, [r5, #16]
  408072:	6103      	str	r3, [r0, #16]
  408074:	696b      	ldr	r3, [r5, #20]
  408076:	6143      	str	r3, [r0, #20]
  408078:	f105 0218 	add.w	r2, r5, #24
  40807c:	f100 0318 	add.w	r3, r0, #24
  408080:	e6cb      	b.n	407e1a <_realloc_r+0x8e>
  408082:	692a      	ldr	r2, [r5, #16]
  408084:	f8ca 2018 	str.w	r2, [sl, #24]
  408088:	696a      	ldr	r2, [r5, #20]
  40808a:	f8ca 201c 	str.w	r2, [sl, #28]
  40808e:	3518      	adds	r5, #24
  408090:	f10a 0220 	add.w	r2, sl, #32
  408094:	e7a6      	b.n	407fe4 <_realloc_r+0x258>
  408096:	4632      	mov	r2, r6
  408098:	e77f      	b.n	407f9a <_realloc_r+0x20e>
  40809a:	4629      	mov	r1, r5
  40809c:	4630      	mov	r0, r6
  40809e:	9301      	str	r3, [sp, #4]
  4080a0:	f7ff fb16 	bl	4076d0 <memmove>
  4080a4:	9b01      	ldr	r3, [sp, #4]
  4080a6:	e77e      	b.n	407fa6 <_realloc_r+0x21a>
  4080a8:	68a9      	ldr	r1, [r5, #8]
  4080aa:	f8ca 1010 	str.w	r1, [sl, #16]
  4080ae:	68e9      	ldr	r1, [r5, #12]
  4080b0:	f8ca 1014 	str.w	r1, [sl, #20]
  4080b4:	2a24      	cmp	r2, #36	; 0x24
  4080b6:	d003      	beq.n	4080c0 <_realloc_r+0x334>
  4080b8:	3510      	adds	r5, #16
  4080ba:	f10a 0218 	add.w	r2, sl, #24
  4080be:	e76c      	b.n	407f9a <_realloc_r+0x20e>
  4080c0:	692a      	ldr	r2, [r5, #16]
  4080c2:	f8ca 2018 	str.w	r2, [sl, #24]
  4080c6:	696a      	ldr	r2, [r5, #20]
  4080c8:	f8ca 201c 	str.w	r2, [sl, #28]
  4080cc:	3518      	adds	r5, #24
  4080ce:	f10a 0220 	add.w	r2, sl, #32
  4080d2:	e762      	b.n	407f9a <_realloc_r+0x20e>
  4080d4:	20400438 	.word	0x20400438

004080d8 <__sread>:
  4080d8:	b510      	push	{r4, lr}
  4080da:	460c      	mov	r4, r1
  4080dc:	f9b1 100e 	ldrsh.w	r1, [r1, #14]
  4080e0:	f000 faa4 	bl	40862c <_read_r>
  4080e4:	2800      	cmp	r0, #0
  4080e6:	db03      	blt.n	4080f0 <__sread+0x18>
  4080e8:	6d23      	ldr	r3, [r4, #80]	; 0x50
  4080ea:	4403      	add	r3, r0
  4080ec:	6523      	str	r3, [r4, #80]	; 0x50
  4080ee:	bd10      	pop	{r4, pc}
  4080f0:	89a3      	ldrh	r3, [r4, #12]
  4080f2:	f423 5380 	bic.w	r3, r3, #4096	; 0x1000
  4080f6:	81a3      	strh	r3, [r4, #12]
  4080f8:	bd10      	pop	{r4, pc}
  4080fa:	bf00      	nop

004080fc <__swrite>:
  4080fc:	e92d 41f0 	stmdb	sp!, {r4, r5, r6, r7, r8, lr}
  408100:	4616      	mov	r6, r2
  408102:	f9b1 200c 	ldrsh.w	r2, [r1, #12]
  408106:	461f      	mov	r7, r3
  408108:	05d3      	lsls	r3, r2, #23
  40810a:	460c      	mov	r4, r1
  40810c:	4605      	mov	r5, r0
  40810e:	d507      	bpl.n	408120 <__swrite+0x24>
  408110:	2200      	movs	r2, #0
  408112:	2302      	movs	r3, #2
  408114:	f9b1 100e 	ldrsh.w	r1, [r1, #14]
  408118:	f000 fa72 	bl	408600 <_lseek_r>
  40811c:	f9b4 200c 	ldrsh.w	r2, [r4, #12]
  408120:	f9b4 100e 	ldrsh.w	r1, [r4, #14]
  408124:	f422 5280 	bic.w	r2, r2, #4096	; 0x1000
  408128:	81a2      	strh	r2, [r4, #12]
  40812a:	463b      	mov	r3, r7
  40812c:	4632      	mov	r2, r6
  40812e:	4628      	mov	r0, r5
  408130:	e8bd 41f0 	ldmia.w	sp!, {r4, r5, r6, r7, r8, lr}
  408134:	f000 b922 	b.w	40837c <_write_r>

00408138 <__sseek>:
  408138:	b510      	push	{r4, lr}
  40813a:	460c      	mov	r4, r1
  40813c:	f9b1 100e 	ldrsh.w	r1, [r1, #14]
  408140:	f000 fa5e 	bl	408600 <_lseek_r>
  408144:	89a3      	ldrh	r3, [r4, #12]
  408146:	1c42      	adds	r2, r0, #1
  408148:	bf0e      	itee	eq
  40814a:	f423 5380 	biceq.w	r3, r3, #4096	; 0x1000
  40814e:	f443 5380 	orrne.w	r3, r3, #4096	; 0x1000
  408152:	6520      	strne	r0, [r4, #80]	; 0x50
  408154:	81a3      	strh	r3, [r4, #12]
  408156:	bd10      	pop	{r4, pc}

00408158 <__sclose>:
  408158:	f9b1 100e 	ldrsh.w	r1, [r1, #14]
  40815c:	f000 b9b6 	b.w	4084cc <_close_r>

00408160 <__ssprint_r>:
  408160:	e92d 4ff0 	stmdb	sp!, {r4, r5, r6, r7, r8, r9, sl, fp, lr}
  408164:	6893      	ldr	r3, [r2, #8]
  408166:	b083      	sub	sp, #12
  408168:	4690      	mov	r8, r2
  40816a:	2b00      	cmp	r3, #0
  40816c:	d070      	beq.n	408250 <__ssprint_r+0xf0>
  40816e:	4682      	mov	sl, r0
  408170:	460c      	mov	r4, r1
  408172:	6817      	ldr	r7, [r2, #0]
  408174:	688d      	ldr	r5, [r1, #8]
  408176:	6808      	ldr	r0, [r1, #0]
  408178:	e042      	b.n	408200 <__ssprint_r+0xa0>
  40817a:	89a3      	ldrh	r3, [r4, #12]
  40817c:	f413 6f90 	tst.w	r3, #1152	; 0x480
  408180:	d02e      	beq.n	4081e0 <__ssprint_r+0x80>
  408182:	6965      	ldr	r5, [r4, #20]
  408184:	6921      	ldr	r1, [r4, #16]
  408186:	eb05 0545 	add.w	r5, r5, r5, lsl #1
  40818a:	eba0 0b01 	sub.w	fp, r0, r1
  40818e:	eb05 75d5 	add.w	r5, r5, r5, lsr #31
  408192:	f10b 0001 	add.w	r0, fp, #1
  408196:	106d      	asrs	r5, r5, #1
  408198:	4430      	add	r0, r6
  40819a:	42a8      	cmp	r0, r5
  40819c:	462a      	mov	r2, r5
  40819e:	bf84      	itt	hi
  4081a0:	4605      	movhi	r5, r0
  4081a2:	462a      	movhi	r2, r5
  4081a4:	055b      	lsls	r3, r3, #21
  4081a6:	d538      	bpl.n	40821a <__ssprint_r+0xba>
  4081a8:	4611      	mov	r1, r2
  4081aa:	4650      	mov	r0, sl
  4081ac:	f7fa fe32 	bl	402e14 <_malloc_r>
  4081b0:	2800      	cmp	r0, #0
  4081b2:	d03c      	beq.n	40822e <__ssprint_r+0xce>
  4081b4:	465a      	mov	r2, fp
  4081b6:	6921      	ldr	r1, [r4, #16]
  4081b8:	9001      	str	r0, [sp, #4]
  4081ba:	f7fb f8db 	bl	403374 <memcpy>
  4081be:	89a2      	ldrh	r2, [r4, #12]
  4081c0:	9b01      	ldr	r3, [sp, #4]
  4081c2:	f422 6290 	bic.w	r2, r2, #1152	; 0x480
  4081c6:	f042 0280 	orr.w	r2, r2, #128	; 0x80
  4081ca:	81a2      	strh	r2, [r4, #12]
  4081cc:	eba5 020b 	sub.w	r2, r5, fp
  4081d0:	eb03 000b 	add.w	r0, r3, fp
  4081d4:	6165      	str	r5, [r4, #20]
  4081d6:	6123      	str	r3, [r4, #16]
  4081d8:	6020      	str	r0, [r4, #0]
  4081da:	60a2      	str	r2, [r4, #8]
  4081dc:	4635      	mov	r5, r6
  4081de:	46b3      	mov	fp, r6
  4081e0:	465a      	mov	r2, fp
  4081e2:	4649      	mov	r1, r9
  4081e4:	f7ff fa74 	bl	4076d0 <memmove>
  4081e8:	f8d8 3008 	ldr.w	r3, [r8, #8]
  4081ec:	68a2      	ldr	r2, [r4, #8]
  4081ee:	6820      	ldr	r0, [r4, #0]
  4081f0:	1b55      	subs	r5, r2, r5
  4081f2:	4458      	add	r0, fp
  4081f4:	1b9e      	subs	r6, r3, r6
  4081f6:	60a5      	str	r5, [r4, #8]
  4081f8:	6020      	str	r0, [r4, #0]
  4081fa:	f8c8 6008 	str.w	r6, [r8, #8]
  4081fe:	b33e      	cbz	r6, 408250 <__ssprint_r+0xf0>
  408200:	687e      	ldr	r6, [r7, #4]
  408202:	463b      	mov	r3, r7
  408204:	3708      	adds	r7, #8
  408206:	2e00      	cmp	r6, #0
  408208:	d0fa      	beq.n	408200 <__ssprint_r+0xa0>
  40820a:	42ae      	cmp	r6, r5
  40820c:	f8d3 9000 	ldr.w	r9, [r3]
  408210:	46ab      	mov	fp, r5
  408212:	d2b2      	bcs.n	40817a <__ssprint_r+0x1a>
  408214:	4635      	mov	r5, r6
  408216:	46b3      	mov	fp, r6
  408218:	e7e2      	b.n	4081e0 <__ssprint_r+0x80>
  40821a:	4650      	mov	r0, sl
  40821c:	f7ff fdb6 	bl	407d8c <_realloc_r>
  408220:	4603      	mov	r3, r0
  408222:	2800      	cmp	r0, #0
  408224:	d1d2      	bne.n	4081cc <__ssprint_r+0x6c>
  408226:	6921      	ldr	r1, [r4, #16]
  408228:	4650      	mov	r0, sl
  40822a:	f7fe fec1 	bl	406fb0 <_free_r>
  40822e:	230c      	movs	r3, #12
  408230:	f8ca 3000 	str.w	r3, [sl]
  408234:	89a3      	ldrh	r3, [r4, #12]
  408236:	2200      	movs	r2, #0
  408238:	f043 0340 	orr.w	r3, r3, #64	; 0x40
  40823c:	f04f 30ff 	mov.w	r0, #4294967295
  408240:	81a3      	strh	r3, [r4, #12]
  408242:	f8c8 2008 	str.w	r2, [r8, #8]
  408246:	f8c8 2004 	str.w	r2, [r8, #4]
  40824a:	b003      	add	sp, #12
  40824c:	e8bd 8ff0 	ldmia.w	sp!, {r4, r5, r6, r7, r8, r9, sl, fp, pc}
  408250:	2000      	movs	r0, #0
  408252:	f8c8 0004 	str.w	r0, [r8, #4]
  408256:	b003      	add	sp, #12
  408258:	e8bd 8ff0 	ldmia.w	sp!, {r4, r5, r6, r7, r8, r9, sl, fp, pc}

0040825c <__swbuf_r>:
  40825c:	b5f8      	push	{r3, r4, r5, r6, r7, lr}
  40825e:	460d      	mov	r5, r1
  408260:	4614      	mov	r4, r2
  408262:	4606      	mov	r6, r0
  408264:	b110      	cbz	r0, 40826c <__swbuf_r+0x10>
  408266:	6b83      	ldr	r3, [r0, #56]	; 0x38
  408268:	2b00      	cmp	r3, #0
  40826a:	d04b      	beq.n	408304 <__swbuf_r+0xa8>
  40826c:	f9b4 200c 	ldrsh.w	r2, [r4, #12]
  408270:	69a3      	ldr	r3, [r4, #24]
  408272:	60a3      	str	r3, [r4, #8]
  408274:	b291      	uxth	r1, r2
  408276:	0708      	lsls	r0, r1, #28
  408278:	d539      	bpl.n	4082ee <__swbuf_r+0x92>
  40827a:	6923      	ldr	r3, [r4, #16]
  40827c:	2b00      	cmp	r3, #0
  40827e:	d036      	beq.n	4082ee <__swbuf_r+0x92>
  408280:	b2ed      	uxtb	r5, r5
  408282:	0489      	lsls	r1, r1, #18
  408284:	462f      	mov	r7, r5
  408286:	d515      	bpl.n	4082b4 <__swbuf_r+0x58>
  408288:	6822      	ldr	r2, [r4, #0]
  40828a:	6961      	ldr	r1, [r4, #20]
  40828c:	1ad3      	subs	r3, r2, r3
  40828e:	428b      	cmp	r3, r1
  408290:	da1c      	bge.n	4082cc <__swbuf_r+0x70>
  408292:	3301      	adds	r3, #1
  408294:	68a1      	ldr	r1, [r4, #8]
  408296:	1c50      	adds	r0, r2, #1
  408298:	3901      	subs	r1, #1
  40829a:	60a1      	str	r1, [r4, #8]
  40829c:	6020      	str	r0, [r4, #0]
  40829e:	7015      	strb	r5, [r2, #0]
  4082a0:	6962      	ldr	r2, [r4, #20]
  4082a2:	429a      	cmp	r2, r3
  4082a4:	d01a      	beq.n	4082dc <__swbuf_r+0x80>
  4082a6:	89a3      	ldrh	r3, [r4, #12]
  4082a8:	07db      	lsls	r3, r3, #31
  4082aa:	d501      	bpl.n	4082b0 <__swbuf_r+0x54>
  4082ac:	2d0a      	cmp	r5, #10
  4082ae:	d015      	beq.n	4082dc <__swbuf_r+0x80>
  4082b0:	4638      	mov	r0, r7
  4082b2:	bdf8      	pop	{r3, r4, r5, r6, r7, pc}
  4082b4:	6e61      	ldr	r1, [r4, #100]	; 0x64
  4082b6:	f442 5200 	orr.w	r2, r2, #8192	; 0x2000
  4082ba:	f421 5100 	bic.w	r1, r1, #8192	; 0x2000
  4082be:	81a2      	strh	r2, [r4, #12]
  4082c0:	6822      	ldr	r2, [r4, #0]
  4082c2:	6661      	str	r1, [r4, #100]	; 0x64
  4082c4:	6961      	ldr	r1, [r4, #20]
  4082c6:	1ad3      	subs	r3, r2, r3
  4082c8:	428b      	cmp	r3, r1
  4082ca:	dbe2      	blt.n	408292 <__swbuf_r+0x36>
  4082cc:	4621      	mov	r1, r4
  4082ce:	4630      	mov	r0, r6
  4082d0:	f7fe fcf0 	bl	406cb4 <_fflush_r>
  4082d4:	b940      	cbnz	r0, 4082e8 <__swbuf_r+0x8c>
  4082d6:	6822      	ldr	r2, [r4, #0]
  4082d8:	2301      	movs	r3, #1
  4082da:	e7db      	b.n	408294 <__swbuf_r+0x38>
  4082dc:	4621      	mov	r1, r4
  4082de:	4630      	mov	r0, r6
  4082e0:	f7fe fce8 	bl	406cb4 <_fflush_r>
  4082e4:	2800      	cmp	r0, #0
  4082e6:	d0e3      	beq.n	4082b0 <__swbuf_r+0x54>
  4082e8:	f04f 37ff 	mov.w	r7, #4294967295
  4082ec:	e7e0      	b.n	4082b0 <__swbuf_r+0x54>
  4082ee:	4621      	mov	r1, r4
  4082f0:	4630      	mov	r0, r6
  4082f2:	f7fd fc0b 	bl	405b0c <__swsetup_r>
  4082f6:	2800      	cmp	r0, #0
  4082f8:	d1f6      	bne.n	4082e8 <__swbuf_r+0x8c>
  4082fa:	f9b4 200c 	ldrsh.w	r2, [r4, #12]
  4082fe:	6923      	ldr	r3, [r4, #16]
  408300:	b291      	uxth	r1, r2
  408302:	e7bd      	b.n	408280 <__swbuf_r+0x24>
  408304:	f7fe fd2e 	bl	406d64 <__sinit>
  408308:	e7b0      	b.n	40826c <__swbuf_r+0x10>
  40830a:	bf00      	nop

0040830c <_wcrtomb_r>:
  40830c:	b5f0      	push	{r4, r5, r6, r7, lr}
  40830e:	4606      	mov	r6, r0
  408310:	b085      	sub	sp, #20
  408312:	461f      	mov	r7, r3
  408314:	b189      	cbz	r1, 40833a <_wcrtomb_r+0x2e>
  408316:	4c10      	ldr	r4, [pc, #64]	; (408358 <_wcrtomb_r+0x4c>)
  408318:	4d10      	ldr	r5, [pc, #64]	; (40835c <_wcrtomb_r+0x50>)
  40831a:	6824      	ldr	r4, [r4, #0]
  40831c:	6b64      	ldr	r4, [r4, #52]	; 0x34
  40831e:	2c00      	cmp	r4, #0
  408320:	bf08      	it	eq
  408322:	462c      	moveq	r4, r5
  408324:	f8d4 40e0 	ldr.w	r4, [r4, #224]	; 0xe0
  408328:	47a0      	blx	r4
  40832a:	1c43      	adds	r3, r0, #1
  40832c:	d103      	bne.n	408336 <_wcrtomb_r+0x2a>
  40832e:	2200      	movs	r2, #0
  408330:	238a      	movs	r3, #138	; 0x8a
  408332:	603a      	str	r2, [r7, #0]
  408334:	6033      	str	r3, [r6, #0]
  408336:	b005      	add	sp, #20
  408338:	bdf0      	pop	{r4, r5, r6, r7, pc}
  40833a:	460c      	mov	r4, r1
  40833c:	4906      	ldr	r1, [pc, #24]	; (408358 <_wcrtomb_r+0x4c>)
  40833e:	4a07      	ldr	r2, [pc, #28]	; (40835c <_wcrtomb_r+0x50>)
  408340:	6809      	ldr	r1, [r1, #0]
  408342:	6b49      	ldr	r1, [r1, #52]	; 0x34
  408344:	2900      	cmp	r1, #0
  408346:	bf08      	it	eq
  408348:	4611      	moveq	r1, r2
  40834a:	4622      	mov	r2, r4
  40834c:	f8d1 40e0 	ldr.w	r4, [r1, #224]	; 0xe0
  408350:	a901      	add	r1, sp, #4
  408352:	47a0      	blx	r4
  408354:	e7e9      	b.n	40832a <_wcrtomb_r+0x1e>
  408356:	bf00      	nop
  408358:	2040000c 	.word	0x2040000c
  40835c:	2040084c 	.word	0x2040084c

00408360 <__ascii_wctomb>:
  408360:	b121      	cbz	r1, 40836c <__ascii_wctomb+0xc>
  408362:	2aff      	cmp	r2, #255	; 0xff
  408364:	d804      	bhi.n	408370 <__ascii_wctomb+0x10>
  408366:	700a      	strb	r2, [r1, #0]
  408368:	2001      	movs	r0, #1
  40836a:	4770      	bx	lr
  40836c:	4608      	mov	r0, r1
  40836e:	4770      	bx	lr
  408370:	238a      	movs	r3, #138	; 0x8a
  408372:	6003      	str	r3, [r0, #0]
  408374:	f04f 30ff 	mov.w	r0, #4294967295
  408378:	4770      	bx	lr
  40837a:	bf00      	nop

0040837c <_write_r>:
  40837c:	b570      	push	{r4, r5, r6, lr}
  40837e:	460d      	mov	r5, r1
  408380:	4c08      	ldr	r4, [pc, #32]	; (4083a4 <_write_r+0x28>)
  408382:	4611      	mov	r1, r2
  408384:	4606      	mov	r6, r0
  408386:	461a      	mov	r2, r3
  408388:	4628      	mov	r0, r5
  40838a:	2300      	movs	r3, #0
  40838c:	6023      	str	r3, [r4, #0]
  40838e:	f7f7 ff77 	bl	400280 <_write>
  408392:	1c43      	adds	r3, r0, #1
  408394:	d000      	beq.n	408398 <_write_r+0x1c>
  408396:	bd70      	pop	{r4, r5, r6, pc}
  408398:	6823      	ldr	r3, [r4, #0]
  40839a:	2b00      	cmp	r3, #0
  40839c:	d0fb      	beq.n	408396 <_write_r+0x1a>
  40839e:	6033      	str	r3, [r6, #0]
  4083a0:	bd70      	pop	{r4, r5, r6, pc}
  4083a2:	bf00      	nop
  4083a4:	20400d38 	.word	0x20400d38

004083a8 <__register_exitproc>:
  4083a8:	e92d 43f8 	stmdb	sp!, {r3, r4, r5, r6, r7, r8, r9, lr}
  4083ac:	4d2c      	ldr	r5, [pc, #176]	; (408460 <__register_exitproc+0xb8>)
  4083ae:	4606      	mov	r6, r0
  4083b0:	6828      	ldr	r0, [r5, #0]
  4083b2:	4698      	mov	r8, r3
  4083b4:	460f      	mov	r7, r1
  4083b6:	4691      	mov	r9, r2
  4083b8:	f7ff f8a2 	bl	407500 <__retarget_lock_acquire_recursive>
  4083bc:	4b29      	ldr	r3, [pc, #164]	; (408464 <__register_exitproc+0xbc>)
  4083be:	681c      	ldr	r4, [r3, #0]
  4083c0:	f8d4 3148 	ldr.w	r3, [r4, #328]	; 0x148
  4083c4:	2b00      	cmp	r3, #0
  4083c6:	d03e      	beq.n	408446 <__register_exitproc+0x9e>
  4083c8:	685a      	ldr	r2, [r3, #4]
  4083ca:	2a1f      	cmp	r2, #31
  4083cc:	dc1c      	bgt.n	408408 <__register_exitproc+0x60>
  4083ce:	f102 0e01 	add.w	lr, r2, #1
  4083d2:	b176      	cbz	r6, 4083f2 <__register_exitproc+0x4a>
  4083d4:	eb03 0182 	add.w	r1, r3, r2, lsl #2
  4083d8:	2401      	movs	r4, #1
  4083da:	f8c1 9088 	str.w	r9, [r1, #136]	; 0x88
  4083de:	f8d3 0188 	ldr.w	r0, [r3, #392]	; 0x188
  4083e2:	4094      	lsls	r4, r2
  4083e4:	4320      	orrs	r0, r4
  4083e6:	2e02      	cmp	r6, #2
  4083e8:	f8c3 0188 	str.w	r0, [r3, #392]	; 0x188
  4083ec:	f8c1 8108 	str.w	r8, [r1, #264]	; 0x108
  4083f0:	d023      	beq.n	40843a <__register_exitproc+0x92>
  4083f2:	3202      	adds	r2, #2
  4083f4:	f8c3 e004 	str.w	lr, [r3, #4]
  4083f8:	6828      	ldr	r0, [r5, #0]
  4083fa:	f843 7022 	str.w	r7, [r3, r2, lsl #2]
  4083fe:	f7ff f881 	bl	407504 <__retarget_lock_release_recursive>
  408402:	2000      	movs	r0, #0
  408404:	e8bd 83f8 	ldmia.w	sp!, {r3, r4, r5, r6, r7, r8, r9, pc}
  408408:	4b17      	ldr	r3, [pc, #92]	; (408468 <__register_exitproc+0xc0>)
  40840a:	b30b      	cbz	r3, 408450 <__register_exitproc+0xa8>
  40840c:	f44f 70c8 	mov.w	r0, #400	; 0x190
  408410:	f7fa fcf0 	bl	402df4 <malloc>
  408414:	4603      	mov	r3, r0
  408416:	b1d8      	cbz	r0, 408450 <__register_exitproc+0xa8>
  408418:	f8d4 2148 	ldr.w	r2, [r4, #328]	; 0x148
  40841c:	6002      	str	r2, [r0, #0]
  40841e:	2100      	movs	r1, #0
  408420:	6041      	str	r1, [r0, #4]
  408422:	460a      	mov	r2, r1
  408424:	f8c4 0148 	str.w	r0, [r4, #328]	; 0x148
  408428:	f04f 0e01 	mov.w	lr, #1
  40842c:	f8c0 1188 	str.w	r1, [r0, #392]	; 0x188
  408430:	f8c0 118c 	str.w	r1, [r0, #396]	; 0x18c
  408434:	2e00      	cmp	r6, #0
  408436:	d0dc      	beq.n	4083f2 <__register_exitproc+0x4a>
  408438:	e7cc      	b.n	4083d4 <__register_exitproc+0x2c>
  40843a:	f8d3 118c 	ldr.w	r1, [r3, #396]	; 0x18c
  40843e:	430c      	orrs	r4, r1
  408440:	f8c3 418c 	str.w	r4, [r3, #396]	; 0x18c
  408444:	e7d5      	b.n	4083f2 <__register_exitproc+0x4a>
  408446:	f504 73a6 	add.w	r3, r4, #332	; 0x14c
  40844a:	f8c4 3148 	str.w	r3, [r4, #328]	; 0x148
  40844e:	e7bb      	b.n	4083c8 <__register_exitproc+0x20>
  408450:	6828      	ldr	r0, [r5, #0]
  408452:	f7ff f857 	bl	407504 <__retarget_lock_release_recursive>
  408456:	f04f 30ff 	mov.w	r0, #4294967295
  40845a:	e8bd 83f8 	ldmia.w	sp!, {r3, r4, r5, r6, r7, r8, r9, pc}
  40845e:	bf00      	nop
  408460:	20400848 	.word	0x20400848
  408464:	004093b4 	.word	0x004093b4
  408468:	00402df5 	.word	0x00402df5

0040846c <_calloc_r>:
  40846c:	b510      	push	{r4, lr}
  40846e:	fb02 f101 	mul.w	r1, r2, r1
  408472:	f7fa fccf 	bl	402e14 <_malloc_r>
  408476:	4604      	mov	r4, r0
  408478:	b1d8      	cbz	r0, 4084b2 <_calloc_r+0x46>
  40847a:	f850 2c04 	ldr.w	r2, [r0, #-4]
  40847e:	f022 0203 	bic.w	r2, r2, #3
  408482:	3a04      	subs	r2, #4
  408484:	2a24      	cmp	r2, #36	; 0x24
  408486:	d818      	bhi.n	4084ba <_calloc_r+0x4e>
  408488:	2a13      	cmp	r2, #19
  40848a:	d914      	bls.n	4084b6 <_calloc_r+0x4a>
  40848c:	2300      	movs	r3, #0
  40848e:	2a1b      	cmp	r2, #27
  408490:	6003      	str	r3, [r0, #0]
  408492:	6043      	str	r3, [r0, #4]
  408494:	d916      	bls.n	4084c4 <_calloc_r+0x58>
  408496:	2a24      	cmp	r2, #36	; 0x24
  408498:	6083      	str	r3, [r0, #8]
  40849a:	60c3      	str	r3, [r0, #12]
  40849c:	bf11      	iteee	ne
  40849e:	f100 0210 	addne.w	r2, r0, #16
  4084a2:	6103      	streq	r3, [r0, #16]
  4084a4:	6143      	streq	r3, [r0, #20]
  4084a6:	f100 0218 	addeq.w	r2, r0, #24
  4084aa:	2300      	movs	r3, #0
  4084ac:	6013      	str	r3, [r2, #0]
  4084ae:	6053      	str	r3, [r2, #4]
  4084b0:	6093      	str	r3, [r2, #8]
  4084b2:	4620      	mov	r0, r4
  4084b4:	bd10      	pop	{r4, pc}
  4084b6:	4602      	mov	r2, r0
  4084b8:	e7f7      	b.n	4084aa <_calloc_r+0x3e>
  4084ba:	2100      	movs	r1, #0
  4084bc:	f7fa fff4 	bl	4034a8 <memset>
  4084c0:	4620      	mov	r0, r4
  4084c2:	bd10      	pop	{r4, pc}
  4084c4:	f100 0208 	add.w	r2, r0, #8
  4084c8:	e7ef      	b.n	4084aa <_calloc_r+0x3e>
  4084ca:	bf00      	nop

004084cc <_close_r>:
  4084cc:	b538      	push	{r3, r4, r5, lr}
  4084ce:	4c07      	ldr	r4, [pc, #28]	; (4084ec <_close_r+0x20>)
  4084d0:	2300      	movs	r3, #0
  4084d2:	4605      	mov	r5, r0
  4084d4:	4608      	mov	r0, r1
  4084d6:	6023      	str	r3, [r4, #0]
  4084d8:	f7f8 fac8 	bl	400a6c <_close>
  4084dc:	1c43      	adds	r3, r0, #1
  4084de:	d000      	beq.n	4084e2 <_close_r+0x16>
  4084e0:	bd38      	pop	{r3, r4, r5, pc}
  4084e2:	6823      	ldr	r3, [r4, #0]
  4084e4:	2b00      	cmp	r3, #0
  4084e6:	d0fb      	beq.n	4084e0 <_close_r+0x14>
  4084e8:	602b      	str	r3, [r5, #0]
  4084ea:	bd38      	pop	{r3, r4, r5, pc}
  4084ec:	20400d38 	.word	0x20400d38

004084f0 <_fclose_r>:
  4084f0:	b570      	push	{r4, r5, r6, lr}
  4084f2:	b159      	cbz	r1, 40850c <_fclose_r+0x1c>
  4084f4:	4605      	mov	r5, r0
  4084f6:	460c      	mov	r4, r1
  4084f8:	b110      	cbz	r0, 408500 <_fclose_r+0x10>
  4084fa:	6b83      	ldr	r3, [r0, #56]	; 0x38
  4084fc:	2b00      	cmp	r3, #0
  4084fe:	d03c      	beq.n	40857a <_fclose_r+0x8a>
  408500:	6e63      	ldr	r3, [r4, #100]	; 0x64
  408502:	07d8      	lsls	r0, r3, #31
  408504:	d505      	bpl.n	408512 <_fclose_r+0x22>
  408506:	f9b4 300c 	ldrsh.w	r3, [r4, #12]
  40850a:	b92b      	cbnz	r3, 408518 <_fclose_r+0x28>
  40850c:	2600      	movs	r6, #0
  40850e:	4630      	mov	r0, r6
  408510:	bd70      	pop	{r4, r5, r6, pc}
  408512:	89a3      	ldrh	r3, [r4, #12]
  408514:	0599      	lsls	r1, r3, #22
  408516:	d53c      	bpl.n	408592 <_fclose_r+0xa2>
  408518:	4621      	mov	r1, r4
  40851a:	4628      	mov	r0, r5
  40851c:	f7fe fb2a 	bl	406b74 <__sflush_r>
  408520:	6ae3      	ldr	r3, [r4, #44]	; 0x2c
  408522:	4606      	mov	r6, r0
  408524:	b133      	cbz	r3, 408534 <_fclose_r+0x44>
  408526:	69e1      	ldr	r1, [r4, #28]
  408528:	4628      	mov	r0, r5
  40852a:	4798      	blx	r3
  40852c:	2800      	cmp	r0, #0
  40852e:	bfb8      	it	lt
  408530:	f04f 36ff 	movlt.w	r6, #4294967295
  408534:	89a3      	ldrh	r3, [r4, #12]
  408536:	061a      	lsls	r2, r3, #24
  408538:	d422      	bmi.n	408580 <_fclose_r+0x90>
  40853a:	6b21      	ldr	r1, [r4, #48]	; 0x30
  40853c:	b141      	cbz	r1, 408550 <_fclose_r+0x60>
  40853e:	f104 0340 	add.w	r3, r4, #64	; 0x40
  408542:	4299      	cmp	r1, r3
  408544:	d002      	beq.n	40854c <_fclose_r+0x5c>
  408546:	4628      	mov	r0, r5
  408548:	f7fe fd32 	bl	406fb0 <_free_r>
  40854c:	2300      	movs	r3, #0
  40854e:	6323      	str	r3, [r4, #48]	; 0x30
  408550:	6c61      	ldr	r1, [r4, #68]	; 0x44
  408552:	b121      	cbz	r1, 40855e <_fclose_r+0x6e>
  408554:	4628      	mov	r0, r5
  408556:	f7fe fd2b 	bl	406fb0 <_free_r>
  40855a:	2300      	movs	r3, #0
  40855c:	6463      	str	r3, [r4, #68]	; 0x44
  40855e:	f7fe fc2d 	bl	406dbc <__sfp_lock_acquire>
  408562:	6e63      	ldr	r3, [r4, #100]	; 0x64
  408564:	2200      	movs	r2, #0
  408566:	07db      	lsls	r3, r3, #31
  408568:	81a2      	strh	r2, [r4, #12]
  40856a:	d50e      	bpl.n	40858a <_fclose_r+0x9a>
  40856c:	6da0      	ldr	r0, [r4, #88]	; 0x58
  40856e:	f7fe ffc5 	bl	4074fc <__retarget_lock_close_recursive>
  408572:	f7fe fc29 	bl	406dc8 <__sfp_lock_release>
  408576:	4630      	mov	r0, r6
  408578:	bd70      	pop	{r4, r5, r6, pc}
  40857a:	f7fe fbf3 	bl	406d64 <__sinit>
  40857e:	e7bf      	b.n	408500 <_fclose_r+0x10>
  408580:	6921      	ldr	r1, [r4, #16]
  408582:	4628      	mov	r0, r5
  408584:	f7fe fd14 	bl	406fb0 <_free_r>
  408588:	e7d7      	b.n	40853a <_fclose_r+0x4a>
  40858a:	6da0      	ldr	r0, [r4, #88]	; 0x58
  40858c:	f7fe ffba 	bl	407504 <__retarget_lock_release_recursive>
  408590:	e7ec      	b.n	40856c <_fclose_r+0x7c>
  408592:	6da0      	ldr	r0, [r4, #88]	; 0x58
  408594:	f7fe ffb4 	bl	407500 <__retarget_lock_acquire_recursive>
  408598:	f9b4 300c 	ldrsh.w	r3, [r4, #12]
  40859c:	2b00      	cmp	r3, #0
  40859e:	d1bb      	bne.n	408518 <_fclose_r+0x28>
  4085a0:	6e66      	ldr	r6, [r4, #100]	; 0x64
  4085a2:	f016 0601 	ands.w	r6, r6, #1
  4085a6:	d1b1      	bne.n	40850c <_fclose_r+0x1c>
  4085a8:	6da0      	ldr	r0, [r4, #88]	; 0x58
  4085aa:	f7fe ffab 	bl	407504 <__retarget_lock_release_recursive>
  4085ae:	4630      	mov	r0, r6
  4085b0:	bd70      	pop	{r4, r5, r6, pc}
  4085b2:	bf00      	nop

004085b4 <_fstat_r>:
  4085b4:	b538      	push	{r3, r4, r5, lr}
  4085b6:	460b      	mov	r3, r1
  4085b8:	4c07      	ldr	r4, [pc, #28]	; (4085d8 <_fstat_r+0x24>)
  4085ba:	4605      	mov	r5, r0
  4085bc:	4611      	mov	r1, r2
  4085be:	4618      	mov	r0, r3
  4085c0:	2300      	movs	r3, #0
  4085c2:	6023      	str	r3, [r4, #0]
  4085c4:	f7f8 fa55 	bl	400a72 <_fstat>
  4085c8:	1c43      	adds	r3, r0, #1
  4085ca:	d000      	beq.n	4085ce <_fstat_r+0x1a>
  4085cc:	bd38      	pop	{r3, r4, r5, pc}
  4085ce:	6823      	ldr	r3, [r4, #0]
  4085d0:	2b00      	cmp	r3, #0
  4085d2:	d0fb      	beq.n	4085cc <_fstat_r+0x18>
  4085d4:	602b      	str	r3, [r5, #0]
  4085d6:	bd38      	pop	{r3, r4, r5, pc}
  4085d8:	20400d38 	.word	0x20400d38

004085dc <_isatty_r>:
  4085dc:	b538      	push	{r3, r4, r5, lr}
  4085de:	4c07      	ldr	r4, [pc, #28]	; (4085fc <_isatty_r+0x20>)
  4085e0:	2300      	movs	r3, #0
  4085e2:	4605      	mov	r5, r0
  4085e4:	4608      	mov	r0, r1
  4085e6:	6023      	str	r3, [r4, #0]
  4085e8:	f7f8 fa48 	bl	400a7c <_isatty>
  4085ec:	1c43      	adds	r3, r0, #1
  4085ee:	d000      	beq.n	4085f2 <_isatty_r+0x16>
  4085f0:	bd38      	pop	{r3, r4, r5, pc}
  4085f2:	6823      	ldr	r3, [r4, #0]
  4085f4:	2b00      	cmp	r3, #0
  4085f6:	d0fb      	beq.n	4085f0 <_isatty_r+0x14>
  4085f8:	602b      	str	r3, [r5, #0]
  4085fa:	bd38      	pop	{r3, r4, r5, pc}
  4085fc:	20400d38 	.word	0x20400d38

00408600 <_lseek_r>:
  408600:	b570      	push	{r4, r5, r6, lr}
  408602:	460d      	mov	r5, r1
  408604:	4c08      	ldr	r4, [pc, #32]	; (408628 <_lseek_r+0x28>)
  408606:	4611      	mov	r1, r2
  408608:	4606      	mov	r6, r0
  40860a:	461a      	mov	r2, r3
  40860c:	4628      	mov	r0, r5
  40860e:	2300      	movs	r3, #0
  408610:	6023      	str	r3, [r4, #0]
  408612:	f7f8 fa35 	bl	400a80 <_lseek>
  408616:	1c43      	adds	r3, r0, #1
  408618:	d000      	beq.n	40861c <_lseek_r+0x1c>
  40861a:	bd70      	pop	{r4, r5, r6, pc}
  40861c:	6823      	ldr	r3, [r4, #0]
  40861e:	2b00      	cmp	r3, #0
  408620:	d0fb      	beq.n	40861a <_lseek_r+0x1a>
  408622:	6033      	str	r3, [r6, #0]
  408624:	bd70      	pop	{r4, r5, r6, pc}
  408626:	bf00      	nop
  408628:	20400d38 	.word	0x20400d38

0040862c <_read_r>:
  40862c:	b570      	push	{r4, r5, r6, lr}
  40862e:	460d      	mov	r5, r1
  408630:	4c08      	ldr	r4, [pc, #32]	; (408654 <_read_r+0x28>)
  408632:	4611      	mov	r1, r2
  408634:	4606      	mov	r6, r0
  408636:	461a      	mov	r2, r3
  408638:	4628      	mov	r0, r5
  40863a:	2300      	movs	r3, #0
  40863c:	6023      	str	r3, [r4, #0]
  40863e:	f7f7 fe01 	bl	400244 <_read>
  408642:	1c43      	adds	r3, r0, #1
  408644:	d000      	beq.n	408648 <_read_r+0x1c>
  408646:	bd70      	pop	{r4, r5, r6, pc}
  408648:	6823      	ldr	r3, [r4, #0]
  40864a:	2b00      	cmp	r3, #0
  40864c:	d0fb      	beq.n	408646 <_read_r+0x1a>
  40864e:	6033      	str	r3, [r6, #0]
  408650:	bd70      	pop	{r4, r5, r6, pc}
  408652:	bf00      	nop
  408654:	20400d38 	.word	0x20400d38

00408658 <__aeabi_drsub>:
  408658:	f081 4100 	eor.w	r1, r1, #2147483648	; 0x80000000
  40865c:	e002      	b.n	408664 <__adddf3>
  40865e:	bf00      	nop

00408660 <__aeabi_dsub>:
  408660:	f083 4300 	eor.w	r3, r3, #2147483648	; 0x80000000

00408664 <__adddf3>:
  408664:	b530      	push	{r4, r5, lr}
  408666:	ea4f 0441 	mov.w	r4, r1, lsl #1
  40866a:	ea4f 0543 	mov.w	r5, r3, lsl #1
  40866e:	ea94 0f05 	teq	r4, r5
  408672:	bf08      	it	eq
  408674:	ea90 0f02 	teqeq	r0, r2
  408678:	bf1f      	itttt	ne
  40867a:	ea54 0c00 	orrsne.w	ip, r4, r0
  40867e:	ea55 0c02 	orrsne.w	ip, r5, r2
  408682:	ea7f 5c64 	mvnsne.w	ip, r4, asr #21
  408686:	ea7f 5c65 	mvnsne.w	ip, r5, asr #21
  40868a:	f000 80e2 	beq.w	408852 <__adddf3+0x1ee>
  40868e:	ea4f 5454 	mov.w	r4, r4, lsr #21
  408692:	ebd4 5555 	rsbs	r5, r4, r5, lsr #21
  408696:	bfb8      	it	lt
  408698:	426d      	neglt	r5, r5
  40869a:	dd0c      	ble.n	4086b6 <__adddf3+0x52>
  40869c:	442c      	add	r4, r5
  40869e:	ea80 0202 	eor.w	r2, r0, r2
  4086a2:	ea81 0303 	eor.w	r3, r1, r3
  4086a6:	ea82 0000 	eor.w	r0, r2, r0
  4086aa:	ea83 0101 	eor.w	r1, r3, r1
  4086ae:	ea80 0202 	eor.w	r2, r0, r2
  4086b2:	ea81 0303 	eor.w	r3, r1, r3
  4086b6:	2d36      	cmp	r5, #54	; 0x36
  4086b8:	bf88      	it	hi
  4086ba:	bd30      	pophi	{r4, r5, pc}
  4086bc:	f011 4f00 	tst.w	r1, #2147483648	; 0x80000000
  4086c0:	ea4f 3101 	mov.w	r1, r1, lsl #12
  4086c4:	f44f 1c80 	mov.w	ip, #1048576	; 0x100000
  4086c8:	ea4c 3111 	orr.w	r1, ip, r1, lsr #12
  4086cc:	d002      	beq.n	4086d4 <__adddf3+0x70>
  4086ce:	4240      	negs	r0, r0
  4086d0:	eb61 0141 	sbc.w	r1, r1, r1, lsl #1
  4086d4:	f013 4f00 	tst.w	r3, #2147483648	; 0x80000000
  4086d8:	ea4f 3303 	mov.w	r3, r3, lsl #12
  4086dc:	ea4c 3313 	orr.w	r3, ip, r3, lsr #12
  4086e0:	d002      	beq.n	4086e8 <__adddf3+0x84>
  4086e2:	4252      	negs	r2, r2
  4086e4:	eb63 0343 	sbc.w	r3, r3, r3, lsl #1
  4086e8:	ea94 0f05 	teq	r4, r5
  4086ec:	f000 80a7 	beq.w	40883e <__adddf3+0x1da>
  4086f0:	f1a4 0401 	sub.w	r4, r4, #1
  4086f4:	f1d5 0e20 	rsbs	lr, r5, #32
  4086f8:	db0d      	blt.n	408716 <__adddf3+0xb2>
  4086fa:	fa02 fc0e 	lsl.w	ip, r2, lr
  4086fe:	fa22 f205 	lsr.w	r2, r2, r5
  408702:	1880      	adds	r0, r0, r2
  408704:	f141 0100 	adc.w	r1, r1, #0
  408708:	fa03 f20e 	lsl.w	r2, r3, lr
  40870c:	1880      	adds	r0, r0, r2
  40870e:	fa43 f305 	asr.w	r3, r3, r5
  408712:	4159      	adcs	r1, r3
  408714:	e00e      	b.n	408734 <__adddf3+0xd0>
  408716:	f1a5 0520 	sub.w	r5, r5, #32
  40871a:	f10e 0e20 	add.w	lr, lr, #32
  40871e:	2a01      	cmp	r2, #1
  408720:	fa03 fc0e 	lsl.w	ip, r3, lr
  408724:	bf28      	it	cs
  408726:	f04c 0c02 	orrcs.w	ip, ip, #2
  40872a:	fa43 f305 	asr.w	r3, r3, r5
  40872e:	18c0      	adds	r0, r0, r3
  408730:	eb51 71e3 	adcs.w	r1, r1, r3, asr #31
  408734:	f001 4500 	and.w	r5, r1, #2147483648	; 0x80000000
  408738:	d507      	bpl.n	40874a <__adddf3+0xe6>
  40873a:	f04f 0e00 	mov.w	lr, #0
  40873e:	f1dc 0c00 	rsbs	ip, ip, #0
  408742:	eb7e 0000 	sbcs.w	r0, lr, r0
  408746:	eb6e 0101 	sbc.w	r1, lr, r1
  40874a:	f5b1 1f80 	cmp.w	r1, #1048576	; 0x100000
  40874e:	d31b      	bcc.n	408788 <__adddf3+0x124>
  408750:	f5b1 1f00 	cmp.w	r1, #2097152	; 0x200000
  408754:	d30c      	bcc.n	408770 <__adddf3+0x10c>
  408756:	0849      	lsrs	r1, r1, #1
  408758:	ea5f 0030 	movs.w	r0, r0, rrx
  40875c:	ea4f 0c3c 	mov.w	ip, ip, rrx
  408760:	f104 0401 	add.w	r4, r4, #1
  408764:	ea4f 5244 	mov.w	r2, r4, lsl #21
  408768:	f512 0f80 	cmn.w	r2, #4194304	; 0x400000
  40876c:	f080 809a 	bcs.w	4088a4 <__adddf3+0x240>
  408770:	f1bc 4f00 	cmp.w	ip, #2147483648	; 0x80000000
  408774:	bf08      	it	eq
  408776:	ea5f 0c50 	movseq.w	ip, r0, lsr #1
  40877a:	f150 0000 	adcs.w	r0, r0, #0
  40877e:	eb41 5104 	adc.w	r1, r1, r4, lsl #20
  408782:	ea41 0105 	orr.w	r1, r1, r5
  408786:	bd30      	pop	{r4, r5, pc}
  408788:	ea5f 0c4c 	movs.w	ip, ip, lsl #1
  40878c:	4140      	adcs	r0, r0
  40878e:	eb41 0101 	adc.w	r1, r1, r1
  408792:	f411 1f80 	tst.w	r1, #1048576	; 0x100000
  408796:	f1a4 0401 	sub.w	r4, r4, #1
  40879a:	d1e9      	bne.n	408770 <__adddf3+0x10c>
  40879c:	f091 0f00 	teq	r1, #0
  4087a0:	bf04      	itt	eq
  4087a2:	4601      	moveq	r1, r0
  4087a4:	2000      	moveq	r0, #0
  4087a6:	fab1 f381 	clz	r3, r1
  4087aa:	bf08      	it	eq
  4087ac:	3320      	addeq	r3, #32
  4087ae:	f1a3 030b 	sub.w	r3, r3, #11
  4087b2:	f1b3 0220 	subs.w	r2, r3, #32
  4087b6:	da0c      	bge.n	4087d2 <__adddf3+0x16e>
  4087b8:	320c      	adds	r2, #12
  4087ba:	dd08      	ble.n	4087ce <__adddf3+0x16a>
  4087bc:	f102 0c14 	add.w	ip, r2, #20
  4087c0:	f1c2 020c 	rsb	r2, r2, #12
  4087c4:	fa01 f00c 	lsl.w	r0, r1, ip
  4087c8:	fa21 f102 	lsr.w	r1, r1, r2
  4087cc:	e00c      	b.n	4087e8 <__adddf3+0x184>
  4087ce:	f102 0214 	add.w	r2, r2, #20
  4087d2:	bfd8      	it	le
  4087d4:	f1c2 0c20 	rsble	ip, r2, #32
  4087d8:	fa01 f102 	lsl.w	r1, r1, r2
  4087dc:	fa20 fc0c 	lsr.w	ip, r0, ip
  4087e0:	bfdc      	itt	le
  4087e2:	ea41 010c 	orrle.w	r1, r1, ip
  4087e6:	4090      	lslle	r0, r2
  4087e8:	1ae4      	subs	r4, r4, r3
  4087ea:	bfa2      	ittt	ge
  4087ec:	eb01 5104 	addge.w	r1, r1, r4, lsl #20
  4087f0:	4329      	orrge	r1, r5
  4087f2:	bd30      	popge	{r4, r5, pc}
  4087f4:	ea6f 0404 	mvn.w	r4, r4
  4087f8:	3c1f      	subs	r4, #31
  4087fa:	da1c      	bge.n	408836 <__adddf3+0x1d2>
  4087fc:	340c      	adds	r4, #12
  4087fe:	dc0e      	bgt.n	40881e <__adddf3+0x1ba>
  408800:	f104 0414 	add.w	r4, r4, #20
  408804:	f1c4 0220 	rsb	r2, r4, #32
  408808:	fa20 f004 	lsr.w	r0, r0, r4
  40880c:	fa01 f302 	lsl.w	r3, r1, r2
  408810:	ea40 0003 	orr.w	r0, r0, r3
  408814:	fa21 f304 	lsr.w	r3, r1, r4
  408818:	ea45 0103 	orr.w	r1, r5, r3
  40881c:	bd30      	pop	{r4, r5, pc}
  40881e:	f1c4 040c 	rsb	r4, r4, #12
  408822:	f1c4 0220 	rsb	r2, r4, #32
  408826:	fa20 f002 	lsr.w	r0, r0, r2
  40882a:	fa01 f304 	lsl.w	r3, r1, r4
  40882e:	ea40 0003 	orr.w	r0, r0, r3
  408832:	4629      	mov	r1, r5
  408834:	bd30      	pop	{r4, r5, pc}
  408836:	fa21 f004 	lsr.w	r0, r1, r4
  40883a:	4629      	mov	r1, r5
  40883c:	bd30      	pop	{r4, r5, pc}
  40883e:	f094 0f00 	teq	r4, #0
  408842:	f483 1380 	eor.w	r3, r3, #1048576	; 0x100000
  408846:	bf06      	itte	eq
  408848:	f481 1180 	eoreq.w	r1, r1, #1048576	; 0x100000
  40884c:	3401      	addeq	r4, #1
  40884e:	3d01      	subne	r5, #1
  408850:	e74e      	b.n	4086f0 <__adddf3+0x8c>
  408852:	ea7f 5c64 	mvns.w	ip, r4, asr #21
  408856:	bf18      	it	ne
  408858:	ea7f 5c65 	mvnsne.w	ip, r5, asr #21
  40885c:	d029      	beq.n	4088b2 <__adddf3+0x24e>
  40885e:	ea94 0f05 	teq	r4, r5
  408862:	bf08      	it	eq
  408864:	ea90 0f02 	teqeq	r0, r2
  408868:	d005      	beq.n	408876 <__adddf3+0x212>
  40886a:	ea54 0c00 	orrs.w	ip, r4, r0
  40886e:	bf04      	itt	eq
  408870:	4619      	moveq	r1, r3
  408872:	4610      	moveq	r0, r2
  408874:	bd30      	pop	{r4, r5, pc}
  408876:	ea91 0f03 	teq	r1, r3
  40887a:	bf1e      	ittt	ne
  40887c:	2100      	movne	r1, #0
  40887e:	2000      	movne	r0, #0
  408880:	bd30      	popne	{r4, r5, pc}
  408882:	ea5f 5c54 	movs.w	ip, r4, lsr #21
  408886:	d105      	bne.n	408894 <__adddf3+0x230>
  408888:	0040      	lsls	r0, r0, #1
  40888a:	4149      	adcs	r1, r1
  40888c:	bf28      	it	cs
  40888e:	f041 4100 	orrcs.w	r1, r1, #2147483648	; 0x80000000
  408892:	bd30      	pop	{r4, r5, pc}
  408894:	f514 0480 	adds.w	r4, r4, #4194304	; 0x400000
  408898:	bf3c      	itt	cc
  40889a:	f501 1180 	addcc.w	r1, r1, #1048576	; 0x100000
  40889e:	bd30      	popcc	{r4, r5, pc}
  4088a0:	f001 4500 	and.w	r5, r1, #2147483648	; 0x80000000
  4088a4:	f045 41fe 	orr.w	r1, r5, #2130706432	; 0x7f000000
  4088a8:	f441 0170 	orr.w	r1, r1, #15728640	; 0xf00000
  4088ac:	f04f 0000 	mov.w	r0, #0
  4088b0:	bd30      	pop	{r4, r5, pc}
  4088b2:	ea7f 5c64 	mvns.w	ip, r4, asr #21
  4088b6:	bf1a      	itte	ne
  4088b8:	4619      	movne	r1, r3
  4088ba:	4610      	movne	r0, r2
  4088bc:	ea7f 5c65 	mvnseq.w	ip, r5, asr #21
  4088c0:	bf1c      	itt	ne
  4088c2:	460b      	movne	r3, r1
  4088c4:	4602      	movne	r2, r0
  4088c6:	ea50 3401 	orrs.w	r4, r0, r1, lsl #12
  4088ca:	bf06      	itte	eq
  4088cc:	ea52 3503 	orrseq.w	r5, r2, r3, lsl #12
  4088d0:	ea91 0f03 	teqeq	r1, r3
  4088d4:	f441 2100 	orrne.w	r1, r1, #524288	; 0x80000
  4088d8:	bd30      	pop	{r4, r5, pc}
  4088da:	bf00      	nop

004088dc <__aeabi_ui2d>:
  4088dc:	f090 0f00 	teq	r0, #0
  4088e0:	bf04      	itt	eq
  4088e2:	2100      	moveq	r1, #0
  4088e4:	4770      	bxeq	lr
  4088e6:	b530      	push	{r4, r5, lr}
  4088e8:	f44f 6480 	mov.w	r4, #1024	; 0x400
  4088ec:	f104 0432 	add.w	r4, r4, #50	; 0x32
  4088f0:	f04f 0500 	mov.w	r5, #0
  4088f4:	f04f 0100 	mov.w	r1, #0
  4088f8:	e750      	b.n	40879c <__adddf3+0x138>
  4088fa:	bf00      	nop

004088fc <__aeabi_i2d>:
  4088fc:	f090 0f00 	teq	r0, #0
  408900:	bf04      	itt	eq
  408902:	2100      	moveq	r1, #0
  408904:	4770      	bxeq	lr
  408906:	b530      	push	{r4, r5, lr}
  408908:	f44f 6480 	mov.w	r4, #1024	; 0x400
  40890c:	f104 0432 	add.w	r4, r4, #50	; 0x32
  408910:	f010 4500 	ands.w	r5, r0, #2147483648	; 0x80000000
  408914:	bf48      	it	mi
  408916:	4240      	negmi	r0, r0
  408918:	f04f 0100 	mov.w	r1, #0
  40891c:	e73e      	b.n	40879c <__adddf3+0x138>
  40891e:	bf00      	nop

00408920 <__aeabi_f2d>:
  408920:	0042      	lsls	r2, r0, #1
  408922:	ea4f 01e2 	mov.w	r1, r2, asr #3
  408926:	ea4f 0131 	mov.w	r1, r1, rrx
  40892a:	ea4f 7002 	mov.w	r0, r2, lsl #28
  40892e:	bf1f      	itttt	ne
  408930:	f012 437f 	andsne.w	r3, r2, #4278190080	; 0xff000000
  408934:	f093 4f7f 	teqne	r3, #4278190080	; 0xff000000
  408938:	f081 5160 	eorne.w	r1, r1, #939524096	; 0x38000000
  40893c:	4770      	bxne	lr
  40893e:	f092 0f00 	teq	r2, #0
  408942:	bf14      	ite	ne
  408944:	f093 4f7f 	teqne	r3, #4278190080	; 0xff000000
  408948:	4770      	bxeq	lr
  40894a:	b530      	push	{r4, r5, lr}
  40894c:	f44f 7460 	mov.w	r4, #896	; 0x380
  408950:	f001 4500 	and.w	r5, r1, #2147483648	; 0x80000000
  408954:	f021 4100 	bic.w	r1, r1, #2147483648	; 0x80000000
  408958:	e720      	b.n	40879c <__adddf3+0x138>
  40895a:	bf00      	nop

0040895c <__aeabi_ul2d>:
  40895c:	ea50 0201 	orrs.w	r2, r0, r1
  408960:	bf08      	it	eq
  408962:	4770      	bxeq	lr
  408964:	b530      	push	{r4, r5, lr}
  408966:	f04f 0500 	mov.w	r5, #0
  40896a:	e00a      	b.n	408982 <__aeabi_l2d+0x16>

0040896c <__aeabi_l2d>:
  40896c:	ea50 0201 	orrs.w	r2, r0, r1
  408970:	bf08      	it	eq
  408972:	4770      	bxeq	lr
  408974:	b530      	push	{r4, r5, lr}
  408976:	f011 4500 	ands.w	r5, r1, #2147483648	; 0x80000000
  40897a:	d502      	bpl.n	408982 <__aeabi_l2d+0x16>
  40897c:	4240      	negs	r0, r0
  40897e:	eb61 0141 	sbc.w	r1, r1, r1, lsl #1
  408982:	f44f 6480 	mov.w	r4, #1024	; 0x400
  408986:	f104 0432 	add.w	r4, r4, #50	; 0x32
  40898a:	ea5f 5c91 	movs.w	ip, r1, lsr #22
  40898e:	f43f aedc 	beq.w	40874a <__adddf3+0xe6>
  408992:	f04f 0203 	mov.w	r2, #3
  408996:	ea5f 0cdc 	movs.w	ip, ip, lsr #3
  40899a:	bf18      	it	ne
  40899c:	3203      	addne	r2, #3
  40899e:	ea5f 0cdc 	movs.w	ip, ip, lsr #3
  4089a2:	bf18      	it	ne
  4089a4:	3203      	addne	r2, #3
  4089a6:	eb02 02dc 	add.w	r2, r2, ip, lsr #3
  4089aa:	f1c2 0320 	rsb	r3, r2, #32
  4089ae:	fa00 fc03 	lsl.w	ip, r0, r3
  4089b2:	fa20 f002 	lsr.w	r0, r0, r2
  4089b6:	fa01 fe03 	lsl.w	lr, r1, r3
  4089ba:	ea40 000e 	orr.w	r0, r0, lr
  4089be:	fa21 f102 	lsr.w	r1, r1, r2
  4089c2:	4414      	add	r4, r2
  4089c4:	e6c1      	b.n	40874a <__adddf3+0xe6>
  4089c6:	bf00      	nop

004089c8 <__aeabi_dmul>:
  4089c8:	b570      	push	{r4, r5, r6, lr}
  4089ca:	f04f 0cff 	mov.w	ip, #255	; 0xff
  4089ce:	f44c 6ce0 	orr.w	ip, ip, #1792	; 0x700
  4089d2:	ea1c 5411 	ands.w	r4, ip, r1, lsr #20
  4089d6:	bf1d      	ittte	ne
  4089d8:	ea1c 5513 	andsne.w	r5, ip, r3, lsr #20
  4089dc:	ea94 0f0c 	teqne	r4, ip
  4089e0:	ea95 0f0c 	teqne	r5, ip
  4089e4:	f000 f8de 	bleq	408ba4 <__aeabi_dmul+0x1dc>
  4089e8:	442c      	add	r4, r5
  4089ea:	ea81 0603 	eor.w	r6, r1, r3
  4089ee:	ea21 514c 	bic.w	r1, r1, ip, lsl #21
  4089f2:	ea23 534c 	bic.w	r3, r3, ip, lsl #21
  4089f6:	ea50 3501 	orrs.w	r5, r0, r1, lsl #12
  4089fa:	bf18      	it	ne
  4089fc:	ea52 3503 	orrsne.w	r5, r2, r3, lsl #12
  408a00:	f441 1180 	orr.w	r1, r1, #1048576	; 0x100000
  408a04:	f443 1380 	orr.w	r3, r3, #1048576	; 0x100000
  408a08:	d038      	beq.n	408a7c <__aeabi_dmul+0xb4>
  408a0a:	fba0 ce02 	umull	ip, lr, r0, r2
  408a0e:	f04f 0500 	mov.w	r5, #0
  408a12:	fbe1 e502 	umlal	lr, r5, r1, r2
  408a16:	f006 4200 	and.w	r2, r6, #2147483648	; 0x80000000
  408a1a:	fbe0 e503 	umlal	lr, r5, r0, r3
  408a1e:	f04f 0600 	mov.w	r6, #0
  408a22:	fbe1 5603 	umlal	r5, r6, r1, r3
  408a26:	f09c 0f00 	teq	ip, #0
  408a2a:	bf18      	it	ne
  408a2c:	f04e 0e01 	orrne.w	lr, lr, #1
  408a30:	f1a4 04ff 	sub.w	r4, r4, #255	; 0xff
  408a34:	f5b6 7f00 	cmp.w	r6, #512	; 0x200
  408a38:	f564 7440 	sbc.w	r4, r4, #768	; 0x300
  408a3c:	d204      	bcs.n	408a48 <__aeabi_dmul+0x80>
  408a3e:	ea5f 0e4e 	movs.w	lr, lr, lsl #1
  408a42:	416d      	adcs	r5, r5
  408a44:	eb46 0606 	adc.w	r6, r6, r6
  408a48:	ea42 21c6 	orr.w	r1, r2, r6, lsl #11
  408a4c:	ea41 5155 	orr.w	r1, r1, r5, lsr #21
  408a50:	ea4f 20c5 	mov.w	r0, r5, lsl #11
  408a54:	ea40 505e 	orr.w	r0, r0, lr, lsr #21
  408a58:	ea4f 2ece 	mov.w	lr, lr, lsl #11
  408a5c:	f1b4 0cfd 	subs.w	ip, r4, #253	; 0xfd
  408a60:	bf88      	it	hi
  408a62:	f5bc 6fe0 	cmphi.w	ip, #1792	; 0x700
  408a66:	d81e      	bhi.n	408aa6 <__aeabi_dmul+0xde>
  408a68:	f1be 4f00 	cmp.w	lr, #2147483648	; 0x80000000
  408a6c:	bf08      	it	eq
  408a6e:	ea5f 0e50 	movseq.w	lr, r0, lsr #1
  408a72:	f150 0000 	adcs.w	r0, r0, #0
  408a76:	eb41 5104 	adc.w	r1, r1, r4, lsl #20
  408a7a:	bd70      	pop	{r4, r5, r6, pc}
  408a7c:	f006 4600 	and.w	r6, r6, #2147483648	; 0x80000000
  408a80:	ea46 0101 	orr.w	r1, r6, r1
  408a84:	ea40 0002 	orr.w	r0, r0, r2
  408a88:	ea81 0103 	eor.w	r1, r1, r3
  408a8c:	ebb4 045c 	subs.w	r4, r4, ip, lsr #1
  408a90:	bfc2      	ittt	gt
  408a92:	ebd4 050c 	rsbsgt	r5, r4, ip
  408a96:	ea41 5104 	orrgt.w	r1, r1, r4, lsl #20
  408a9a:	bd70      	popgt	{r4, r5, r6, pc}
  408a9c:	f441 1180 	orr.w	r1, r1, #1048576	; 0x100000
  408aa0:	f04f 0e00 	mov.w	lr, #0
  408aa4:	3c01      	subs	r4, #1
  408aa6:	f300 80ab 	bgt.w	408c00 <__aeabi_dmul+0x238>
  408aaa:	f114 0f36 	cmn.w	r4, #54	; 0x36
  408aae:	bfde      	ittt	le
  408ab0:	2000      	movle	r0, #0
  408ab2:	f001 4100 	andle.w	r1, r1, #2147483648	; 0x80000000
  408ab6:	bd70      	pople	{r4, r5, r6, pc}
  408ab8:	f1c4 0400 	rsb	r4, r4, #0
  408abc:	3c20      	subs	r4, #32
  408abe:	da35      	bge.n	408b2c <__aeabi_dmul+0x164>
  408ac0:	340c      	adds	r4, #12
  408ac2:	dc1b      	bgt.n	408afc <__aeabi_dmul+0x134>
  408ac4:	f104 0414 	add.w	r4, r4, #20
  408ac8:	f1c4 0520 	rsb	r5, r4, #32
  408acc:	fa00 f305 	lsl.w	r3, r0, r5
  408ad0:	fa20 f004 	lsr.w	r0, r0, r4
  408ad4:	fa01 f205 	lsl.w	r2, r1, r5
  408ad8:	ea40 0002 	orr.w	r0, r0, r2
  408adc:	f001 4200 	and.w	r2, r1, #2147483648	; 0x80000000
  408ae0:	f021 4100 	bic.w	r1, r1, #2147483648	; 0x80000000
  408ae4:	eb10 70d3 	adds.w	r0, r0, r3, lsr #31
  408ae8:	fa21 f604 	lsr.w	r6, r1, r4
  408aec:	eb42 0106 	adc.w	r1, r2, r6
  408af0:	ea5e 0e43 	orrs.w	lr, lr, r3, lsl #1
  408af4:	bf08      	it	eq
  408af6:	ea20 70d3 	biceq.w	r0, r0, r3, lsr #31
  408afa:	bd70      	pop	{r4, r5, r6, pc}
  408afc:	f1c4 040c 	rsb	r4, r4, #12
  408b00:	f1c4 0520 	rsb	r5, r4, #32
  408b04:	fa00 f304 	lsl.w	r3, r0, r4
  408b08:	fa20 f005 	lsr.w	r0, r0, r5
  408b0c:	fa01 f204 	lsl.w	r2, r1, r4
  408b10:	ea40 0002 	orr.w	r0, r0, r2
  408b14:	f001 4100 	and.w	r1, r1, #2147483648	; 0x80000000
  408b18:	eb10 70d3 	adds.w	r0, r0, r3, lsr #31
  408b1c:	f141 0100 	adc.w	r1, r1, #0
  408b20:	ea5e 0e43 	orrs.w	lr, lr, r3, lsl #1
  408b24:	bf08      	it	eq
  408b26:	ea20 70d3 	biceq.w	r0, r0, r3, lsr #31
  408b2a:	bd70      	pop	{r4, r5, r6, pc}
  408b2c:	f1c4 0520 	rsb	r5, r4, #32
  408b30:	fa00 f205 	lsl.w	r2, r0, r5
  408b34:	ea4e 0e02 	orr.w	lr, lr, r2
  408b38:	fa20 f304 	lsr.w	r3, r0, r4
  408b3c:	fa01 f205 	lsl.w	r2, r1, r5
  408b40:	ea43 0302 	orr.w	r3, r3, r2
  408b44:	fa21 f004 	lsr.w	r0, r1, r4
  408b48:	f001 4100 	and.w	r1, r1, #2147483648	; 0x80000000
  408b4c:	fa21 f204 	lsr.w	r2, r1, r4
  408b50:	ea20 0002 	bic.w	r0, r0, r2
  408b54:	eb00 70d3 	add.w	r0, r0, r3, lsr #31
  408b58:	ea5e 0e43 	orrs.w	lr, lr, r3, lsl #1
  408b5c:	bf08      	it	eq
  408b5e:	ea20 70d3 	biceq.w	r0, r0, r3, lsr #31
  408b62:	bd70      	pop	{r4, r5, r6, pc}
  408b64:	f094 0f00 	teq	r4, #0
  408b68:	d10f      	bne.n	408b8a <__aeabi_dmul+0x1c2>
  408b6a:	f001 4600 	and.w	r6, r1, #2147483648	; 0x80000000
  408b6e:	0040      	lsls	r0, r0, #1
  408b70:	eb41 0101 	adc.w	r1, r1, r1
  408b74:	f411 1f80 	tst.w	r1, #1048576	; 0x100000
  408b78:	bf08      	it	eq
  408b7a:	3c01      	subeq	r4, #1
  408b7c:	d0f7      	beq.n	408b6e <__aeabi_dmul+0x1a6>
  408b7e:	ea41 0106 	orr.w	r1, r1, r6
  408b82:	f095 0f00 	teq	r5, #0
  408b86:	bf18      	it	ne
  408b88:	4770      	bxne	lr
  408b8a:	f003 4600 	and.w	r6, r3, #2147483648	; 0x80000000
  408b8e:	0052      	lsls	r2, r2, #1
  408b90:	eb43 0303 	adc.w	r3, r3, r3
  408b94:	f413 1f80 	tst.w	r3, #1048576	; 0x100000
  408b98:	bf08      	it	eq
  408b9a:	3d01      	subeq	r5, #1
  408b9c:	d0f7      	beq.n	408b8e <__aeabi_dmul+0x1c6>
  408b9e:	ea43 0306 	orr.w	r3, r3, r6
  408ba2:	4770      	bx	lr
  408ba4:	ea94 0f0c 	teq	r4, ip
  408ba8:	ea0c 5513 	and.w	r5, ip, r3, lsr #20
  408bac:	bf18      	it	ne
  408bae:	ea95 0f0c 	teqne	r5, ip
  408bb2:	d00c      	beq.n	408bce <__aeabi_dmul+0x206>
  408bb4:	ea50 0641 	orrs.w	r6, r0, r1, lsl #1
  408bb8:	bf18      	it	ne
  408bba:	ea52 0643 	orrsne.w	r6, r2, r3, lsl #1
  408bbe:	d1d1      	bne.n	408b64 <__aeabi_dmul+0x19c>
  408bc0:	ea81 0103 	eor.w	r1, r1, r3
  408bc4:	f001 4100 	and.w	r1, r1, #2147483648	; 0x80000000
  408bc8:	f04f 0000 	mov.w	r0, #0
  408bcc:	bd70      	pop	{r4, r5, r6, pc}
  408bce:	ea50 0641 	orrs.w	r6, r0, r1, lsl #1
  408bd2:	bf06      	itte	eq
  408bd4:	4610      	moveq	r0, r2
  408bd6:	4619      	moveq	r1, r3
  408bd8:	ea52 0643 	orrsne.w	r6, r2, r3, lsl #1
  408bdc:	d019      	beq.n	408c12 <__aeabi_dmul+0x24a>
  408bde:	ea94 0f0c 	teq	r4, ip
  408be2:	d102      	bne.n	408bea <__aeabi_dmul+0x222>
  408be4:	ea50 3601 	orrs.w	r6, r0, r1, lsl #12
  408be8:	d113      	bne.n	408c12 <__aeabi_dmul+0x24a>
  408bea:	ea95 0f0c 	teq	r5, ip
  408bee:	d105      	bne.n	408bfc <__aeabi_dmul+0x234>
  408bf0:	ea52 3603 	orrs.w	r6, r2, r3, lsl #12
  408bf4:	bf1c      	itt	ne
  408bf6:	4610      	movne	r0, r2
  408bf8:	4619      	movne	r1, r3
  408bfa:	d10a      	bne.n	408c12 <__aeabi_dmul+0x24a>
  408bfc:	ea81 0103 	eor.w	r1, r1, r3
  408c00:	f001 4100 	and.w	r1, r1, #2147483648	; 0x80000000
  408c04:	f041 41fe 	orr.w	r1, r1, #2130706432	; 0x7f000000
  408c08:	f441 0170 	orr.w	r1, r1, #15728640	; 0xf00000
  408c0c:	f04f 0000 	mov.w	r0, #0
  408c10:	bd70      	pop	{r4, r5, r6, pc}
  408c12:	f041 41fe 	orr.w	r1, r1, #2130706432	; 0x7f000000
  408c16:	f441 0178 	orr.w	r1, r1, #16252928	; 0xf80000
  408c1a:	bd70      	pop	{r4, r5, r6, pc}

00408c1c <__aeabi_ddiv>:
  408c1c:	b570      	push	{r4, r5, r6, lr}
  408c1e:	f04f 0cff 	mov.w	ip, #255	; 0xff
  408c22:	f44c 6ce0 	orr.w	ip, ip, #1792	; 0x700
  408c26:	ea1c 5411 	ands.w	r4, ip, r1, lsr #20
  408c2a:	bf1d      	ittte	ne
  408c2c:	ea1c 5513 	andsne.w	r5, ip, r3, lsr #20
  408c30:	ea94 0f0c 	teqne	r4, ip
  408c34:	ea95 0f0c 	teqne	r5, ip
  408c38:	f000 f8a7 	bleq	408d8a <__aeabi_ddiv+0x16e>
  408c3c:	eba4 0405 	sub.w	r4, r4, r5
  408c40:	ea81 0e03 	eor.w	lr, r1, r3
  408c44:	ea52 3503 	orrs.w	r5, r2, r3, lsl #12
  408c48:	ea4f 3101 	mov.w	r1, r1, lsl #12
  408c4c:	f000 8088 	beq.w	408d60 <__aeabi_ddiv+0x144>
  408c50:	ea4f 3303 	mov.w	r3, r3, lsl #12
  408c54:	f04f 5580 	mov.w	r5, #268435456	; 0x10000000
  408c58:	ea45 1313 	orr.w	r3, r5, r3, lsr #4
  408c5c:	ea43 6312 	orr.w	r3, r3, r2, lsr #24
  408c60:	ea4f 2202 	mov.w	r2, r2, lsl #8
  408c64:	ea45 1511 	orr.w	r5, r5, r1, lsr #4
  408c68:	ea45 6510 	orr.w	r5, r5, r0, lsr #24
  408c6c:	ea4f 2600 	mov.w	r6, r0, lsl #8
  408c70:	f00e 4100 	and.w	r1, lr, #2147483648	; 0x80000000
  408c74:	429d      	cmp	r5, r3
  408c76:	bf08      	it	eq
  408c78:	4296      	cmpeq	r6, r2
  408c7a:	f144 04fd 	adc.w	r4, r4, #253	; 0xfd
  408c7e:	f504 7440 	add.w	r4, r4, #768	; 0x300
  408c82:	d202      	bcs.n	408c8a <__aeabi_ddiv+0x6e>
  408c84:	085b      	lsrs	r3, r3, #1
  408c86:	ea4f 0232 	mov.w	r2, r2, rrx
  408c8a:	1ab6      	subs	r6, r6, r2
  408c8c:	eb65 0503 	sbc.w	r5, r5, r3
  408c90:	085b      	lsrs	r3, r3, #1
  408c92:	ea4f 0232 	mov.w	r2, r2, rrx
  408c96:	f44f 1080 	mov.w	r0, #1048576	; 0x100000
  408c9a:	f44f 2c00 	mov.w	ip, #524288	; 0x80000
  408c9e:	ebb6 0e02 	subs.w	lr, r6, r2
  408ca2:	eb75 0e03 	sbcs.w	lr, r5, r3
  408ca6:	bf22      	ittt	cs
  408ca8:	1ab6      	subcs	r6, r6, r2
  408caa:	4675      	movcs	r5, lr
  408cac:	ea40 000c 	orrcs.w	r0, r0, ip
  408cb0:	085b      	lsrs	r3, r3, #1
  408cb2:	ea4f 0232 	mov.w	r2, r2, rrx
  408cb6:	ebb6 0e02 	subs.w	lr, r6, r2
  408cba:	eb75 0e03 	sbcs.w	lr, r5, r3
  408cbe:	bf22      	ittt	cs
  408cc0:	1ab6      	subcs	r6, r6, r2
  408cc2:	4675      	movcs	r5, lr
  408cc4:	ea40 005c 	orrcs.w	r0, r0, ip, lsr #1
  408cc8:	085b      	lsrs	r3, r3, #1
  408cca:	ea4f 0232 	mov.w	r2, r2, rrx
  408cce:	ebb6 0e02 	subs.w	lr, r6, r2
  408cd2:	eb75 0e03 	sbcs.w	lr, r5, r3
  408cd6:	bf22      	ittt	cs
  408cd8:	1ab6      	subcs	r6, r6, r2
  408cda:	4675      	movcs	r5, lr
  408cdc:	ea40 009c 	orrcs.w	r0, r0, ip, lsr #2
  408ce0:	085b      	lsrs	r3, r3, #1
  408ce2:	ea4f 0232 	mov.w	r2, r2, rrx
  408ce6:	ebb6 0e02 	subs.w	lr, r6, r2
  408cea:	eb75 0e03 	sbcs.w	lr, r5, r3
  408cee:	bf22      	ittt	cs
  408cf0:	1ab6      	subcs	r6, r6, r2
  408cf2:	4675      	movcs	r5, lr
  408cf4:	ea40 00dc 	orrcs.w	r0, r0, ip, lsr #3
  408cf8:	ea55 0e06 	orrs.w	lr, r5, r6
  408cfc:	d018      	beq.n	408d30 <__aeabi_ddiv+0x114>
  408cfe:	ea4f 1505 	mov.w	r5, r5, lsl #4
  408d02:	ea45 7516 	orr.w	r5, r5, r6, lsr #28
  408d06:	ea4f 1606 	mov.w	r6, r6, lsl #4
  408d0a:	ea4f 03c3 	mov.w	r3, r3, lsl #3
  408d0e:	ea43 7352 	orr.w	r3, r3, r2, lsr #29
  408d12:	ea4f 02c2 	mov.w	r2, r2, lsl #3
  408d16:	ea5f 1c1c 	movs.w	ip, ip, lsr #4
  408d1a:	d1c0      	bne.n	408c9e <__aeabi_ddiv+0x82>
  408d1c:	f411 1f80 	tst.w	r1, #1048576	; 0x100000
  408d20:	d10b      	bne.n	408d3a <__aeabi_ddiv+0x11e>
  408d22:	ea41 0100 	orr.w	r1, r1, r0
  408d26:	f04f 0000 	mov.w	r0, #0
  408d2a:	f04f 4c00 	mov.w	ip, #2147483648	; 0x80000000
  408d2e:	e7b6      	b.n	408c9e <__aeabi_ddiv+0x82>
  408d30:	f411 1f80 	tst.w	r1, #1048576	; 0x100000
  408d34:	bf04      	itt	eq
  408d36:	4301      	orreq	r1, r0
  408d38:	2000      	moveq	r0, #0
  408d3a:	f1b4 0cfd 	subs.w	ip, r4, #253	; 0xfd
  408d3e:	bf88      	it	hi
  408d40:	f5bc 6fe0 	cmphi.w	ip, #1792	; 0x700
  408d44:	f63f aeaf 	bhi.w	408aa6 <__aeabi_dmul+0xde>
  408d48:	ebb5 0c03 	subs.w	ip, r5, r3
  408d4c:	bf04      	itt	eq
  408d4e:	ebb6 0c02 	subseq.w	ip, r6, r2
  408d52:	ea5f 0c50 	movseq.w	ip, r0, lsr #1
  408d56:	f150 0000 	adcs.w	r0, r0, #0
  408d5a:	eb41 5104 	adc.w	r1, r1, r4, lsl #20
  408d5e:	bd70      	pop	{r4, r5, r6, pc}
  408d60:	f00e 4e00 	and.w	lr, lr, #2147483648	; 0x80000000
  408d64:	ea4e 3111 	orr.w	r1, lr, r1, lsr #12
  408d68:	eb14 045c 	adds.w	r4, r4, ip, lsr #1
  408d6c:	bfc2      	ittt	gt
  408d6e:	ebd4 050c 	rsbsgt	r5, r4, ip
  408d72:	ea41 5104 	orrgt.w	r1, r1, r4, lsl #20
  408d76:	bd70      	popgt	{r4, r5, r6, pc}
  408d78:	f441 1180 	orr.w	r1, r1, #1048576	; 0x100000
  408d7c:	f04f 0e00 	mov.w	lr, #0
  408d80:	3c01      	subs	r4, #1
  408d82:	e690      	b.n	408aa6 <__aeabi_dmul+0xde>
  408d84:	ea45 0e06 	orr.w	lr, r5, r6
  408d88:	e68d      	b.n	408aa6 <__aeabi_dmul+0xde>
  408d8a:	ea0c 5513 	and.w	r5, ip, r3, lsr #20
  408d8e:	ea94 0f0c 	teq	r4, ip
  408d92:	bf08      	it	eq
  408d94:	ea95 0f0c 	teqeq	r5, ip
  408d98:	f43f af3b 	beq.w	408c12 <__aeabi_dmul+0x24a>
  408d9c:	ea94 0f0c 	teq	r4, ip
  408da0:	d10a      	bne.n	408db8 <__aeabi_ddiv+0x19c>
  408da2:	ea50 3401 	orrs.w	r4, r0, r1, lsl #12
  408da6:	f47f af34 	bne.w	408c12 <__aeabi_dmul+0x24a>
  408daa:	ea95 0f0c 	teq	r5, ip
  408dae:	f47f af25 	bne.w	408bfc <__aeabi_dmul+0x234>
  408db2:	4610      	mov	r0, r2
  408db4:	4619      	mov	r1, r3
  408db6:	e72c      	b.n	408c12 <__aeabi_dmul+0x24a>
  408db8:	ea95 0f0c 	teq	r5, ip
  408dbc:	d106      	bne.n	408dcc <__aeabi_ddiv+0x1b0>
  408dbe:	ea52 3503 	orrs.w	r5, r2, r3, lsl #12
  408dc2:	f43f aefd 	beq.w	408bc0 <__aeabi_dmul+0x1f8>
  408dc6:	4610      	mov	r0, r2
  408dc8:	4619      	mov	r1, r3
  408dca:	e722      	b.n	408c12 <__aeabi_dmul+0x24a>
  408dcc:	ea50 0641 	orrs.w	r6, r0, r1, lsl #1
  408dd0:	bf18      	it	ne
  408dd2:	ea52 0643 	orrsne.w	r6, r2, r3, lsl #1
  408dd6:	f47f aec5 	bne.w	408b64 <__aeabi_dmul+0x19c>
  408dda:	ea50 0441 	orrs.w	r4, r0, r1, lsl #1
  408dde:	f47f af0d 	bne.w	408bfc <__aeabi_dmul+0x234>
  408de2:	ea52 0543 	orrs.w	r5, r2, r3, lsl #1
  408de6:	f47f aeeb 	bne.w	408bc0 <__aeabi_dmul+0x1f8>
  408dea:	e712      	b.n	408c12 <__aeabi_dmul+0x24a>

00408dec <__gedf2>:
  408dec:	f04f 3cff 	mov.w	ip, #4294967295
  408df0:	e006      	b.n	408e00 <__cmpdf2+0x4>
  408df2:	bf00      	nop

00408df4 <__ledf2>:
  408df4:	f04f 0c01 	mov.w	ip, #1
  408df8:	e002      	b.n	408e00 <__cmpdf2+0x4>
  408dfa:	bf00      	nop

00408dfc <__cmpdf2>:
  408dfc:	f04f 0c01 	mov.w	ip, #1
  408e00:	f84d cd04 	str.w	ip, [sp, #-4]!
  408e04:	ea4f 0c41 	mov.w	ip, r1, lsl #1
  408e08:	ea7f 5c6c 	mvns.w	ip, ip, asr #21
  408e0c:	ea4f 0c43 	mov.w	ip, r3, lsl #1
  408e10:	bf18      	it	ne
  408e12:	ea7f 5c6c 	mvnsne.w	ip, ip, asr #21
  408e16:	d01b      	beq.n	408e50 <__cmpdf2+0x54>
  408e18:	b001      	add	sp, #4
  408e1a:	ea50 0c41 	orrs.w	ip, r0, r1, lsl #1
  408e1e:	bf0c      	ite	eq
  408e20:	ea52 0c43 	orrseq.w	ip, r2, r3, lsl #1
  408e24:	ea91 0f03 	teqne	r1, r3
  408e28:	bf02      	ittt	eq
  408e2a:	ea90 0f02 	teqeq	r0, r2
  408e2e:	2000      	moveq	r0, #0
  408e30:	4770      	bxeq	lr
  408e32:	f110 0f00 	cmn.w	r0, #0
  408e36:	ea91 0f03 	teq	r1, r3
  408e3a:	bf58      	it	pl
  408e3c:	4299      	cmppl	r1, r3
  408e3e:	bf08      	it	eq
  408e40:	4290      	cmpeq	r0, r2
  408e42:	bf2c      	ite	cs
  408e44:	17d8      	asrcs	r0, r3, #31
  408e46:	ea6f 70e3 	mvncc.w	r0, r3, asr #31
  408e4a:	f040 0001 	orr.w	r0, r0, #1
  408e4e:	4770      	bx	lr
  408e50:	ea4f 0c41 	mov.w	ip, r1, lsl #1
  408e54:	ea7f 5c6c 	mvns.w	ip, ip, asr #21
  408e58:	d102      	bne.n	408e60 <__cmpdf2+0x64>
  408e5a:	ea50 3c01 	orrs.w	ip, r0, r1, lsl #12
  408e5e:	d107      	bne.n	408e70 <__cmpdf2+0x74>
  408e60:	ea4f 0c43 	mov.w	ip, r3, lsl #1
  408e64:	ea7f 5c6c 	mvns.w	ip, ip, asr #21
  408e68:	d1d6      	bne.n	408e18 <__cmpdf2+0x1c>
  408e6a:	ea52 3c03 	orrs.w	ip, r2, r3, lsl #12
  408e6e:	d0d3      	beq.n	408e18 <__cmpdf2+0x1c>
  408e70:	f85d 0b04 	ldr.w	r0, [sp], #4
  408e74:	4770      	bx	lr
  408e76:	bf00      	nop

00408e78 <__aeabi_cdrcmple>:
  408e78:	4684      	mov	ip, r0
  408e7a:	4610      	mov	r0, r2
  408e7c:	4662      	mov	r2, ip
  408e7e:	468c      	mov	ip, r1
  408e80:	4619      	mov	r1, r3
  408e82:	4663      	mov	r3, ip
  408e84:	e000      	b.n	408e88 <__aeabi_cdcmpeq>
  408e86:	bf00      	nop

00408e88 <__aeabi_cdcmpeq>:
  408e88:	b501      	push	{r0, lr}
  408e8a:	f7ff ffb7 	bl	408dfc <__cmpdf2>
  408e8e:	2800      	cmp	r0, #0
  408e90:	bf48      	it	mi
  408e92:	f110 0f00 	cmnmi.w	r0, #0
  408e96:	bd01      	pop	{r0, pc}

00408e98 <__aeabi_dcmpeq>:
  408e98:	f84d ed08 	str.w	lr, [sp, #-8]!
  408e9c:	f7ff fff4 	bl	408e88 <__aeabi_cdcmpeq>
  408ea0:	bf0c      	ite	eq
  408ea2:	2001      	moveq	r0, #1
  408ea4:	2000      	movne	r0, #0
  408ea6:	f85d fb08 	ldr.w	pc, [sp], #8
  408eaa:	bf00      	nop

00408eac <__aeabi_dcmplt>:
  408eac:	f84d ed08 	str.w	lr, [sp, #-8]!
  408eb0:	f7ff ffea 	bl	408e88 <__aeabi_cdcmpeq>
  408eb4:	bf34      	ite	cc
  408eb6:	2001      	movcc	r0, #1
  408eb8:	2000      	movcs	r0, #0
  408eba:	f85d fb08 	ldr.w	pc, [sp], #8
  408ebe:	bf00      	nop

00408ec0 <__aeabi_dcmple>:
  408ec0:	f84d ed08 	str.w	lr, [sp, #-8]!
  408ec4:	f7ff ffe0 	bl	408e88 <__aeabi_cdcmpeq>
  408ec8:	bf94      	ite	ls
  408eca:	2001      	movls	r0, #1
  408ecc:	2000      	movhi	r0, #0
  408ece:	f85d fb08 	ldr.w	pc, [sp], #8
  408ed2:	bf00      	nop

00408ed4 <__aeabi_dcmpge>:
  408ed4:	f84d ed08 	str.w	lr, [sp, #-8]!
  408ed8:	f7ff ffce 	bl	408e78 <__aeabi_cdrcmple>
  408edc:	bf94      	ite	ls
  408ede:	2001      	movls	r0, #1
  408ee0:	2000      	movhi	r0, #0
  408ee2:	f85d fb08 	ldr.w	pc, [sp], #8
  408ee6:	bf00      	nop

00408ee8 <__aeabi_dcmpgt>:
  408ee8:	f84d ed08 	str.w	lr, [sp, #-8]!
  408eec:	f7ff ffc4 	bl	408e78 <__aeabi_cdrcmple>
  408ef0:	bf34      	ite	cc
  408ef2:	2001      	movcc	r0, #1
  408ef4:	2000      	movcs	r0, #0
  408ef6:	f85d fb08 	ldr.w	pc, [sp], #8
  408efa:	bf00      	nop

00408efc <__aeabi_dcmpun>:
  408efc:	ea4f 0c41 	mov.w	ip, r1, lsl #1
  408f00:	ea7f 5c6c 	mvns.w	ip, ip, asr #21
  408f04:	d102      	bne.n	408f0c <__aeabi_dcmpun+0x10>
  408f06:	ea50 3c01 	orrs.w	ip, r0, r1, lsl #12
  408f0a:	d10a      	bne.n	408f22 <__aeabi_dcmpun+0x26>
  408f0c:	ea4f 0c43 	mov.w	ip, r3, lsl #1
  408f10:	ea7f 5c6c 	mvns.w	ip, ip, asr #21
  408f14:	d102      	bne.n	408f1c <__aeabi_dcmpun+0x20>
  408f16:	ea52 3c03 	orrs.w	ip, r2, r3, lsl #12
  408f1a:	d102      	bne.n	408f22 <__aeabi_dcmpun+0x26>
  408f1c:	f04f 0000 	mov.w	r0, #0
  408f20:	4770      	bx	lr
  408f22:	f04f 0001 	mov.w	r0, #1
  408f26:	4770      	bx	lr

00408f28 <__aeabi_d2iz>:
  408f28:	ea4f 0241 	mov.w	r2, r1, lsl #1
  408f2c:	f512 1200 	adds.w	r2, r2, #2097152	; 0x200000
  408f30:	d215      	bcs.n	408f5e <__aeabi_d2iz+0x36>
  408f32:	d511      	bpl.n	408f58 <__aeabi_d2iz+0x30>
  408f34:	f46f 7378 	mvn.w	r3, #992	; 0x3e0
  408f38:	ebb3 5262 	subs.w	r2, r3, r2, asr #21
  408f3c:	d912      	bls.n	408f64 <__aeabi_d2iz+0x3c>
  408f3e:	ea4f 23c1 	mov.w	r3, r1, lsl #11
  408f42:	f043 4300 	orr.w	r3, r3, #2147483648	; 0x80000000
  408f46:	ea43 5350 	orr.w	r3, r3, r0, lsr #21
  408f4a:	f011 4f00 	tst.w	r1, #2147483648	; 0x80000000
  408f4e:	fa23 f002 	lsr.w	r0, r3, r2
  408f52:	bf18      	it	ne
  408f54:	4240      	negne	r0, r0
  408f56:	4770      	bx	lr
  408f58:	f04f 0000 	mov.w	r0, #0
  408f5c:	4770      	bx	lr
  408f5e:	ea50 3001 	orrs.w	r0, r0, r1, lsl #12
  408f62:	d105      	bne.n	408f70 <__aeabi_d2iz+0x48>
  408f64:	f011 4000 	ands.w	r0, r1, #2147483648	; 0x80000000
  408f68:	bf08      	it	eq
  408f6a:	f06f 4000 	mvneq.w	r0, #2147483648	; 0x80000000
  408f6e:	4770      	bx	lr
  408f70:	f04f 0000 	mov.w	r0, #0
  408f74:	4770      	bx	lr
  408f76:	bf00      	nop

00408f78 <__aeabi_uldivmod>:
  408f78:	b953      	cbnz	r3, 408f90 <__aeabi_uldivmod+0x18>
  408f7a:	b94a      	cbnz	r2, 408f90 <__aeabi_uldivmod+0x18>
  408f7c:	2900      	cmp	r1, #0
  408f7e:	bf08      	it	eq
  408f80:	2800      	cmpeq	r0, #0
  408f82:	bf1c      	itt	ne
  408f84:	f04f 31ff 	movne.w	r1, #4294967295
  408f88:	f04f 30ff 	movne.w	r0, #4294967295
  408f8c:	f000 b97a 	b.w	409284 <__aeabi_idiv0>
  408f90:	f1ad 0c08 	sub.w	ip, sp, #8
  408f94:	e96d ce04 	strd	ip, lr, [sp, #-16]!
  408f98:	f000 f806 	bl	408fa8 <__udivmoddi4>
  408f9c:	f8dd e004 	ldr.w	lr, [sp, #4]
  408fa0:	e9dd 2302 	ldrd	r2, r3, [sp, #8]
  408fa4:	b004      	add	sp, #16
  408fa6:	4770      	bx	lr

00408fa8 <__udivmoddi4>:
  408fa8:	e92d 47f0 	stmdb	sp!, {r4, r5, r6, r7, r8, r9, sl, lr}
  408fac:	468c      	mov	ip, r1
  408fae:	460d      	mov	r5, r1
  408fb0:	4604      	mov	r4, r0
  408fb2:	9e08      	ldr	r6, [sp, #32]
  408fb4:	2b00      	cmp	r3, #0
  408fb6:	d151      	bne.n	40905c <__udivmoddi4+0xb4>
  408fb8:	428a      	cmp	r2, r1
  408fba:	4617      	mov	r7, r2
  408fbc:	d96d      	bls.n	40909a <__udivmoddi4+0xf2>
  408fbe:	fab2 fe82 	clz	lr, r2
  408fc2:	f1be 0f00 	cmp.w	lr, #0
  408fc6:	d00b      	beq.n	408fe0 <__udivmoddi4+0x38>
  408fc8:	f1ce 0c20 	rsb	ip, lr, #32
  408fcc:	fa01 f50e 	lsl.w	r5, r1, lr
  408fd0:	fa20 fc0c 	lsr.w	ip, r0, ip
  408fd4:	fa02 f70e 	lsl.w	r7, r2, lr
  408fd8:	ea4c 0c05 	orr.w	ip, ip, r5
  408fdc:	fa00 f40e 	lsl.w	r4, r0, lr
  408fe0:	ea4f 4a17 	mov.w	sl, r7, lsr #16
  408fe4:	0c25      	lsrs	r5, r4, #16
  408fe6:	fbbc f8fa 	udiv	r8, ip, sl
  408fea:	fa1f f987 	uxth.w	r9, r7
  408fee:	fb0a cc18 	mls	ip, sl, r8, ip
  408ff2:	ea45 450c 	orr.w	r5, r5, ip, lsl #16
  408ff6:	fb08 f309 	mul.w	r3, r8, r9
  408ffa:	42ab      	cmp	r3, r5
  408ffc:	d90a      	bls.n	409014 <__udivmoddi4+0x6c>
  408ffe:	19ed      	adds	r5, r5, r7
  409000:	f108 32ff 	add.w	r2, r8, #4294967295
  409004:	f080 8123 	bcs.w	40924e <__udivmoddi4+0x2a6>
  409008:	42ab      	cmp	r3, r5
  40900a:	f240 8120 	bls.w	40924e <__udivmoddi4+0x2a6>
  40900e:	f1a8 0802 	sub.w	r8, r8, #2
  409012:	443d      	add	r5, r7
  409014:	1aed      	subs	r5, r5, r3
  409016:	b2a4      	uxth	r4, r4
  409018:	fbb5 f0fa 	udiv	r0, r5, sl
  40901c:	fb0a 5510 	mls	r5, sl, r0, r5
  409020:	ea44 4405 	orr.w	r4, r4, r5, lsl #16
  409024:	fb00 f909 	mul.w	r9, r0, r9
  409028:	45a1      	cmp	r9, r4
  40902a:	d909      	bls.n	409040 <__udivmoddi4+0x98>
  40902c:	19e4      	adds	r4, r4, r7
  40902e:	f100 33ff 	add.w	r3, r0, #4294967295
  409032:	f080 810a 	bcs.w	40924a <__udivmoddi4+0x2a2>
  409036:	45a1      	cmp	r9, r4
  409038:	f240 8107 	bls.w	40924a <__udivmoddi4+0x2a2>
  40903c:	3802      	subs	r0, #2
  40903e:	443c      	add	r4, r7
  409040:	eba4 0409 	sub.w	r4, r4, r9
  409044:	ea40 4008 	orr.w	r0, r0, r8, lsl #16
  409048:	2100      	movs	r1, #0
  40904a:	2e00      	cmp	r6, #0
  40904c:	d061      	beq.n	409112 <__udivmoddi4+0x16a>
  40904e:	fa24 f40e 	lsr.w	r4, r4, lr
  409052:	2300      	movs	r3, #0
  409054:	6034      	str	r4, [r6, #0]
  409056:	6073      	str	r3, [r6, #4]
  409058:	e8bd 87f0 	ldmia.w	sp!, {r4, r5, r6, r7, r8, r9, sl, pc}
  40905c:	428b      	cmp	r3, r1
  40905e:	d907      	bls.n	409070 <__udivmoddi4+0xc8>
  409060:	2e00      	cmp	r6, #0
  409062:	d054      	beq.n	40910e <__udivmoddi4+0x166>
  409064:	2100      	movs	r1, #0
  409066:	e886 0021 	stmia.w	r6, {r0, r5}
  40906a:	4608      	mov	r0, r1
  40906c:	e8bd 87f0 	ldmia.w	sp!, {r4, r5, r6, r7, r8, r9, sl, pc}
  409070:	fab3 f183 	clz	r1, r3
  409074:	2900      	cmp	r1, #0
  409076:	f040 808e 	bne.w	409196 <__udivmoddi4+0x1ee>
  40907a:	42ab      	cmp	r3, r5
  40907c:	d302      	bcc.n	409084 <__udivmoddi4+0xdc>
  40907e:	4282      	cmp	r2, r0
  409080:	f200 80fa 	bhi.w	409278 <__udivmoddi4+0x2d0>
  409084:	1a84      	subs	r4, r0, r2
  409086:	eb65 0503 	sbc.w	r5, r5, r3
  40908a:	2001      	movs	r0, #1
  40908c:	46ac      	mov	ip, r5
  40908e:	2e00      	cmp	r6, #0
  409090:	d03f      	beq.n	409112 <__udivmoddi4+0x16a>
  409092:	e886 1010 	stmia.w	r6, {r4, ip}
  409096:	e8bd 87f0 	ldmia.w	sp!, {r4, r5, r6, r7, r8, r9, sl, pc}
  40909a:	b912      	cbnz	r2, 4090a2 <__udivmoddi4+0xfa>
  40909c:	2701      	movs	r7, #1
  40909e:	fbb7 f7f2 	udiv	r7, r7, r2
  4090a2:	fab7 fe87 	clz	lr, r7
  4090a6:	f1be 0f00 	cmp.w	lr, #0
  4090aa:	d134      	bne.n	409116 <__udivmoddi4+0x16e>
  4090ac:	1beb      	subs	r3, r5, r7
  4090ae:	0c3a      	lsrs	r2, r7, #16
  4090b0:	fa1f fc87 	uxth.w	ip, r7
  4090b4:	2101      	movs	r1, #1
  4090b6:	fbb3 f8f2 	udiv	r8, r3, r2
  4090ba:	0c25      	lsrs	r5, r4, #16
  4090bc:	fb02 3318 	mls	r3, r2, r8, r3
  4090c0:	ea45 4503 	orr.w	r5, r5, r3, lsl #16
  4090c4:	fb0c f308 	mul.w	r3, ip, r8
  4090c8:	42ab      	cmp	r3, r5
  4090ca:	d907      	bls.n	4090dc <__udivmoddi4+0x134>
  4090cc:	19ed      	adds	r5, r5, r7
  4090ce:	f108 30ff 	add.w	r0, r8, #4294967295
  4090d2:	d202      	bcs.n	4090da <__udivmoddi4+0x132>
  4090d4:	42ab      	cmp	r3, r5
  4090d6:	f200 80d1 	bhi.w	40927c <__udivmoddi4+0x2d4>
  4090da:	4680      	mov	r8, r0
  4090dc:	1aed      	subs	r5, r5, r3
  4090de:	b2a3      	uxth	r3, r4
  4090e0:	fbb5 f0f2 	udiv	r0, r5, r2
  4090e4:	fb02 5510 	mls	r5, r2, r0, r5
  4090e8:	ea43 4405 	orr.w	r4, r3, r5, lsl #16
  4090ec:	fb0c fc00 	mul.w	ip, ip, r0
  4090f0:	45a4      	cmp	ip, r4
  4090f2:	d907      	bls.n	409104 <__udivmoddi4+0x15c>
  4090f4:	19e4      	adds	r4, r4, r7
  4090f6:	f100 33ff 	add.w	r3, r0, #4294967295
  4090fa:	d202      	bcs.n	409102 <__udivmoddi4+0x15a>
  4090fc:	45a4      	cmp	ip, r4
  4090fe:	f200 80b8 	bhi.w	409272 <__udivmoddi4+0x2ca>
  409102:	4618      	mov	r0, r3
  409104:	eba4 040c 	sub.w	r4, r4, ip
  409108:	ea40 4008 	orr.w	r0, r0, r8, lsl #16
  40910c:	e79d      	b.n	40904a <__udivmoddi4+0xa2>
  40910e:	4631      	mov	r1, r6
  409110:	4630      	mov	r0, r6
  409112:	e8bd 87f0 	ldmia.w	sp!, {r4, r5, r6, r7, r8, r9, sl, pc}
  409116:	f1ce 0420 	rsb	r4, lr, #32
  40911a:	fa05 f30e 	lsl.w	r3, r5, lr
  40911e:	fa07 f70e 	lsl.w	r7, r7, lr
  409122:	fa20 f804 	lsr.w	r8, r0, r4
  409126:	0c3a      	lsrs	r2, r7, #16
  409128:	fa25 f404 	lsr.w	r4, r5, r4
  40912c:	ea48 0803 	orr.w	r8, r8, r3
  409130:	fbb4 f1f2 	udiv	r1, r4, r2
  409134:	ea4f 4518 	mov.w	r5, r8, lsr #16
  409138:	fb02 4411 	mls	r4, r2, r1, r4
  40913c:	fa1f fc87 	uxth.w	ip, r7
  409140:	ea45 4504 	orr.w	r5, r5, r4, lsl #16
  409144:	fb01 f30c 	mul.w	r3, r1, ip
  409148:	42ab      	cmp	r3, r5
  40914a:	fa00 f40e 	lsl.w	r4, r0, lr
  40914e:	d909      	bls.n	409164 <__udivmoddi4+0x1bc>
  409150:	19ed      	adds	r5, r5, r7
  409152:	f101 30ff 	add.w	r0, r1, #4294967295
  409156:	f080 808a 	bcs.w	40926e <__udivmoddi4+0x2c6>
  40915a:	42ab      	cmp	r3, r5
  40915c:	f240 8087 	bls.w	40926e <__udivmoddi4+0x2c6>
  409160:	3902      	subs	r1, #2
  409162:	443d      	add	r5, r7
  409164:	1aeb      	subs	r3, r5, r3
  409166:	fa1f f588 	uxth.w	r5, r8
  40916a:	fbb3 f0f2 	udiv	r0, r3, r2
  40916e:	fb02 3310 	mls	r3, r2, r0, r3
  409172:	ea45 4503 	orr.w	r5, r5, r3, lsl #16
  409176:	fb00 f30c 	mul.w	r3, r0, ip
  40917a:	42ab      	cmp	r3, r5
  40917c:	d907      	bls.n	40918e <__udivmoddi4+0x1e6>
  40917e:	19ed      	adds	r5, r5, r7
  409180:	f100 38ff 	add.w	r8, r0, #4294967295
  409184:	d26f      	bcs.n	409266 <__udivmoddi4+0x2be>
  409186:	42ab      	cmp	r3, r5
  409188:	d96d      	bls.n	409266 <__udivmoddi4+0x2be>
  40918a:	3802      	subs	r0, #2
  40918c:	443d      	add	r5, r7
  40918e:	1aeb      	subs	r3, r5, r3
  409190:	ea40 4101 	orr.w	r1, r0, r1, lsl #16
  409194:	e78f      	b.n	4090b6 <__udivmoddi4+0x10e>
  409196:	f1c1 0720 	rsb	r7, r1, #32
  40919a:	fa22 f807 	lsr.w	r8, r2, r7
  40919e:	408b      	lsls	r3, r1
  4091a0:	fa05 f401 	lsl.w	r4, r5, r1
  4091a4:	ea48 0303 	orr.w	r3, r8, r3
  4091a8:	fa20 fe07 	lsr.w	lr, r0, r7
  4091ac:	ea4f 4c13 	mov.w	ip, r3, lsr #16
  4091b0:	40fd      	lsrs	r5, r7
  4091b2:	ea4e 0e04 	orr.w	lr, lr, r4
  4091b6:	fbb5 f9fc 	udiv	r9, r5, ip
  4091ba:	ea4f 441e 	mov.w	r4, lr, lsr #16
  4091be:	fb0c 5519 	mls	r5, ip, r9, r5
  4091c2:	fa1f f883 	uxth.w	r8, r3
  4091c6:	ea44 4505 	orr.w	r5, r4, r5, lsl #16
  4091ca:	fb09 f408 	mul.w	r4, r9, r8
  4091ce:	42ac      	cmp	r4, r5
  4091d0:	fa02 f201 	lsl.w	r2, r2, r1
  4091d4:	fa00 fa01 	lsl.w	sl, r0, r1
  4091d8:	d908      	bls.n	4091ec <__udivmoddi4+0x244>
  4091da:	18ed      	adds	r5, r5, r3
  4091dc:	f109 30ff 	add.w	r0, r9, #4294967295
  4091e0:	d243      	bcs.n	40926a <__udivmoddi4+0x2c2>
  4091e2:	42ac      	cmp	r4, r5
  4091e4:	d941      	bls.n	40926a <__udivmoddi4+0x2c2>
  4091e6:	f1a9 0902 	sub.w	r9, r9, #2
  4091ea:	441d      	add	r5, r3
  4091ec:	1b2d      	subs	r5, r5, r4
  4091ee:	fa1f fe8e 	uxth.w	lr, lr
  4091f2:	fbb5 f0fc 	udiv	r0, r5, ip
  4091f6:	fb0c 5510 	mls	r5, ip, r0, r5
  4091fa:	ea4e 4405 	orr.w	r4, lr, r5, lsl #16
  4091fe:	fb00 f808 	mul.w	r8, r0, r8
  409202:	45a0      	cmp	r8, r4
  409204:	d907      	bls.n	409216 <__udivmoddi4+0x26e>
  409206:	18e4      	adds	r4, r4, r3
  409208:	f100 35ff 	add.w	r5, r0, #4294967295
  40920c:	d229      	bcs.n	409262 <__udivmoddi4+0x2ba>
  40920e:	45a0      	cmp	r8, r4
  409210:	d927      	bls.n	409262 <__udivmoddi4+0x2ba>
  409212:	3802      	subs	r0, #2
  409214:	441c      	add	r4, r3
  409216:	ea40 4009 	orr.w	r0, r0, r9, lsl #16
  40921a:	eba4 0408 	sub.w	r4, r4, r8
  40921e:	fba0 8902 	umull	r8, r9, r0, r2
  409222:	454c      	cmp	r4, r9
  409224:	46c6      	mov	lr, r8
  409226:	464d      	mov	r5, r9
  409228:	d315      	bcc.n	409256 <__udivmoddi4+0x2ae>
  40922a:	d012      	beq.n	409252 <__udivmoddi4+0x2aa>
  40922c:	b156      	cbz	r6, 409244 <__udivmoddi4+0x29c>
  40922e:	ebba 030e 	subs.w	r3, sl, lr
  409232:	eb64 0405 	sbc.w	r4, r4, r5
  409236:	fa04 f707 	lsl.w	r7, r4, r7
  40923a:	40cb      	lsrs	r3, r1
  40923c:	431f      	orrs	r7, r3
  40923e:	40cc      	lsrs	r4, r1
  409240:	6037      	str	r7, [r6, #0]
  409242:	6074      	str	r4, [r6, #4]
  409244:	2100      	movs	r1, #0
  409246:	e8bd 87f0 	ldmia.w	sp!, {r4, r5, r6, r7, r8, r9, sl, pc}
  40924a:	4618      	mov	r0, r3
  40924c:	e6f8      	b.n	409040 <__udivmoddi4+0x98>
  40924e:	4690      	mov	r8, r2
  409250:	e6e0      	b.n	409014 <__udivmoddi4+0x6c>
  409252:	45c2      	cmp	sl, r8
  409254:	d2ea      	bcs.n	40922c <__udivmoddi4+0x284>
  409256:	ebb8 0e02 	subs.w	lr, r8, r2
  40925a:	eb69 0503 	sbc.w	r5, r9, r3
  40925e:	3801      	subs	r0, #1
  409260:	e7e4      	b.n	40922c <__udivmoddi4+0x284>
  409262:	4628      	mov	r0, r5
  409264:	e7d7      	b.n	409216 <__udivmoddi4+0x26e>
  409266:	4640      	mov	r0, r8
  409268:	e791      	b.n	40918e <__udivmoddi4+0x1e6>
  40926a:	4681      	mov	r9, r0
  40926c:	e7be      	b.n	4091ec <__udivmoddi4+0x244>
  40926e:	4601      	mov	r1, r0
  409270:	e778      	b.n	409164 <__udivmoddi4+0x1bc>
  409272:	3802      	subs	r0, #2
  409274:	443c      	add	r4, r7
  409276:	e745      	b.n	409104 <__udivmoddi4+0x15c>
  409278:	4608      	mov	r0, r1
  40927a:	e708      	b.n	40908e <__udivmoddi4+0xe6>
  40927c:	f1a8 0802 	sub.w	r8, r8, #2
  409280:	443d      	add	r5, r7
  409282:	e72b      	b.n	4090dc <__udivmoddi4+0x134>

00409284 <__aeabi_idiv0>:
  409284:	4770      	bx	lr
  409286:	bf00      	nop
  409288:	09632509 	.word	0x09632509
  40928c:	25097525 	.word	0x25097525
  409290:	75250975 	.word	0x75250975
  409294:	00000a0d 	.word	0x00000a0d
  409298:	454c4449 	.word	0x454c4449
  40929c:	00000000 	.word	0x00000000
  4092a0:	51726d54 	.word	0x51726d54
  4092a4:	00000000 	.word	0x00000000
  4092a8:	20726d54 	.word	0x20726d54
  4092ac:	00637653 	.word	0x00637653
  4092b0:	46202d2d 	.word	0x46202d2d
  4092b4:	72656572 	.word	0x72656572
  4092b8:	20736f74 	.word	0x20736f74
  4092bc:	6d617845 	.word	0x6d617845
  4092c0:	20656c70 	.word	0x20656c70
  4092c4:	0d0a2d2d 	.word	0x0d0a2d2d
  4092c8:	00000000 	.word	0x00000000
  4092cc:	454d4153 	.word	0x454d4153
  4092d0:	582d3037 	.word	0x582d3037
  4092d4:	00444c50 	.word	0x00444c50
  4092d8:	25202d2d 	.word	0x25202d2d
  4092dc:	000d0a73 	.word	0x000d0a73
  4092e0:	343a3132 	.word	0x343a3132
  4092e4:	35313a34 	.word	0x35313a34
  4092e8:	00000000 	.word	0x00000000
  4092ec:	20727041 	.word	0x20727041
  4092f0:	32203231 	.word	0x32203231
  4092f4:	00323230 	.word	0x00323230
  4092f8:	43202d2d 	.word	0x43202d2d
  4092fc:	69706d6f 	.word	0x69706d6f
  409300:	3a64656c 	.word	0x3a64656c
  409304:	20732520 	.word	0x20732520
  409308:	2d207325 	.word	0x2d207325
  40930c:	000d0a2d 	.word	0x000d0a2d
  409310:	696e6f4d 	.word	0x696e6f4d
  409314:	00726f74 	.word	0x00726f74
  409318:	6c696146 	.word	0x6c696146
  40931c:	74206465 	.word	0x74206465
  409320:	7263206f 	.word	0x7263206f
  409324:	65746165 	.word	0x65746165
  409328:	6e6f4d20 	.word	0x6e6f4d20
  40932c:	726f7469 	.word	0x726f7469
  409330:	73617420 	.word	0x73617420
  409334:	000a0d6b 	.word	0x000a0d6b
  409338:	0064654c 	.word	0x0064654c
  40933c:	6c696146 	.word	0x6c696146
  409340:	74206465 	.word	0x74206465
  409344:	7263206f 	.word	0x7263206f
  409348:	65746165 	.word	0x65746165
  40934c:	73657420 	.word	0x73657420
  409350:	656c2074 	.word	0x656c2074
  409354:	61742064 	.word	0x61742064
  409358:	0a0d6b73 	.word	0x0a0d6b73
  40935c:	00000000 	.word	0x00000000
  409360:	3164654c 	.word	0x3164654c
  409364:	00000000 	.word	0x00000000
  409368:	6c696146 	.word	0x6c696146
  40936c:	74206465 	.word	0x74206465
  409370:	7263206f 	.word	0x7263206f
  409374:	65746165 	.word	0x65746165
  409378:	73657420 	.word	0x73657420
  40937c:	656c2074 	.word	0x656c2074
  409380:	74203164 	.word	0x74203164
  409384:	0d6b7361 	.word	0x0d6b7361
  409388:	0000000a 	.word	0x0000000a
  40938c:	202d2d2d 	.word	0x202d2d2d
  409390:	6b736174 	.word	0x6b736174
  409394:	20232320 	.word	0x20232320
  409398:	000a7525 	.word	0x000a7525
  40939c:	63617473 	.word	0x63617473
  4093a0:	766f206b 	.word	0x766f206b
  4093a4:	6c667265 	.word	0x6c667265
  4093a8:	2520776f 	.word	0x2520776f
  4093ac:	73252078 	.word	0x73252078
  4093b0:	00000a0d 	.word	0x00000a0d

004093b4 <_global_impure_ptr>:
  4093b4:	20400010 00464e49 00666e69 004e414e     ..@ INF.inf.NAN.
  4093c4:	006e616e 33323130 37363534 42413938     nan.0123456789AB
  4093d4:	46454443 00000000 33323130 37363534     CDEF....01234567
  4093e4:	62613938 66656463 00000000 6c756e28     89abcdef....(nul
  4093f4:	0000296c 00000030                       l)..0...

004093fc <blanks.7223>:
  4093fc:	20202020 20202020 20202020 20202020                     

0040940c <zeroes.7224>:
  40940c:	30303030 30303030 30303030 30303030     0000000000000000

0040941c <blanks.7217>:
  40941c:	20202020 20202020 20202020 20202020                     

0040942c <zeroes.7218>:
  40942c:	30303030 30303030 30303030 30303030     0000000000000000
  40943c:	69666e49 7974696e 00000000 004e614e     Infinity....NaN.
  40944c:	00000043 49534f50 00000058 0000002e     C...POSIX.......
  40945c:	00000000                                ....

00409460 <__mprec_bigtens>:
  409460:	37e08000 4341c379 b5056e17 4693b8b5     ...7y.AC.n.....F
  409470:	e93ff9f5 4d384f03 f9301d32 5a827748     ..?..O8M2.0.Hw.Z
  409480:	7f73bf3c 75154fdd                       <.s..O.u

00409488 <__mprec_tens>:
  409488:	00000000 3ff00000 00000000 40240000     .......?......$@
  409498:	00000000 40590000 00000000 408f4000     ......Y@.....@.@
  4094a8:	00000000 40c38800 00000000 40f86a00     .......@.....j.@
  4094b8:	00000000 412e8480 00000000 416312d0     .......A......cA
  4094c8:	00000000 4197d784 00000000 41cdcd65     .......A....e..A
  4094d8:	20000000 4202a05f e8000000 42374876     ... _..B....vH7B
  4094e8:	a2000000 426d1a94 e5400000 42a2309c     ......mB..@..0.B
  4094f8:	1e900000 42d6bcc4 26340000 430c6bf5     .......B..4&.k.C
  409508:	37e08000 4341c379 85d8a000 43763457     ...7y.AC....W4vC
  409518:	674ec800 43abc16d 60913d00 43e158e4     ..Ngm..C.=.`.X.C
  409528:	78b58c40 4415af1d d6e2ef50 444b1ae4     @..x...DP.....KD
  409538:	064dd592 4480f0cf c7e14af6 44b52d02     ..M....D.J...-.D
  409548:	79d99db4 44ea7843                       ...yCx.D

00409550 <p05.6055>:
  409550:	00000005 00000019 0000007d              ........}...

0040955c <_ctype_>:
  40955c:	20202000 20202020 28282020 20282828     .         ((((( 
  40956c:	20202020 20202020 20202020 20202020                     
  40957c:	10108820 10101010 10101010 10101010      ...............
  40958c:	04040410 04040404 10040404 10101010     ................
  40959c:	41411010 41414141 01010101 01010101     ..AAAAAA........
  4095ac:	01010101 01010101 01010101 10101010     ................
  4095bc:	42421010 42424242 02020202 02020202     ..BBBBBB........
  4095cc:	02020202 02020202 02020202 10101010     ................
  4095dc:	00000020 00000000 00000000 00000000      ...............
	...

00409660 <_init>:
  409660:	b5f8      	push	{r3, r4, r5, r6, r7, lr}
  409662:	bf00      	nop
  409664:	bcf8      	pop	{r3, r4, r5, r6, r7}
  409666:	bc08      	pop	{r3}
  409668:	469e      	mov	lr, r3
  40966a:	4770      	bx	lr

0040966c <__init_array_start>:
  40966c:	00405bd5 	.word	0x00405bd5

00409670 <__frame_dummy_init_array_entry>:
  409670:	0040018d                                ..@.

00409674 <_fini>:
  409674:	b5f8      	push	{r3, r4, r5, r6, r7, lr}
  409676:	bf00      	nop
  409678:	bcf8      	pop	{r3, r4, r5, r6, r7}
  40967a:	bc08      	pop	{r3}
  40967c:	469e      	mov	lr, r3
  40967e:	4770      	bx	lr

00409680 <__fini_array_start>:
  409680:	00400169 	.word	0x00400169
